###############################################################################
#                                                                             #
# IAR C/C++ Compiler V8.10.1.10194/W32 for 8051         17/Jan/2014  09:29:24 #
# Copyright 2004-2011 IAR Systems AB.                                         #
#                                                                             #
#    Core               =  plain                                              #
#    Code model         =  banked                                             #
#    Data model         =  large                                              #
#    Calling convention =  xdata reentrant                                    #
#    Constant location  =  data_rom                                           #
#    Dptr setup         =  1,16                                               #
#    Source file        =  Z:\Designs\ZigbeeTI\CODE\work\Components\stack\zcl #
#                          \zcl.c                                             #
#    Command line       =  -f Z:\Designs\ZigbeeTI\CODE\work\Projects\zstack\Z #
#                          NP\CC253x\..\Source\znp.cfg                        #
#                          (-DMAC_CFG_APP_PENDING_QUEUE=TRUE                  #
#                          "-DZSTACK_DEVICE_BUILD=(DEVICE_BUILD_COORDINATOR   #
#                          | DEVICE_BUILD_ROUTER | DEVICE_BUILD_ENDDEVICE)"   #
#                          -DNWK_AUTO_POLL -DZNP_RUN_WDOG=FALSE               #
#                          -DZNP_UART_BAUD=HAL_UART_BR_115200 -DZIGBEEPRO     #
#                          -DZIGBEE_FRAGMENTATION -DOSAL_CLOCK                #
#                          -DOSAL_SAPI=FALSE -DSAPI_CB_FUNC=FALSE -DNV_INIT   #
#                          -DNUM_DISC_ATTEMPTS=0) -f                          #
#                          Z:\Designs\ZigbeeTI\CODE\work\Projects\zstack\ZNP\ #
#                          CC253x\..\..\Tools\CC2530DB\f8wConfig.cfg          #
#                          (-DZIGBEEPRO -DSECURE=0 -DZG_SECURE_DYNAMIC=0      #
#                          -DREFLECTOR -DDEFAULT_CHANLIST=0x00002000          #
#                          -DZDAPP_CONFIG_PAN_ID=0xFFFF                       #
#                          -DNWK_START_DELAY=100 -DEXTENDED_JOINING_RANDOM_MA #
#                          SK=0x007F -DBEACON_REQUEST_DELAY=100               #
#                          -DBEACON_REQ_DELAY_MASK=0x00FF                     #
#                          -DLINK_STATUS_JITTER_MASK=0x007F                   #
#                          -DROUTE_EXPIRY_TIME=30 -DAPSC_ACK_WAIT_DURATION_PO #
#                          LLED=3000 -DNWK_INDIRECT_MSG_TIMEOUT=7             #
#                          -DMAX_RREQ_ENTRIES=8 -DAPSC_MAX_FRAME_RETRIES=3    #
#                          -DNWK_MAX_DATA_RETRIES=2                           #
#                          -DMAX_POLL_FAILURE_RETRIES=2 -DMAX_BCAST=9         #
#                          -DAPS_MAX_GROUPS=16 -DMAX_RTG_ENTRIES=40           #
#                          -DNWK_MAX_BINDING_ENTRIES=4                        #
#                          -DMAX_BINDING_CLUSTER_IDS=4 "-DDEFAULT_KEY={0x01,  #
#                          0x03, 0x05, 0x07, 0x09, 0x0B, 0x0D, 0x0F, 0x00,    #
#                          0x02, 0x04, 0x06, 0x08, 0x0A, 0x0C, 0x0D}"         #
#                          -DMAC_MAX_FRAME_SIZE=116                           #
#                          -DZDNWKMGR_MIN_TRANSMISSIONS=20 "-DCONST=const     #
#                          __code" -DGENERIC=__generic                        #
#                          -DRFD_RCVC_ALWAYS_ON=FALSE -DPOLL_RATE=1000        #
#                          -DQUEUED_POLL_RATE=100 -DRESPONSE_POLL_RATE=100    #
#                          -DREJOIN_POLL_RATE=440) -f                         #
#                          Z:\Designs\ZigbeeTI\CODE\work\Projects\zstack\ZNP\ #
#                          CC253x\..\..\Tools\CC2530DB\f8wZCL.cfg             #
#                          Z:\Designs\ZigbeeTI\CODE\work\Components\stack\zcl #
#                          \zcl.c -D POWER_SAVING -lC                         #
#                          Z:\Designs\ZigbeeTI\CODE\work\Projects\zstack\ZNP\ #
#                          CC253x\CC2530-Debug\List\ -lA                      #
#                          Z:\Designs\ZigbeeTI\CODE\work\Projects\zstack\ZNP\ #
#                          CC253x\CC2530-Debug\List\ --diag_suppress          #
#                          Pe001,Pa010 -o Z:\Designs\ZigbeeTI\CODE\work\Proje #
#                          cts\zstack\ZNP\CC253x\CC2530-Debug\Obj\ -e         #
#                          --no_code_motion --debug --core=plain --dptr=16,1  #
#                          --data_model=large --code_model=banked             #
#                          --calling_convention=xdata_reentrant               #
#                          --place_constants=data_rom --nr_virtual_regs 16    #
#                          -I Z:\Designs\ZigbeeTI\CODE\work\Projects\zstack\Z #
#                          NP\CC253x\ -I Z:\Designs\ZigbeeTI\CODE\work\Projec #
#                          ts\zstack\ZNP\CC253x\Source\ -I                    #
#                          Z:\Designs\ZigbeeTI\CODE\work\Projects\zstack\ZNP\ #
#                          CC253x\..\Source\ -I Z:\Designs\ZigbeeTI\CODE\work #
#                          \Projects\zstack\ZNP\CC253x\..\..\SE\Source\ -I    #
#                          Z:\Designs\ZigbeeTI\CODE\work\Projects\zstack\ZNP\ #
#                          CC253x\..\..\ZMain\TI2530ZNP\ -I                   #
#                          Z:\Designs\ZigbeeTI\CODE\work\Projects\zstack\ZNP\ #
#                          CC253x\..\..\..\..\Components\hal\include\ -I      #
#                          Z:\Designs\ZigbeeTI\CODE\work\Projects\zstack\ZNP\ #
#                          CC253x\..\..\..\..\Components\hal\target\CC2530ZNP #
#                          \ -I Z:\Designs\ZigbeeTI\CODE\work\Projects\zstack #
#                          \ZNP\CC253x\..\..\..\..\Components\mac\include\    #
#                          -I Z:\Designs\ZigbeeTI\CODE\work\Projects\zstack\Z #
#                          NP\CC253x\..\..\..\..\Components\mac\high_level\   #
#                          -I Z:\Designs\ZigbeeTI\CODE\work\Projects\zstack\Z #
#                          NP\CC253x\..\..\..\..\Components\mac\low_level\srf #
#                          04\ -I Z:\Designs\ZigbeeTI\CODE\work\Projects\zsta #
#                          ck\ZNP\CC253x\..\..\..\..\Components\mac\low_level #
#                          \srf04\single_chip\ -I Z:\Designs\ZigbeeTI\CODE\wo #
#                          rk\Projects\zstack\ZNP\CC253x\..\..\..\..\Componen #
#                          ts\mt\ -I Z:\Designs\ZigbeeTI\CODE\work\Projects\z #
#                          stack\ZNP\CC253x\..\..\..\..\Components\osal\inclu #
#                          de\ -I Z:\Designs\ZigbeeTI\CODE\work\Projects\zsta #
#                          ck\ZNP\CC253x\..\..\..\..\Components\services\sadd #
#                          r\ -I Z:\Designs\ZigbeeTI\CODE\work\Projects\zstac #
#                          k\ZNP\CC253x\..\..\..\..\Components\services\sdata #
#                          \ -I Z:\Designs\ZigbeeTI\CODE\work\Projects\zstack #
#                          \ZNP\CC253x\..\..\..\..\Components\stack\af\ -I    #
#                          Z:\Designs\ZigbeeTI\CODE\work\Projects\zstack\ZNP\ #
#                          CC253x\..\..\..\..\Components\stack\nwk\ -I        #
#                          Z:\Designs\ZigbeeTI\CODE\work\Projects\zstack\ZNP\ #
#                          CC253x\..\..\..\..\Components\stack\sapi\ -I       #
#                          Z:\Designs\ZigbeeTI\CODE\work\Projects\zstack\ZNP\ #
#                          CC253x\..\..\..\..\Components\stack\sec\ -I        #
#                          Z:\Designs\ZigbeeTI\CODE\work\Projects\zstack\ZNP\ #
#                          CC253x\..\..\..\..\Components\stack\sys\ -I        #
#                          Z:\Designs\ZigbeeTI\CODE\work\Projects\zstack\ZNP\ #
#                          CC253x\..\..\..\..\Components\stack\zcl\ -I        #
#                          Z:\Designs\ZigbeeTI\CODE\work\Projects\zstack\ZNP\ #
#                          CC253x\..\..\..\..\Components\stack\zdo\ -I        #
#                          Z:\Designs\ZigbeeTI\CODE\work\Projects\zstack\ZNP\ #
#                          CC253x\..\..\..\..\Components\zmac\ -I             #
#                          Z:\Designs\ZigbeeTI\CODE\work\Projects\zstack\ZNP\ #
#                          CC253x\..\..\..\..\Components\zmac\f8w\ -Ohz       #
#                          --require_prototypes                               #
#    List file          =  Z:\Designs\ZigbeeTI\CODE\work\Projects\zstack\ZNP\ #
#                          CC253x\CC2530-Debug\List\zcl.lst                   #
#    Object file        =  Z:\Designs\ZigbeeTI\CODE\work\Projects\zstack\ZNP\ #
#                          CC253x\CC2530-Debug\Obj\zcl.r51                    #
#                                                                             #
#                                                                             #
###############################################################################

Z:\Designs\ZigbeeTI\CODE\work\Components\stack\zcl\zcl.c
      1          /**************************************************************************************************
      2            Filename:       zcl.c
      3            Revised:        $Date: 2012-01-30 10:40:08 -0800 (Mon, 30 Jan 2012) $
      4            Revision:       $Revision: 29096 $
      5          
      6            Description:    This file contains the Zigbee Cluster Library Foundation functions.
      7          
      8          
      9            Copyright 2006-2012 Texas Instruments Incorporated. All rights reserved.
     10          
     11            IMPORTANT: Your use of this Software is limited to those specific rights
     12            granted under the terms of a software license agreement between the user
     13            who downloaded the software, his/her employer (which must be your employer)
     14            and Texas Instruments Incorporated (the "License").  You may not use this
     15            Software unless you agree to abide by the terms of the License. The License
     16            limits your use, and you acknowledge, that the Software may not be modified,
     17            copied or distributed unless embedded on a Texas Instruments microcontroller
     18            or used solely and exclusively in conjunction with a Texas Instruments radio
     19            frequency transceiver, which is integrated into your product.  Other than for
     20            the foregoing purpose, you may not use, reproduce, copy, prepare derivative
     21            works of, modify, distribute, perform, display or sell this Software and/or
     22            its documentation for any purpose.
     23          
     24            YOU FURTHER ACKNOWLEDGE AND AGREE THAT THE SOFTWARE AND DOCUMENTATION ARE
     25            PROVIDED “AS IS” WITHOUT WARRANTY OF ANY KIND, EITHER EXPRESS OR IMPLIED,
     26            INCLUDING WITHOUT LIMITATION, ANY WARRANTY OF MERCHANTABILITY, TITLE,
     27            NON-INFRINGEMENT AND FITNESS FOR A PARTICULAR PURPOSE. IN NO EVENT SHALL
     28            TEXAS INSTRUMENTS OR ITS LICENSORS BE LIABLE OR OBLIGATED UNDER CONTRACT,
     29            NEGLIGENCE, STRICT LIABILITY, CONTRIBUTION, BREACH OF WARRANTY, OR OTHER
     30            LEGAL EQUITABLE THEORY ANY DIRECT OR INDIRECT DAMAGES OR EXPENSES
     31            INCLUDING BUT NOT LIMITED TO ANY INCIDENTAL, SPECIAL, INDIRECT, PUNITIVE
     32            OR CONSEQUENTIAL DAMAGES, LOST PROFITS OR LOST DATA, COST OF PROCUREMENT
     33            OF SUBSTITUTE GOODS, TECHNOLOGY, SERVICES, OR ANY CLAIMS BY THIRD PARTIES
     34            (INCLUDING BUT NOT LIMITED TO ANY DEFENSE THEREOF), OR OTHER SIMILAR COSTS.
     35          
     36            Should you have any questions regarding your right to use this Software,
     37            contact Texas Instruments Incorporated at www.TI.com.
     38          **************************************************************************************************/
     39          
     40          /*********************************************************************
     41           * INCLUDES
     42           */
     43          #include "ZComDef.h"
     44          #include "OSAL.h"
     45          #include "OSAL_Tasks.h"
     46          #include "AF.h"
     47          #include "ZDConfig.h"
     48          
     49          #include "zcl.h"
     50          #include "zcl_general.h"
     51          
     52          #if defined ( INTER_PAN )
     53            #include "stub_aps.h"
     54          #endif
     55          
     56          /*********************************************************************
     57           * MACROS
     58           */
     59          /*** Frame Control ***/
     60          #define zcl_FCType( a )               ( (a) & ZCL_FRAME_CONTROL_TYPE )
     61          #define zcl_FCManuSpecific( a )       ( (a) & ZCL_FRAME_CONTROL_MANU_SPECIFIC )
     62          #define zcl_FCDirection( a )          ( (a) & ZCL_FRAME_CONTROL_DIRECTION )
     63          #define zcl_FCDisableDefaultRsp( a )  ( (a) & ZCL_FRAME_CONTROL_DISABLE_DEFAULT_RSP )
     64          
     65          /*** Attribute Access Control ***/
     66          #define zcl_AccessCtrlRead( a )       ( (a) & ACCESS_CONTROL_READ )
     67          #define zcl_AccessCtrlWrite( a )      ( (a) & ACCESS_CONTROL_WRITE )
     68          #define zcl_AccessCtrlCmd( a )        ( (a) & ACCESS_CONTROL_CMD )
     69          #define zcl_AccessCtrlAuthRead( a )   ( (a) & ACCESS_CONTROL_AUTH_READ )
     70          #define zcl_AccessCtrlAuthWrite( a )  ( (a) & ACCESS_CONTROL_AUTH_WRITE )
     71          
     72          #define zclParseCmd( a, b )           zclCmdTable[(a)].pfnParseInProfile( (b) )
     73          #define zclProcessCmd( a, b )         zclCmdTable[(a)].pfnProcessInProfile( (b) )
     74          
     75          #define zcl_DefaultRspCmd( zclHdr )   ( zcl_ProfileCmd( (zclHdr).fc.type )     && \
     76                                                  (zclHdr).fc.manuSpecific == 0          && \
     77                                                  (zclHdr).commandID == ZCL_CMD_DEFAULT_RSP )
     78          
     79          // Commands that have corresponding responses
     80          #define CMD_HAS_RSP( cmd )            ( (cmd) == ZCL_CMD_READ            || \
     81                                                  (cmd) == ZCL_CMD_WRITE           || \
     82                                                  (cmd) == ZCL_CMD_WRITE_UNDIVIDED || \
     83                                                  (cmd) == ZCL_CMD_CONFIG_REPORT   || \
     84                                                  (cmd) == ZCL_CMD_READ_REPORT_CFG || \
     85                                                  (cmd) == ZCL_CMD_DISCOVER        || \
     86                                                  (cmd) == ZCL_CMD_DEFAULT_RSP ) // exception
     87          
     88          /*********************************************************************
     89           * CONSTANTS
     90           */
     91          
     92          /*********************************************************************
     93           * TYPEDEFS
     94           */
     95          typedef struct zclLibPlugin
     96          {
     97            struct zclLibPlugin *next;
     98            uint16              startClusterID;    // starting cluster ID
     99            uint16              endClusterID;      // ending cluster ID
    100            zclInHdlr_t         pfnIncomingHdlr;    // function to handle incoming message
    101          } zclLibPlugin_t;
    102          
    103          // Attribute record list item
    104          typedef struct zclAttrRecsList
    105          {
    106            struct zclAttrRecsList *next;
    107            uint8                  endpoint;      // Used to link it into the endpoint descriptor
    108            zclReadWriteCB_t       pfnReadWriteCB;// Read or Write attribute value callback function
    109            zclAuthorizeCB_t       pfnAuthorizeCB;// Authorize Read or Write operation
    110            uint8                  numAttributes; // Number of the following records
    111            CONST zclAttrRec_t     *attrs;        // attribute records
    112          } zclAttrRecsList;
    113          
    114          // Cluster option list item
    115          typedef struct zclClusterOptionList
    116          {
    117            struct zclClusterOptionList *next;
    118            uint8                       endpoint;   // Used to link it into the endpoint descriptor
    119            uint8                       numOptions; // Number of the following records
    120            zclOptionRec_t              *options;   // option records
    121          } zclClusterOptionList;
    122          
    123          typedef void *(*zclParseInProfileCmd_t)( zclParseCmd_t *pCmd );
    124          typedef uint8 (*zclProcessInProfileCmd_t)( zclIncoming_t *pInMsg );
    125          
    126          typedef struct
    127          {
    128            zclParseInProfileCmd_t   pfnParseInProfile;
    129            zclProcessInProfileCmd_t pfnProcessInProfile;
    130          } zclCmdItems_t;
    131          
    132          
    133          /*********************************************************************
    134           * GLOBAL VARIABLES
    135           */

   \                                 In  segment XDATA_Z, align 1, keep-with-next
    136          uint8 zcl_TaskID;
   \                     zcl_TaskID:
   \   000000                DS 1
   \   000001                REQUIRE __INIT_XDATA_Z
    137          
    138          // The task Id of the Application where the unprocessed Foundation
    139          // Command/Response messages will be sent to.

   \                                 In  segment XDATA_I, align 1, keep-with-next
    140          uint8 zcl_RegisteredMsgTaskID = TASK_NO_TASK;
   \                     zcl_RegisteredMsgTaskID:
   \   000000                DS 1
   \   000001                REQUIRE `?<Initializer for zcl_RegisteredMsgTaskID>`
   \   000001                REQUIRE __INIT_XDATA_I
    141          
    142          // The Application should register its attribute data validation function

   \                                 In  segment XDATA_Z, align 1, keep-with-next
    143          zclValidateAttrData_t zcl_ValidateAttrDataCB = NULL;
   \                     zcl_ValidateAttrDataCB:
   \   000000                DS 2
   \   000002                REQUIRE __INIT_XDATA_Z
    144          
    145          // ZCL Sequence number

   \                                 In  segment XDATA_Z, align 1, keep-with-next
    146          uint8 zcl_SeqNum = 0x00;
   \                     zcl_SeqNum:
   \   000000                DS 1
   \   000001                REQUIRE __INIT_XDATA_Z
    147          
    148          /*********************************************************************
    149           * EXTERNAL VARIABLES
    150           */
    151          
    152          /*********************************************************************
    153           * EXTERNAL FUNCTIONS
    154           */
    155          
    156          /*********************************************************************
    157           * LOCAL VARIABLES
    158           */

   \                                 In  segment XDATA_Z, align 1, keep-with-next
    159          static zclLibPlugin_t *plugins;
   \                     plugins:
   \   000000                DS 2
   \   000002                REQUIRE __INIT_XDATA_Z

   \                                 In  segment XDATA_Z, align 1, keep-with-next
    160          static zclAttrRecsList *attrList;
   \                     attrList:
   \   000000                DS 2
   \   000002                REQUIRE __INIT_XDATA_Z

   \                                 In  segment XDATA_Z, align 1, keep-with-next
    161          static zclClusterOptionList *clusterOptionList;
   \                     clusterOptionList:
   \   000000                DS 2
   \   000002                REQUIRE __INIT_XDATA_Z

   \                                 In  segment XDATA_Z, align 1, keep-with-next
    162          static uint8 zcl_TransID = 0;  // This is the unique message ID (counter)
   \                     zcl_TransID:
   \   000000                DS 1
   \   000001                REQUIRE __INIT_XDATA_Z
    163          

   \                                 In  segment XDATA_Z, align 1, keep-with-next
    164          static afIncomingMSGPacket_t *rawAFMsg = NULL;
   \                     rawAFMsg:
   \   000000                DS 2
   \   000002                REQUIRE __INIT_XDATA_Z
    165          
    166          /*********************************************************************
    167           * LOCAL FUNCTIONS
    168           */
    169          void zclProcessMessageMSG( afIncomingMSGPacket_t *pkt );  // Not static for ZNP build.
    170          static uint8 *zclBuildHdr( zclFrameHdr_t *hdr, uint8 *pData );
    171          static uint8 zclCalcHdrSize( zclFrameHdr_t *hdr );
    172          static zclLibPlugin_t *zclFindPlugin( uint16 clusterID, uint16 profileID );
    173          static zclAttrRecsList *zclFindAttrRecsList( uint8 endpoint );
    174          static zclOptionRec_t *zclFindClusterOption( uint8 endpoint, uint16 clusterID );
    175          static uint8 zclGetClusterOption( uint8 endpoint, uint16 clusterID );
    176          static void zclSetSecurityOption( uint8 endpoint, uint16 clusterID, uint8 enable );
    177          
    178          static uint8 zcl_DeviceOperational( uint8 srcEP, uint16 clusterID, uint8 frameType, uint8 cmd, uint16 profileID );
    179          
    180          #if defined ( ZCL_READ ) || defined ( ZCL_WRITE )
    181          static zclReadWriteCB_t zclGetReadWriteCB( uint8 endpoint );
    182          static zclAuthorizeCB_t zclGetAuthorizeCB( uint8 endpoint );
    183          #endif // ZCL_READ || ZCL_WRITE
    184          
    185          #ifdef ZCL_READ
    186          static uint16 zclGetAttrDataLengthUsingCB( uint8 endpoint, uint16 clusterID, uint16 attrId );
    187          static ZStatus_t zclReadAttrDataUsingCB( uint8 endpoint, uint16 clusterId, uint16 attrId,
    188                                                   uint8 *pAttrData, uint16 *pDataLen );
    189          static ZStatus_t zclAuthorizeRead( uint8 endpoint, afAddrType_t *srcAddr, zclAttrRec_t *pAttr );
    190          static void *zclParseInReadRspCmd( zclParseCmd_t *pCmd );
    191          static uint8 zclProcessInReadCmd( zclIncoming_t *pInMsg );
    192          #endif // ZCL_READ
    193          
    194          #ifdef ZCL_WRITE
    195          static ZStatus_t zclWriteAttrData( uint8 endpoint, afAddrType_t *srcAddr,
    196                                             zclAttrRec_t *pAttr, zclWriteRec_t *pWriteRec );
    197          static ZStatus_t zclWriteAttrDataUsingCB( uint8 endpoint, afAddrType_t *srcAddr,
    198                                                    zclAttrRec_t *pAttr, uint8 *pAttrData );
    199          static ZStatus_t zclAuthorizeWrite( uint8 endpoint, afAddrType_t *srcAddr, zclAttrRec_t *pAttr );
    200          static void *zclParseInWriteRspCmd( zclParseCmd_t *pCmd );
    201          static uint8 zclProcessInWriteCmd( zclIncoming_t *pInMsg );
    202          static uint8 zclProcessInWriteUndividedCmd( zclIncoming_t *pInMsg );
    203          #endif // ZCL_WRITE
    204          
    205          #ifdef ZCL_REPORT
    206          static void *zclParseInConfigReportRspCmd( zclParseCmd_t *pCmd );
    207          static void *zclParseInReadReportCfgRspCmd( zclParseCmd_t *pCmd );
    208          #endif // ZCL_REPORT
    209          
    210          static void *zclParseInDefaultRspCmd( zclParseCmd_t *pCmd );
    211          
    212          #ifdef ZCL_DISCOVER
    213          static uint8 zclFindNextAttrRec( uint8 endpoint, uint16 clusterID, uint16 *attrId, zclAttrRec_t *pAttr );
    214          static void *zclParseInDiscRspCmd( zclParseCmd_t *pCmd );
    215          static uint8 zclProcessInDiscCmd( zclIncoming_t *pInMsg );
    216          #endif // ZCL_DISCOVER
    217          
    218          static uint8 zclSendMsg( zclIncoming_t *pInMsg );
    219          
    220          /*********************************************************************
    221           * Parse Profile Command Function Table
    222           */

   \                                 In  segment CODE_C, align 1
    223          static CONST zclCmdItems_t zclCmdTable[] =
   \                     zclCmdTable:
   \   000000   0000         DW 0H
   \   000002   0000         DW 0H
   \   000004   0000         DW 0H
   \   000006   0000         DW 0H
   \   000008   0000         DW 0H
   \   00000A   0000         DW 0H
   \   00000C   0000         DW 0H
   \   00000E   0000         DW 0H
   \   000010   0000         DW 0H
   \   000012   0000         DW 0H
   \   000014   0000         DW 0H
   \   000016   0000         DW 0H
   \   000018   0000         DW 0H
   \   00001A   0000         DW 0H
   \   00001C   0000         DW 0H
   \   00001E   0000         DW 0H
   \   000020   0000         DW 0H
   \   000022   0000         DW 0H
   \   000024   0000         DW 0H
   \   000026   0000         DW 0H
   \   000028   0000         DW 0H
   \   00002A   0000         DW 0H
   \   00002C   ....         DW ??zclParseInDefaultRspCmd?relay
   \   00002E   ....         DW ??zclSendMsg?relay
   \   000030   0000         DW 0H
   \   000032   0000         DW 0H
   \   000034   0000         DW 0H
   \   000036   0000         DW 0H
    224          {
    225          #ifdef ZCL_READ
    226            /* ZCL_CMD_READ */                { zclParseInReadCmd,             zclProcessInReadCmd             },
    227            /* ZCL_CMD_READ_RSP */            { zclParseInReadRspCmd,          zclSendMsg                      },
    228          #else
    229            /* ZCL_CMD_READ */                { NULL,                          NULL                            },
    230            /* ZCL_CMD_READ_RSP */            { NULL,                          NULL                            },
    231          #endif // ZCL_READ
    232          
    233          #ifdef ZCL_WRITE
    234            /* ZCL_CMD_WRITE */               { zclParseInWriteCmd,            zclProcessInWriteCmd            },
    235            /* ZCL_CMD_WRITE_UNDIVIDED */     { zclParseInWriteCmd,            zclProcessInWriteUndividedCmd   },
    236            /* ZCL_CMD_WRITE_RSP */           { zclParseInWriteRspCmd,         zclSendMsg                      },
    237            /* ZCL_CMD_WRITE_NO_RSP */        { zclParseInWriteCmd,            zclProcessInWriteCmd            },
    238          #else
    239            /* ZCL_CMD_WRITE */               { NULL,                          NULL                            },
    240            /* ZCL_CMD_WRITE_UNDIVIDED */     { NULL,                          NULL                            },
    241            /* ZCL_CMD_WRITE_RSP */           { NULL,                          NULL                            },
    242            /* ZCL_CMD_WRITE_NO_RSP */        { NULL,                          NULL                            },
    243          #endif // ZCL_WRITE
    244          
    245          #ifdef ZCL_REPORT
    246            /* ZCL_CMD_CONFIG_REPORT */       { zclParseInConfigReportCmd,     zclSendMsg                      },
    247            /* ZCL_CMD_CONFIG_REPORT_RSP */   { zclParseInConfigReportRspCmd,  zclSendMsg                      },
    248            /* ZCL_CMD_READ_REPORT_CFG */     { zclParseInReadReportCfgCmd,    zclSendMsg                      },
    249            /* ZCL_CMD_READ_REPORT_CFG_RSP */ { zclParseInReadReportCfgRspCmd, zclSendMsg                      },
    250            /* ZCL_CMD_REPORT */              { zclParseInReportCmd,           zclSendMsg                      },
    251          #else
    252            /* ZCL_CMD_CONFIG_REPORT */       { NULL,                          NULL                            },
    253            /* ZCL_CMD_CONFIG_REPORT_RSP */   { NULL,                          NULL                            },
    254            /* ZCL_CMD_READ_REPORT_CFG */     { NULL,                          NULL                            },
    255            /* ZCL_CMD_READ_REPORT_CFG_RSP */ { NULL,                          NULL                            },
    256            /* ZCL_CMD_REPORT */              { NULL,                          NULL                            },
    257          #endif // ZCL_REPORT
    258          
    259            /* ZCL_CMD_DEFAULT_RSP */         { zclParseInDefaultRspCmd,       zclSendMsg                      },
    260          
    261          #ifdef ZCL_DISCOVER
    262            /* ZCL_CMD_DISCOVER */            { zclParseInDiscCmd,             zclProcessInDiscCmd             },
    263            /* ZCL_CMD_DISCOVER_RSP */        { zclParseInDiscRspCmd,          zclSendMsg                      }
    264          #else
    265            /* ZCL_CMD_DISCOVER */            { NULL,                          NULL                            },
    266            /* ZCL_CMD_DISCOVER_RSP */        { NULL,                          NULL                            }
    267          #endif // ZCL_DISCOVER
    268          };
    269          
    270          /*********************************************************************
    271           * PUBLIC FUNCTIONS
    272           *********************************************************************/
    273          
    274          /*********************************************************************
    275           * @fn          zcl_Init
    276           *
    277           * @brief       Initialization function for the zcl layer.
    278           *
    279           * @param       task_id - ZCL task id
    280           *
    281           * @return      none
    282           */

   \                                 In  segment BANKED_CODE, align 1, keep-with-next
    283          void zcl_Init( uint8 task_id )
   \                     zcl_Init:
    284          {
   \   000000   C082         PUSH    DPL
   \   000002   C083         PUSH    DPH
   \   000004                ; Saved register size: 2
   \   000004                ; Auto size: 0
    285            zcl_TaskID = task_id;
   \   000004   E9           MOV     A,R1
   \   000005   90....       MOV     DPTR,#zcl_TaskID
   \   000008   F0           MOVX    @DPTR,A
    286          
    287            plugins = (zclLibPlugin_t  *)NULL;
   \   000009   90....       MOV     DPTR,#plugins
   \   00000C   E4           CLR     A
   \   00000D   F0           MOVX    @DPTR,A
   \   00000E   A3           INC     DPTR
   \   00000F   F0           MOVX    @DPTR,A
    288            attrList = (zclAttrRecsList *)NULL;
   \   000010   90....       MOV     DPTR,#attrList
   \   000013   F0           MOVX    @DPTR,A
   \   000014   A3           INC     DPTR
   \   000015   F0           MOVX    @DPTR,A
    289            clusterOptionList = (zclClusterOptionList *)NULL;
   \   000016   90....       MOV     DPTR,#clusterOptionList
   \   000019   F0           MOVX    @DPTR,A
   \   00001A   A3           INC     DPTR
   \   00001B   F0           MOVX    @DPTR,A
    290          }
   \   00001C   02....       LJMP    ?Subroutine0 & 0xFFFF

   \                                 In  segment BANKED_CODE, align 1, keep-with-next
   \                     ?Subroutine0:
   \   000000   D083         POP     DPH
   \   000002   D082         POP     DPL
   \   000004   02....       LJMP    ?BRET
    291          
    292          /*********************************************************************
    293           * @fn          zcl_event_loop
    294           *
    295           * @brief       Event Loop Processor for zcl.
    296           *
    297           * @param       task_id - task id
    298           * @param       events - event bitmap
    299           *
    300           * @return      unprocessed events
    301           */

   \                                 In  segment BANKED_CODE, align 1, keep-with-next
    302          uint16 zcl_event_loop( uint8 task_id, uint16 events )
   \                     zcl_event_loop:
    303          {
   \   000000   74F4         MOV     A,#-0xc
   \   000002   12....       LCALL   ?BANKED_ENTER_XDATA
   \   000005                ; Saved register size: 12
   \   000005                ; Auto size: 0
   \   000005   8A..         MOV     ?V0 + 0,R2
   \   000007   8B..         MOV     ?V0 + 1,R3
    304            uint8 *msgPtr;
    305          
    306            (void)task_id;  // Intentionally unreferenced parameter
    307          
    308            if ( events & SYS_EVENT_MSG )
   \   000009   EB           MOV     A,R3
   \   00000A   5480         ANL     A,#0x80
   \   00000C   6056         JZ      ??zcl_event_loop_0
    309            {
    310              msgPtr = osal_msg_receive( zcl_TaskID );
   \   00000E                ; Setup parameters for call to function osal_msg_receive
   \   00000E   801C         SJMP    ??zcl_event_loop_1
    311              while ( msgPtr != NULL )
    312              {
    313                uint8 dealloc = TRUE;
    314          
    315                if ( *msgPtr == AF_INCOMING_MSG_CMD )
    316                {
    317                  rawAFMsg = (afIncomingMSGPacket_t *)msgPtr;
   \                     ??zcl_event_loop_2:
   \   000010   90....       MOV     DPTR,#rawAFMsg
   \   000013   EE           MOV     A,R6
   \   000014   F0           MOVX    @DPTR,A
   \   000015   A3           INC     DPTR
   \   000016   EF           MOV     A,R7
   \   000017   F0           MOVX    @DPTR,A
    318                  zclProcessMessageMSG( rawAFMsg );
   \   000018                ; Setup parameters for call to function zclProcessMessageMSG
   \   000018   12....       LCALL   ?Subroutine24 & 0xFFFF
   \                     ??CrossCallReturnLabel_131:
   \   00001B   12....       LCALL   ??zclProcessMessageMSG?relay
    319                  rawAFMsg = NULL;
   \   00001E   90....       MOV     DPTR,#rawAFMsg
   \   000021   E4           CLR     A
   \   000022   F0           MOVX    @DPTR,A
   \   000023   A3           INC     DPTR
   \   000024   F0           MOVX    @DPTR,A
    320                }
    321                else if ( zcl_RegisteredMsgTaskID != TASK_NO_TASK )
    322                {
    323                  // send it to another task to process.
    324                  osal_msg_send( zcl_RegisteredMsgTaskID, msgPtr );
    325                  dealloc = FALSE;
    326                }
    327          
    328                // Release the memory
    329                if ( dealloc )
    330                {
    331                  osal_msg_deallocate( msgPtr );
   \                     ??zcl_event_loop_3:
   \   000025                ; Setup parameters for call to function osal_msg_deallocate
   \   000025   EE           MOV     A,R6
   \   000026   FA           MOV     R2,A
   \   000027   EF           MOV     A,R7
   \   000028   FB           MOV     R3,A
   \   000029   12....       LCALL   ??osal_msg_deallocate?relay
    332                }
    333          
    334                // Next
    335                msgPtr = osal_msg_receive( zcl_TaskID );
   \                     ??zcl_event_loop_1:
   \   00002C                ; Setup parameters for call to function osal_msg_receive
   \   00002C   90....       MOV     DPTR,#zcl_TaskID
   \   00002F   E0           MOVX    A,@DPTR
   \   000030   F9           MOV     R1,A
   \   000031   12....       LCALL   ??osal_msg_receive?relay
   \   000034   8A..         MOV     ?V0 + 2,R2
   \   000036   8B..         MOV     ?V0 + 3,R3
   \   000038   AE..         MOV     R6,?V0 + 2
   \   00003A   AF..         MOV     R7,?V0 + 3
   \   00003C   EE           MOV     A,R6
   \   00003D   4F           ORL     A,R7
   \   00003E   601B         JZ      ??zcl_event_loop_4
   \   000040   8E82         MOV     DPL,R6
   \   000042   8F83         MOV     DPH,R7
   \   000044   E0           MOVX    A,@DPTR
   \   000045   641A         XRL     A,#0x1a
   \   000047   60C7         JZ      ??zcl_event_loop_2
   \   000049   90....       MOV     DPTR,#zcl_RegisteredMsgTaskID
   \   00004C   E0           MOVX    A,@DPTR
   \   00004D   F4           CPL     A
   \   00004E   60D5         JZ      ??zcl_event_loop_3
   \   000050                ; Setup parameters for call to function osal_msg_send
   \   000050   EE           MOV     A,R6
   \   000051   FA           MOV     R2,A
   \   000052   EF           MOV     A,R7
   \   000053   FB           MOV     R3,A
   \   000054   E0           MOVX    A,@DPTR
   \   000055   F9           MOV     R1,A
   \   000056   12....       LCALL   ??osal_msg_send?relay
   \   000059   80D1         SJMP    ??zcl_event_loop_1
    336              }
    337          
    338              // return unprocessed events
    339              return (events ^ SYS_EVENT_MSG);
   \                     ??zcl_event_loop_4:
   \   00005B   AA..         MOV     R2,?V0 + 0
   \   00005D   E5..         MOV     A,?V0 + 1
   \   00005F   6480         XRL     A,#0x80
   \   000061   FB           MOV     R3,A
   \   000062   8004         SJMP    ??zcl_event_loop_5
    340            }
    341          
    342            // Discard unknown events
    343            return 0;
   \                     ??zcl_event_loop_0:
   \   000064   7A00         MOV     R2,#0x0
   \   000066   7B00         MOV     R3,#0x0
   \                     ??zcl_event_loop_5:
   \   000068   02....       LJMP    ?Subroutine1 & 0xFFFF
    344          }

   \                                 In  segment BANKED_CODE, align 1, keep-with-next
   \                     ?Subroutine1:
   \   000000   7F04         MOV     R7,#0x4
   \   000002   02....       LJMP    ?BANKED_LEAVE_XDATA

   \                                 In  segment BANKED_CODE, align 1, keep-with-next
   \                     ?Subroutine24:
   \   000000   90....       MOV     DPTR,#rawAFMsg
   \   000003                REQUIRE ??Subroutine62_0
   \   000003                ; // Fall through to label ??Subroutine62_0

   \                                 In  segment BANKED_CODE, align 1, keep-with-next
   \                     ??Subroutine62_0:
   \   000000   E0           MOVX    A,@DPTR
   \   000001   FA           MOV     R2,A
   \   000002   A3           INC     DPTR
   \   000003   E0           MOVX    A,@DPTR
   \   000004   FB           MOV     R3,A
   \   000005   22           RET
    345          
    346          /*********************************************************************
    347           * @fn          zcl_getRawAFMsg
    348           *
    349           * @brief       Call to get original unprocessed AF message
    350           *              (not parsed by ZCL).
    351           *
    352           *   NOTE:  This function can only be called during a ZCL callback function
    353           *          and the calling function must NOT change any data in the message.
    354           *
    355           * @param       none
    356           *
    357           * @return      pointer to original AF message, NULL if not processing
    358           *              AF message.
    359           */

   \                                 In  segment BANKED_CODE, align 1, keep-with-next
    360          afIncomingMSGPacket_t *zcl_getRawAFMsg( void )
   \                     zcl_getRawAFMsg:
    361          {
   \   000000   C082         PUSH    DPL
   \   000002   C083         PUSH    DPH
   \   000004                ; Saved register size: 2
   \   000004                ; Auto size: 0
    362            return ( rawAFMsg );
   \   000004   12....       LCALL   ?Subroutine24 & 0xFFFF
   \                     ??CrossCallReturnLabel_132:
   \   000007   02....       LJMP    ?Subroutine0 & 0xFFFF
    363          }
    364          
    365          /*********************************************************************
    366           * @fn          zcl_registerPlugin
    367           *
    368           * @brief       Add a Cluster Library handler
    369           *
    370           * @param       startClusterID - starting cluster ID
    371           * @param       endClusterID - ending cluster ID
    372           * @param       pfnHdlr - function pointer to incoming message handler
    373           *
    374           * @return      ZSuccess if OK
    375           */

   \                                 In  segment BANKED_CODE, align 1, keep-with-next
    376          ZStatus_t zcl_registerPlugin( uint16 startClusterID,
   \                     zcl_registerPlugin:
    377                    uint16 endClusterID, zclInHdlr_t pfnIncomingHdlr )
    378          {
   \   000000   74F2         MOV     A,#-0xe
   \   000002   12....       LCALL   ?BANKED_ENTER_XDATA
   \   000005                ; Saved register size: 14
   \   000005                ; Auto size: 0
   \   000005   8A..         MOV     ?V0 + 0,R2
   \   000007   8B..         MOV     ?V0 + 1,R3
   \   000009   8C..         MOV     ?V0 + 2,R4
   \   00000B   8D..         MOV     ?V0 + 3,R5
   \   00000D   740E         MOV     A,#0xe
   \   00000F   12....       LCALL   ?XSTACK_DISP0_8
   \   000012   E0           MOVX    A,@DPTR
   \   000013   FE           MOV     R6,A
   \   000014   A3           INC     DPTR
   \   000015   E0           MOVX    A,@DPTR
   \   000016   FF           MOV     R7,A
    379            zclLibPlugin_t *pNewItem;
    380            zclLibPlugin_t *pLoop;
    381          
    382            // Fill in the new profile list
    383            pNewItem = osal_mem_alloc( sizeof( zclLibPlugin_t ) );
   \   000017                ; Setup parameters for call to function osal_mem_alloc
   \   000017   7A08         MOV     R2,#0x8
   \   000019   7B00         MOV     R3,#0x0
   \   00001B   12....       LCALL   ??osal_mem_alloc?relay
   \   00001E   8A..         MOV     ?V0 + 4,R2
   \   000020   8B..         MOV     ?V0 + 5,R3
   \   000022   A8..         MOV     R0,?V0 + 4
   \   000024   A9..         MOV     R1,?V0 + 5
    384            if ( pNewItem == NULL )
   \   000026   E8           MOV     A,R0
   \   000027   49           ORL     A,R1
   \   000028   7004         JNZ     ??zcl_registerPlugin_0
    385            {
    386              return (ZMemError);
   \   00002A   7910         MOV     R1,#0x10
   \   00002C   8039         SJMP    ??CrossCallReturnLabel_13
    387            }
    388          
    389            // Fill in the plugin record.
    390            pNewItem->next = (zclLibPlugin_t *)NULL;
   \                     ??zcl_registerPlugin_0:
   \   00002E   12....       LCALL   ?Subroutine41 & 0xFFFF
    391            pNewItem->startClusterID = startClusterID;
   \                     ??CrossCallReturnLabel_70:
   \   000031   A3           INC     DPTR
   \   000032   12....       LCALL   ?Subroutine8 & 0xFFFF
    392            pNewItem->endClusterID = endClusterID;
   \                     ??CrossCallReturnLabel_84:
   \   000035   E5..         MOV     A,?V0 + 2
   \   000037   F0           MOVX    @DPTR,A
   \   000038   A3           INC     DPTR
   \   000039   E5..         MOV     A,?V0 + 3
   \   00003B   F0           MOVX    @DPTR,A
    393            pNewItem->pfnIncomingHdlr = pfnIncomingHdlr;
   \   00003C   EE           MOV     A,R6
   \   00003D   FA           MOV     R2,A
   \   00003E   EF           MOV     A,R7
   \   00003F   FB           MOV     R3,A
   \   000040   8882         MOV     DPL,R0
   \   000042   8983         MOV     DPH,R1
   \   000044   A3           INC     DPTR
   \   000045   A3           INC     DPTR
   \   000046   A3           INC     DPTR
   \   000047   A3           INC     DPTR
   \   000048   A3           INC     DPTR
   \   000049   A3           INC     DPTR
   \   00004A   EA           MOV     A,R2
   \   00004B   F0           MOVX    @DPTR,A
   \   00004C   A3           INC     DPTR
   \   00004D   EB           MOV     A,R3
   \   00004E   F0           MOVX    @DPTR,A
    394          
    395            // Find spot in list
    396            if (  plugins == NULL )
   \   00004F   90....       MOV     DPTR,#plugins
   \   000052   12....       LCALL   ?Subroutine21 & 0xFFFF
   \                     ??CrossCallReturnLabel_31:
   \   000055   7008         JNZ     ??zcl_registerPlugin_1
    397            {
    398              plugins = pNewItem;
   \   000057   90....       MOV     DPTR,#plugins
   \   00005A   8008         SJMP    ??zcl_registerPlugin_2
    399            }
    400            else
    401            {
    402              // Look for end of list
    403              pLoop = plugins;
    404              while ( pLoop->next != NULL )
    405              {
    406                pLoop = pLoop->next;
   \                     ??zcl_registerPlugin_3:
   \   00005C   E0           MOVX    A,@DPTR
   \   00005D   FA           MOV     R2,A
   \   00005E   A3           INC     DPTR
    407              }
   \                     ??zcl_registerPlugin_1:
   \   00005F   12....       LCALL   ?Subroutine16 & 0xFFFF
   \                     ??CrossCallReturnLabel_19:
   \   000062   70F8         JNZ     ??zcl_registerPlugin_3
    408          
    409              // Put new item at end of list
    410              pLoop->next = pNewItem;
    411            }
   \                     ??zcl_registerPlugin_2:
   \   000064   12....       LCALL   ?Subroutine12 & 0xFFFF
    412          
    413            return ( ZSuccess );
   \                     ??CrossCallReturnLabel_13:
   \   000067                REQUIRE ?Subroutine2
   \   000067                ; // Fall through to label ?Subroutine2
    414          }

   \                                 In  segment BANKED_CODE, align 1, keep-with-next
   \                     ?Subroutine2:
   \   000000   7F06         MOV     R7,#0x6
   \   000002   02....       LJMP    ?BANKED_LEAVE_XDATA

   \                                 In  segment BANKED_CODE, align 1, keep-with-next
   \                     ?Subroutine8:
   \   000000   E5..         MOV     A,?V0 + 1
   \   000002                REQUIRE ??Subroutine53_0
   \   000002                ; // Fall through to label ??Subroutine53_0

   \                                 In  segment BANKED_CODE, align 1, keep-with-next
   \                     ??Subroutine53_0:
   \   000000   12....       LCALL   ?Subroutine42 & 0xFFFF
   \                     ??CrossCallReturnLabel_87:
   \   000003   22           RET

   \                                 In  segment BANKED_CODE, align 1, keep-with-next
   \                     ?Subroutine42:
   \   000000   12....       LCALL   ?Subroutine50 & 0xFFFF
   \                     ??CrossCallReturnLabel_89:
   \   000003   A3           INC     DPTR
   \   000004   A3           INC     DPTR
   \   000005   A3           INC     DPTR
   \   000006   22           RET

   \                                 In  segment BANKED_CODE, align 1, keep-with-next
   \                     ?Subroutine16:
   \   000000   E0           MOVX    A,@DPTR
   \   000001   FB           MOV     R3,A
   \   000002   8A82         MOV     DPL,R2
   \   000004   8B83         MOV     DPH,R3
   \   000006   12....       LCALL   ??Subroutine64_0 & 0xFFFF
   \                     ??CrossCallReturnLabel_140:
   \   000009   EC           MOV     A,R4
   \   00000A   4D           ORL     A,R5
   \   00000B   8A82         MOV     DPL,R2
   \   00000D   8B83         MOV     DPH,R3
   \   00000F   22           RET

   \                                 In  segment BANKED_CODE, align 1, keep-with-next
   \                     ?Subroutine12:
   \   000000   E8           MOV     A,R0
   \   000001   F0           MOVX    @DPTR,A
   \   000002   A3           INC     DPTR
   \   000003   E9           MOV     A,R1
   \   000004   F0           MOVX    @DPTR,A
   \   000005   7900         MOV     R1,#0x0
   \   000007   22           RET

   \                                 In  segment BANKED_CODE, align 1, keep-with-next
   \                     ?Subroutine21:
   \   000000   E0           MOVX    A,@DPTR
   \   000001   FA           MOV     R2,A
   \   000002   A3           INC     DPTR
   \   000003   E0           MOVX    A,@DPTR
   \   000004   FB           MOV     R3,A
   \   000005   EA           MOV     A,R2
   \   000006   4B           ORL     A,R3
   \   000007   22           RET

   \                                 In  segment BANKED_CODE, align 1, keep-with-next
   \                     ?Subroutine41:
   \   000000   8882         MOV     DPL,R0
   \   000002   8983         MOV     DPH,R1
   \   000004   E4           CLR     A
   \   000005   F0           MOVX    @DPTR,A
   \   000006   A3           INC     DPTR
   \   000007   12....       LCALL   ?Subroutine50 & 0xFFFF
   \                     ??CrossCallReturnLabel_90:
   \   00000A   A3           INC     DPTR
   \   00000B   E5..         MOV     A,?V0 + 0
   \   00000D   F0           MOVX    @DPTR,A
   \   00000E   22           RET

   \                                 In  segment BANKED_CODE, align 1, keep-with-next
   \                     ?Subroutine50:
   \   000000   F0           MOVX    @DPTR,A
   \   000001   8882         MOV     DPL,R0
   \   000003   8983         MOV     DPH,R1
   \   000005   A3           INC     DPTR
   \   000006   22           RET

   \                                 In  segment BANKED_CODE, align 1, keep-with-next
   \                     ??Subroutine64_0:
   \   000000   E0           MOVX    A,@DPTR
   \   000001   FC           MOV     R4,A
   \   000002   A3           INC     DPTR
   \   000003   E0           MOVX    A,@DPTR
   \   000004   FD           MOV     R5,A
   \   000005   22           RET
    415          
    416          /*********************************************************************
    417           * @fn          zcl_registerAttrList
    418           *
    419           * @brief       Register an Attribute List with ZCL Foundation
    420           *
    421           * @param       endpoint - endpoint the attribute list belongs to
    422           * @param       numAttr - number of attributes in list
    423           * @param       newAttrList - array of Attribute records.
    424           *                            NOTE: THE ATTRIBUTE IDs (FOR A CLUSTER) MUST BE IN
    425           *                            ASCENDING ORDER. OTHERWISE, THE DISCOVERY RESPONSE
    426           *                            COMMAND WILL NOT HAVE THE RIGHT ATTRIBUTE INFO
    427           *
    428           * @return      ZSuccess if OK
    429           */

   \                                 In  segment BANKED_CODE, align 1, keep-with-next
    430          ZStatus_t zcl_registerAttrList( uint8 endpoint, uint8 numAttr, CONST zclAttrRec_t newAttrList[] )
   \                     zcl_registerAttrList:
    431          {
   \   000000   74F4         MOV     A,#-0xc
   \   000002   12....       LCALL   ?BANKED_ENTER_XDATA
   \   000005                ; Saved register size: 12
   \   000005                ; Auto size: 0
   \   000005   89..         MOV     ?V0 + 0,R1
   \   000007   8A..         MOV     ?V0 + 1,R2
   \   000009   EC           MOV     A,R4
   \   00000A   FE           MOV     R6,A
   \   00000B   ED           MOV     A,R5
   \   00000C   FF           MOV     R7,A
    432            zclAttrRecsList *pNewItem;
    433            zclAttrRecsList *pLoop;
    434          
    435            // Fill in the new profile list
    436            pNewItem = osal_mem_alloc( sizeof( zclAttrRecsList ) );
   \   00000D                ; Setup parameters for call to function osal_mem_alloc
   \   00000D   7A0A         MOV     R2,#0xa
   \   00000F   12....       LCALL   ?Subroutine35 & 0xFFFF
    437            if ( pNewItem == NULL )
   \                     ??CrossCallReturnLabel_58:
   \   000012   7004         JNZ     ??zcl_registerAttrList_0
    438            {
    439              return (ZMemError);
   \   000014   7910         MOV     R1,#0x10
   \   000016   802C         SJMP    ??CrossCallReturnLabel_14
    440            }
    441          
    442            pNewItem->next = (zclAttrRecsList *)NULL;
   \                     ??zcl_registerAttrList_0:
   \   000018   12....       LCALL   ?Subroutine5 & 0xFFFF
    443            pNewItem->endpoint = endpoint;
    444            pNewItem->pfnReadWriteCB = NULL;
   \                     ??CrossCallReturnLabel_0:
   \   00001B   E4           CLR     A
   \   00001C   F0           MOVX    @DPTR,A
   \   00001D   A3           INC     DPTR
   \   00001E   12....       LCALL   ?Subroutine7 & 0xFFFF
    445            pNewItem->numAttributes = numAttr;
   \                     ??CrossCallReturnLabel_5:
   \   000021   E5..         MOV     A,?V0 + 1
   \   000023   12....       LCALL   ?Subroutine7 & 0xFFFF
    446            pNewItem->attrs = newAttrList;
   \                     ??CrossCallReturnLabel_6:
   \   000026   A3           INC     DPTR
   \   000027   EE           MOV     A,R6
   \   000028   F0           MOVX    @DPTR,A
   \   000029   A3           INC     DPTR
   \   00002A   EF           MOV     A,R7
   \   00002B   F0           MOVX    @DPTR,A
    447          
    448            // Find spot in list
    449            if ( attrList == NULL )
   \   00002C   90....       MOV     DPTR,#attrList
   \   00002F   12....       LCALL   ?Subroutine21 & 0xFFFF
   \                     ??CrossCallReturnLabel_32:
   \   000032   7008         JNZ     ??zcl_registerAttrList_1
    450            {
    451              attrList = pNewItem;
   \   000034   90....       MOV     DPTR,#attrList
   \   000037   8008         SJMP    ??zcl_registerAttrList_2
    452            }
    453            else
    454            {
    455              // Look for end of list
    456              pLoop = attrList;
    457              while ( pLoop->next != NULL )
    458              {
    459                pLoop = pLoop->next;
   \                     ??zcl_registerAttrList_3:
   \   000039   E0           MOVX    A,@DPTR
   \   00003A   FA           MOV     R2,A
   \   00003B   A3           INC     DPTR
    460              }
   \                     ??zcl_registerAttrList_1:
   \   00003C   12....       LCALL   ?Subroutine16 & 0xFFFF
   \                     ??CrossCallReturnLabel_20:
   \   00003F   70F8         JNZ     ??zcl_registerAttrList_3
    461          
    462              // Put new item at end of list
    463              pLoop->next = pNewItem;
    464            }
   \                     ??zcl_registerAttrList_2:
   \   000041   12....       LCALL   ?Subroutine12 & 0xFFFF
    465          
    466            return ( ZSuccess );
   \                     ??CrossCallReturnLabel_14:
   \   000044   80..         SJMP    ?Subroutine1
    467          }

   \                                 In  segment BANKED_CODE, align 1, keep-with-next
   \                     ?Subroutine7:
   \   000000   12....       LCALL   ?Subroutine42 & 0xFFFF
   \                     ??CrossCallReturnLabel_88:
   \   000003   A3           INC     DPTR
   \   000004   A3           INC     DPTR
   \   000005   A3           INC     DPTR
   \   000006   22           RET

   \                                 In  segment BANKED_CODE, align 1, keep-with-next
   \                     ?Subroutine35:
   \   000000   7B00         MOV     R3,#0x0
   \   000002   12....       LCALL   ??osal_mem_alloc?relay
   \   000005   8A..         MOV     ?V0 + 2,R2
   \   000007   8B..         MOV     ?V0 + 3,R3
   \   000009   A8..         MOV     R0,?V0 + 2
   \   00000B   A9..         MOV     R1,?V0 + 3
   \   00000D   E8           MOV     A,R0
   \   00000E   49           ORL     A,R1
   \   00000F   22           RET

   \                                 In  segment BANKED_CODE, align 1, keep-with-next
   \                     ?Subroutine5:
   \   000000   12....       LCALL   ?Subroutine41 & 0xFFFF
   \                     ??CrossCallReturnLabel_71:
   \   000003   8882         MOV     DPL,R0
   \   000005   8983         MOV     DPH,R1
   \   000007   A3           INC     DPTR
   \   000008   A3           INC     DPTR
   \   000009   A3           INC     DPTR
   \   00000A   22           RET
    468          
    469          /*********************************************************************
    470           * @fn          zcl_registerClusterOptionList
    471           *
    472           * @brief       Register a Cluster Option List with ZCL Foundation
    473           *
    474           * @param       endpoint - endpoint the option list belongs to
    475           * @param       numOption - number of options in list
    476           * @param       optionList - array of cluster option records.
    477           *
    478           *              NOTE: This API should be called to enable 'Application
    479           *                    Link Key' security and/or 'APS ACK' for a specific
    480           *                    Cluster. The 'Application Link Key' is discarded
    481           *                    if security isn't enabled on the device.
    482           *                    The default behavior is 'Network Key' when security
    483           *                    is enabled and no 'APS ACK' for the ZCL messages.
    484           *
    485           * @return      ZSuccess if OK
    486           */

   \                                 In  segment BANKED_CODE, align 1, keep-with-next
    487          ZStatus_t zcl_registerClusterOptionList( uint8 endpoint, uint8 numOption, zclOptionRec_t optionList[] )
   \                     zcl_registerClusterOptionList:
    488          {
   \   000000   74F4         MOV     A,#-0xc
   \   000002   12....       LCALL   ?BANKED_ENTER_XDATA
   \   000005                ; Saved register size: 12
   \   000005                ; Auto size: 0
   \   000005   89..         MOV     ?V0 + 0,R1
   \   000007   8A..         MOV     ?V0 + 1,R2
   \   000009   EC           MOV     A,R4
   \   00000A   FE           MOV     R6,A
   \   00000B   ED           MOV     A,R5
   \   00000C   FF           MOV     R7,A
    489            zclClusterOptionList *pNewItem;
    490            zclClusterOptionList *pLoop;
    491          
    492            // Fill in the new profile list
    493            pNewItem = osal_mem_alloc( sizeof( zclClusterOptionList ) );
   \   00000D                ; Setup parameters for call to function osal_mem_alloc
   \   00000D   7A06         MOV     R2,#0x6
   \   00000F   12....       LCALL   ?Subroutine35 & 0xFFFF
    494            if ( pNewItem == NULL )
   \                     ??CrossCallReturnLabel_59:
   \   000012   7004         JNZ     ??zcl_registerClusterOptionList_0
    495            {
    496              return (ZMemError);
   \   000014   7910         MOV     R1,#0x10
   \   000016   8023         SJMP    ??CrossCallReturnLabel_15
    497            }
    498          
    499            pNewItem->next = (zclClusterOptionList *)NULL;
   \                     ??zcl_registerClusterOptionList_0:
   \   000018   12....       LCALL   ?Subroutine5 & 0xFFFF
    500            pNewItem->endpoint = endpoint;
    501            pNewItem->numOptions = numOption;
   \                     ??CrossCallReturnLabel_1:
   \   00001B   12....       LCALL   ?Subroutine8 & 0xFFFF
    502            pNewItem->options = optionList;
   \                     ??CrossCallReturnLabel_85:
   \   00001E   EE           MOV     A,R6
   \   00001F   F0           MOVX    @DPTR,A
   \   000020   A3           INC     DPTR
   \   000021   EF           MOV     A,R7
   \   000022   F0           MOVX    @DPTR,A
    503          
    504            // Find spot in list
    505            if ( clusterOptionList == NULL )
   \   000023   90....       MOV     DPTR,#clusterOptionList
   \   000026   12....       LCALL   ?Subroutine21 & 0xFFFF
   \                     ??CrossCallReturnLabel_33:
   \   000029   7008         JNZ     ??zcl_registerClusterOptionList_1
    506            {
    507              clusterOptionList = pNewItem;
   \   00002B   90....       MOV     DPTR,#clusterOptionList
   \   00002E   8008         SJMP    ??zcl_registerClusterOptionList_2
    508            }
    509            else
    510            {
    511              // Look for end of list
    512              pLoop = clusterOptionList;
    513              while ( pLoop->next != NULL )
    514              {
    515                pLoop = pLoop->next;
   \                     ??zcl_registerClusterOptionList_3:
   \   000030   E0           MOVX    A,@DPTR
   \   000031   FA           MOV     R2,A
   \   000032   A3           INC     DPTR
    516              }
   \                     ??zcl_registerClusterOptionList_1:
   \   000033   12....       LCALL   ?Subroutine16 & 0xFFFF
   \                     ??CrossCallReturnLabel_21:
   \   000036   70F8         JNZ     ??zcl_registerClusterOptionList_3
    517          
    518              // Put new item at end of list
    519              pLoop->next = pNewItem;
    520            }
   \                     ??zcl_registerClusterOptionList_2:
   \   000038   12....       LCALL   ?Subroutine12 & 0xFFFF
    521          
    522            return ( ZSuccess );
   \                     ??CrossCallReturnLabel_15:
   \   00003B                REQUIRE ?Subroutine1
   \   00003B                ; // Fall through to label ?Subroutine1
    523          }
    524          
    525          /*********************************************************************
    526           * @fn          zcl_registerValidateAttrData
    527           *
    528           * @brief       Add a validation function for attribute data
    529           *
    530           * @param       pfnValidateAttrData - function pointer to validate routine
    531           *
    532           * @return      ZSuccess if OK
    533           */

   \                                 In  segment BANKED_CODE, align 1, keep-with-next
    534          ZStatus_t zcl_registerValidateAttrData( zclValidateAttrData_t pfnValidateAttrData )
   \                     zcl_registerValidateAttrData:
    535          {
   \   000000   C082         PUSH    DPL
   \   000002   C083         PUSH    DPH
   \   000004                ; Saved register size: 2
   \   000004                ; Auto size: 0
    536            zcl_ValidateAttrDataCB = pfnValidateAttrData;
   \   000004   90....       MOV     DPTR,#zcl_ValidateAttrDataCB
   \   000007   EA           MOV     A,R2
   \   000008   F0           MOVX    @DPTR,A
   \   000009   A3           INC     DPTR
   \   00000A   EB           MOV     A,R3
   \   00000B   F0           MOVX    @DPTR,A
    537          
    538            return ( ZSuccess );
   \   00000C   7900         MOV     R1,#0x0
   \   00000E   80..         SJMP    ?Subroutine0
    539          }
    540          
    541          /*********************************************************************
    542           * @fn          zcl_registerReadWriteCB
    543           *
    544           * @brief       Register the application's callback function to read/write
    545           *              attribute data, and authorize read/write operation.
    546           *
    547           *              Note: The pfnReadWriteCB callback function is only required
    548           *                    when the attribute data format is unknown to ZCL. The
    549           *                    callback function gets called when the pointer 'dataPtr'
    550           *                    to the attribute value is NULL in the attribute database
    551           *                    registered with the ZCL.
    552           *
    553           *              Note: The pfnAuthorizeCB callback function is only required
    554           *                    when the Read/Write operation on an attribute requires
    555           *                    authorization (i.e., attributes with ACCESS_CONTROL_AUTH_READ
    556           *                    or ACCESS_CONTROL_AUTH_WRITE access permissions).
    557           *
    558           * @param       endpoint - application's endpoint
    559           * @param       pfnReadWriteCB - function pointer to read/write routine
    560           * @param       pfnAuthorizeCB - function pointer to authorize read/write operation
    561           *
    562           * @return      ZSuccess if successful. ZFailure, otherwise.
    563           */

   \                                 In  segment BANKED_CODE, align 1, keep-with-next
    564          ZStatus_t zcl_registerReadWriteCB( uint8 endpoint, zclReadWriteCB_t pfnReadWriteCB,
   \                     zcl_registerReadWriteCB:
    565                                             zclAuthorizeCB_t pfnAuthorizeCB )
    566          {
   \   000000   74F2         MOV     A,#-0xe
   \   000002   12....       LCALL   ?BANKED_ENTER_XDATA
   \   000005                ; Saved register size: 14
   \   000005                ; Auto size: 0
   \   000005   EA           MOV     A,R2
   \   000006   FE           MOV     R6,A
   \   000007   EB           MOV     A,R3
   \   000008   FF           MOV     R7,A
   \   000009   8C..         MOV     ?V0 + 0,R4
   \   00000B   8D..         MOV     ?V0 + 1,R5
    567            zclAttrRecsList *pRec = zclFindAttrRecsList( endpoint );
   \   00000D                ; Setup parameters for call to function zclFindAttrRecsList
   \   00000D   12....       LCALL   ??zclFindAttrRecsList?relay
   \   000010   8A..         MOV     ?V0 + 4,R2
   \   000012   8B..         MOV     ?V0 + 5,R3
   \   000014   A8..         MOV     R0,?V0 + 4
   \   000016   A9..         MOV     R1,?V0 + 5
    568          
    569            if ( pRec != NULL )
   \   000018   E8           MOV     A,R0
   \   000019   49           ORL     A,R1
   \   00001A   601A         JZ      ??zcl_registerReadWriteCB_0
    570            {
    571              pRec->pfnReadWriteCB = pfnReadWriteCB;
   \   00001C   8882         MOV     DPL,R0
   \   00001E   8983         MOV     DPH,R1
   \   000020   A3           INC     DPTR
   \   000021   A3           INC     DPTR
   \   000022   A3           INC     DPTR
   \   000023   EE           MOV     A,R6
   \   000024   F0           MOVX    @DPTR,A
   \   000025   A3           INC     DPTR
   \   000026   EF           MOV     A,R7
   \   000027   12....       LCALL   ??Subroutine53_0 & 0xFFFF
    572              pRec->pfnAuthorizeCB = pfnAuthorizeCB;
   \                     ??CrossCallReturnLabel_86:
   \   00002A   A3           INC     DPTR
   \   00002B   E5..         MOV     A,?V0 + 0
   \   00002D   F0           MOVX    @DPTR,A
   \   00002E   A3           INC     DPTR
   \   00002F   E5..         MOV     A,?V0 + 1
   \   000031   F0           MOVX    @DPTR,A
    573          
    574              return ( ZSuccess );
   \   000032   7900         MOV     R1,#0x0
   \   000034   8002         SJMP    ??zcl_registerReadWriteCB_1
    575            }
    576          
    577            return ( ZFailure );
   \                     ??zcl_registerReadWriteCB_0:
   \   000036   7901         MOV     R1,#0x1
   \                     ??zcl_registerReadWriteCB_1:
   \   000038   02....       LJMP    ?Subroutine2 & 0xFFFF
    578          }
    579          
    580          /*********************************************************************
    581           * @fn      zcl_registerForMsg
    582           *
    583           * @brief   The ZCL is setup to send all incoming Foundation Command/Response
    584           *          messages that aren't processed to one task (if a task is
    585           *          registered).
    586           *
    587           * @param   taskId - task Id of the Application where commands will be sent to
    588           *
    589           * @return  TRUE if task registeration successful, FALSE otherwise
    590           *********************************************************************/

   \                                 In  segment BANKED_CODE, align 1, keep-with-next
    591          uint8 zcl_registerForMsg( uint8 taskId )
   \                     zcl_registerForMsg:
    592          {
   \   000000   C082         PUSH    DPL
   \   000002   C083         PUSH    DPH
   \   000004                ; Saved register size: 2
   \   000004                ; Auto size: 0
   \   000004   E9           MOV     A,R1
   \   000005   F8           MOV     R0,A
    593            // Allow only the first task
    594            if ( zcl_RegisteredMsgTaskID == TASK_NO_TASK )
   \   000006   90....       MOV     DPTR,#zcl_RegisteredMsgTaskID
   \   000009   E0           MOVX    A,@DPTR
   \   00000A   F4           CPL     A
   \   00000B   7006         JNZ     ??zcl_registerForMsg_0
    595            {
    596              zcl_RegisteredMsgTaskID = taskId;
   \   00000D   E8           MOV     A,R0
   \   00000E   F0           MOVX    @DPTR,A
    597          
    598              return ( true );
   \   00000F   7901         MOV     R1,#0x1
   \   000011   8002         SJMP    ??zcl_registerForMsg_1
    599            }
    600          
    601            return ( false );
   \                     ??zcl_registerForMsg_0:
   \   000013   7900         MOV     R1,#0x0
   \                     ??zcl_registerForMsg_1:
   \   000015                REQUIRE ?Subroutine0
   \   000015                ; // Fall through to label ?Subroutine0
    602          }
    603          
    604          /*********************************************************************
    605           * @fn      zcl_DeviceOperational
    606           *
    607           * @brief   Used to see whether or not the device can send or respond
    608           *          to application level commands.
    609           *
    610           * @param   srcEP - source endpoint
    611           * @param   clusterID - cluster ID
    612           * @param   frameType - command type
    613           * @param   cmd - command ID
    614           *
    615           * @return  TRUE if device is operational, FALSE otherwise
    616           */

   \                                 In  segment BANKED_CODE, align 1, keep-with-next
    617          static uint8 zcl_DeviceOperational( uint8 srcEP, uint16 clusterID,
   \                     zcl_DeviceOperational:
    618                                              uint8 frameType, uint8 cmd, uint16 profileID )
    619          {
   \   000000   74F5         MOV     A,#-0xb
   \   000002   12....       LCALL   ?BANKED_ENTER_XDATA
   \   000005                ; Saved register size: 11
   \   000005                ; Auto size: 9
   \   000005   74F7         MOV     A,#-0x9
   \   000007   12....       LCALL   ?ALLOC_XSTACK8
   \   00000A   EC           MOV     A,R4
   \   00000B   FF           MOV     R7,A
    620            zclAttrRec_t attrRec;
    621            uint8 deviceEnabled = DEVICE_ENABLED; // default value
   \   00000C   85..82       MOV     DPL,?XSP + 0
   \   00000F   85..83       MOV     DPH,?XSP + 1
   \   000012   7401         MOV     A,#0x1
   \   000014   F0           MOVX    @DPTR,A
    622          
    623            (void)profileID;  // Intentionally unreferenced parameter
    624          
    625            // If the device is Disabled (DeviceEnabled attribute is set to Disabled), it
    626            // cannot send or respond to application level commands, other than commands
    627            // to read or write attributes. Note that the Identify cluster cannot be
    628            // disabled, and remains functional regardless of this setting.
    629            if ( zcl_ProfileCmd( frameType ) && cmd <= ZCL_CMD_WRITE_NO_RSP )
   \   000015   EF           MOV     A,R7
   \   000016   700A         JNZ     ??zcl_DeviceOperational_0
   \   000018   ED           MOV     A,R5
   \   000019   C3           CLR     C
   \   00001A   9406         SUBB    A,#0x6
   \   00001C   5004         JNC     ??zcl_DeviceOperational_0
    630            {
    631              return ( TRUE );
   \                     ??zcl_DeviceOperational_1:
   \   00001E   7901         MOV     R1,#0x1
   \   000020   805C         SJMP    ??zcl_DeviceOperational_2
    632            }
    633          
    634            if ( clusterID == ZCL_CLUSTER_ID_GEN_IDENTIFY )
   \                     ??zcl_DeviceOperational_0:
   \   000022   7403         MOV     A,#0x3
   \   000024   6A           XRL     A,R2
   \   000025   7001         JNZ     ??zcl_DeviceOperational_3
   \   000027   EB           MOV     A,R3
   \                     ??zcl_DeviceOperational_3:
   \   000028   60F4         JZ      ??zcl_DeviceOperational_1
    635            {
    636              return ( TRUE );
    637            }
    638          
    639            // Is device enabled?
    640            if ( zclFindAttrRec( srcEP, ZCL_CLUSTER_ID_GEN_BASIC,
    641                                 ATTRID_BASIC_DEVICE_ENABLED, &attrRec ) )
   \   00002A                ; Setup parameters for call to function zclFindAttrRec
   \   00002A   7401         MOV     A,#0x1
   \   00002C   12....       LCALL   ?XSTACK_DISP0_8
   \   00002F   8582..       MOV     ?V0 + 0,DPL
   \   000032   8583..       MOV     ?V0 + 1,DPH
   \   000035   78..         MOV     R0,#?V0 + 0
   \   000037   12....       LCALL   ?PUSH_XSTACK_I_TWO
   \   00003A   7C12         MOV     R4,#0x12
   \   00003C   7D00         MOV     R5,#0x0
   \   00003E   7A00         MOV     R2,#0x0
   \   000040   7B00         MOV     R3,#0x0
   \   000042   12....       LCALL   ??zclFindAttrRec?relay
   \   000045   7402         MOV     A,#0x2
   \   000047   12....       LCALL   ?DEALLOC_XSTACK8
   \   00004A   E9           MOV     A,R1
   \   00004B   6024         JZ      ??zcl_DeviceOperational_4
    642            {
    643              zclReadAttrData( &deviceEnabled, &attrRec, NULL );
   \   00004D                ; Setup parameters for call to function zclReadAttrData
   \   00004D   E4           CLR     A
   \   00004E   F5..         MOV     ?V0 + 0,A
   \   000050   F5..         MOV     ?V0 + 1,A
   \   000052   78..         MOV     R0,#?V0 + 0
   \   000054   12....       LCALL   ?PUSH_XSTACK_I_TWO
   \   000057   7403         MOV     A,#0x3
   \   000059   12....       LCALL   ?XSTACK_DISP0_8
   \   00005C   AC82         MOV     R4,DPL
   \   00005E   AD83         MOV     R5,DPH
   \   000060   7402         MOV     A,#0x2
   \   000062   12....       LCALL   ?XSTACK_DISP0_8
   \   000065   AA82         MOV     R2,DPL
   \   000067   AB83         MOV     R3,DPH
   \   000069   12....       LCALL   ??zclReadAttrData?relay
   \   00006C   7402         MOV     A,#0x2
   \   00006E   12....       LCALL   ?DEALLOC_XSTACK8
    644            }
    645          
    646            return ( deviceEnabled == DEVICE_ENABLED ? TRUE : FALSE );
   \                     ??zcl_DeviceOperational_4:
   \   000071   85..82       MOV     DPL,?XSP + 0
   \   000074   85..83       MOV     DPH,?XSP + 1
   \   000077   E0           MOVX    A,@DPTR
   \   000078   6401         XRL     A,#0x1
   \   00007A   60A2         JZ      ??zcl_DeviceOperational_1
   \   00007C   7900         MOV     R1,#0x0
   \                     ??zcl_DeviceOperational_2:
   \   00007E   7409         MOV     A,#0x9
   \   000080   12....       LCALL   ?DEALLOC_XSTACK8
   \   000083   7F03         MOV     R7,#0x3
   \   000085   02....       LJMP    ?BANKED_LEAVE_XDATA
    647          }
    648          
    649          /*********************************************************************
    650           * @fn      zcl_SendCommand
    651           *
    652           * @brief   Used to send Profile and Cluster Specific Command messages.
    653           *
    654           *          NOTE: The calling application is responsible for incrementing
    655           *                the Sequence Number.
    656           *
    657           * @param   srcEp - source endpoint
    658           * @param   destAddr - destination address
    659           * @param   clusterID - cluster ID
    660           * @param   cmd - command ID
    661           * @param   specific - whether the command is Cluster Specific
    662           * @param   direction - client/server direction of the command
    663           * @param   disableDefaultRsp - disable Default Response command
    664           * @param   manuCode - manufacturer code for proprietary extensions to a profile
    665           * @param   seqNumber - identification number for the transaction
    666           * @param   cmdFormatLen - length of the command to be sent
    667           * @param   cmdFormat - command to be sent
    668           *
    669           * @return  ZSuccess if OK
    670           */

   \                                 In  segment BANKED_CODE, align 1, keep-with-next
    671          ZStatus_t zcl_SendCommand( uint8 srcEP, afAddrType_t *destAddr,
   \                     zcl_SendCommand:
    672                                     uint16 clusterID, uint8 cmd, uint8 specific, uint8 direction,
    673                                     uint8 disableDefaultRsp, uint16 manuCode, uint8 seqNum,
    674                                     uint16 cmdFormatLen, uint8 *cmdFormat )
    675          {
   \   000000   74E8         MOV     A,#-0x18
   \   000002   12....       LCALL   ?BANKED_ENTER_XDATA
   \   000005                ; Saved register size: 24
   \   000005                ; Auto size: 8
   \   000005   74F8         MOV     A,#-0x8
   \   000007   12....       LCALL   ?ALLOC_XSTACK8
   \   00000A   7406         MOV     A,#0x6
   \   00000C   12....       LCALL   ?XSTACK_DISP0_8
   \   00000F   EA           MOV     A,R2
   \   000010   F0           MOVX    @DPTR,A
   \   000011   A3           INC     DPTR
   \   000012   EB           MOV     A,R3
   \   000013   F0           MOVX    @DPTR,A
   \   000014   89..         MOV     ?V0 + 6,R1
   \   000016   8C..         MOV     ?V0 + 2,R4
   \   000018   8D..         MOV     ?V0 + 3,R5
   \   00001A   7420         MOV     A,#0x20
   \   00001C   12....       LCALL   ?XSTACK_DISP0_8
   \   00001F   E0           MOVX    A,@DPTR
   \   000020   FE           MOV     R6,A
   \   000021   7421         MOV     A,#0x21
   \   000023   12....       LCALL   ?XSTACK_DISP0_8
   \   000026   E0           MOVX    A,@DPTR
   \   000027   F5..         MOV     ?V0 + 4,A
   \   000029   7422         MOV     A,#0x22
   \   00002B   12....       LCALL   ?XSTACK_DISP0_8
   \   00002E   E0           MOVX    A,@DPTR
   \   00002F   F5..         MOV     ?V0 + 1,A
   \   000031   7423         MOV     A,#0x23
   \   000033   12....       LCALL   ?XSTACK_DISP0_8
   \   000036   E0           MOVX    A,@DPTR
   \   000037   F5..         MOV     ?V0 + 0,A
   \   000039   7424         MOV     A,#0x24
   \   00003B   12....       LCALL   ?XSTACK_DISP0_8
   \   00003E   E0           MOVX    A,@DPTR
   \   00003F   F5..         MOV     ?V0 + 10,A
   \   000041   A3           INC     DPTR
   \   000042   E0           MOVX    A,@DPTR
   \   000043   F5..         MOV     ?V0 + 11,A
   \   000045   7426         MOV     A,#0x26
   \   000047   12....       LCALL   ?XSTACK_DISP0_8
   \   00004A   E0           MOVX    A,@DPTR
   \   00004B   FF           MOV     R7,A
   \   00004C   7427         MOV     A,#0x27
   \   00004E   12....       LCALL   ?XSTACK_DISP0_8
   \   000051   E0           MOVX    A,@DPTR
   \   000052   F5..         MOV     ?V0 + 14,A
   \   000054   A3           INC     DPTR
   \   000055   E0           MOVX    A,@DPTR
   \   000056   F5..         MOV     ?V0 + 15,A
    676            endPointDesc_t *epDesc;
    677            zclFrameHdr_t hdr;
    678            uint8 *msgBuf;
    679            uint16 msgLen;
    680            uint8 *pBuf;
    681            uint8 options;
    682            ZStatus_t status;
    683          
    684            epDesc = afFindEndPointDesc( srcEP );
   \   000058                ; Setup parameters for call to function afFindEndPointDesc
   \   000058   12....       LCALL   ??afFindEndPointDesc?relay
   \   00005B   8A..         MOV     ?V0 + 12,R2
   \   00005D   8B..         MOV     ?V0 + 13,R3
    685            if ( epDesc == NULL )
   \   00005F   EA           MOV     A,R2
   \   000060   45..         ORL     A,?V0 + 13
   \   000062   7005         JNZ     ??zcl_SendCommand_0
    686            {
    687              return ( ZInvalidParameter ); // EMBEDDED RETURN
   \   000064   7902         MOV     R1,#0x2
   \   000066   02....       LJMP    ??zcl_SendCommand_1 & 0xFFFF
    688            }
    689          
    690          #if defined ( INTER_PAN )
    691            if ( StubAPS_InterPan( destAddr->panId, destAddr->endPoint ) )
    692            {
    693              options = AF_TX_OPTIONS_NONE;
    694            }
    695            else
    696          #endif
    697            {
    698              options = zclGetClusterOption( srcEP, clusterID );
   \                     ??zcl_SendCommand_0:
   \   000069                ; Setup parameters for call to function zclGetClusterOption
   \   000069   AA..         MOV     R2,?V0 + 2
   \   00006B   AB..         MOV     R3,?V0 + 3
   \   00006D   A9..         MOV     R1,?V0 + 6
   \   00006F   12....       LCALL   ??zclGetClusterOption?relay
   \   000072   E9           MOV     A,R1
   \   000073   F5..         MOV     ?V0 + 7,A
    699            }
    700          
    701            osal_memset( &hdr, 0, sizeof( zclFrameHdr_t ) );
   \   000075                ; Setup parameters for call to function osal_memset
   \   000075   7C06         MOV     R4,#0x6
   \   000077   7D00         MOV     R5,#0x0
   \   000079   7900         MOV     R1,#0x0
   \   00007B   85..82       MOV     DPL,?XSP + 0
   \   00007E   85..83       MOV     DPH,?XSP + 1
   \   000081   AA82         MOV     R2,DPL
   \   000083   AB83         MOV     R3,DPH
   \   000085   12....       LCALL   ??osal_memset?relay
    702          
    703            // Not Profile wide command (like READ, WRITE)
    704            if ( specific )
   \   000088   E5..         MOV     A,?V0 + 4
   \   00008A   85..82       MOV     DPL,?XSP + 0
   \   00008D   85..83       MOV     DPH,?XSP + 1
   \   000090   6015         JZ      ??zcl_SendCommand_2
    705            {
    706              hdr.fc.type = ZCL_FRAME_TYPE_SPECIFIC_CMD;
   \   000092   E0           MOVX    A,@DPTR
   \   000093   54FC         ANL     A,#0xfc
   \   000095   F8           MOV     R0,A
   \   000096   A3           INC     DPTR
   \   000097   E0           MOVX    A,@DPTR
   \   000098   F9           MOV     R1,A
   \   000099   E8           MOV     A,R0
   \   00009A   4401         ORL     A,#0x1
   \   00009C   85..82       MOV     DPL,?XSP + 0
   \   00009F   85..83       MOV     DPH,?XSP + 1
   \   0000A2   F0           MOVX    @DPTR,A
   \   0000A3   A3           INC     DPTR
   \   0000A4   E9           MOV     A,R1
   \   0000A5   8003         SJMP    ??zcl_SendCommand_3
    707            }
    708            else
    709            {
    710              hdr.fc.type = ZCL_FRAME_TYPE_PROFILE_CMD;
   \                     ??zcl_SendCommand_2:
   \   0000A7   E0           MOVX    A,@DPTR
   \   0000A8   54FC         ANL     A,#0xfc
   \                     ??zcl_SendCommand_3:
   \   0000AA   F0           MOVX    @DPTR,A
    711            }
    712          
    713            if ( ( epDesc->simpleDesc == NULL ) ||
    714                 ( zcl_DeviceOperational( srcEP, clusterID, hdr.fc.type,
    715                                          cmd, epDesc->simpleDesc->AppProfId ) == FALSE ) )
   \   0000AB   85..82       MOV     DPL,?V0 + 12
   \   0000AE   85..83       MOV     DPH,?V0 + 13
   \   0000B1   A3           INC     DPTR
   \   0000B2   12....       LCALL   ??Subroutine60_0 & 0xFFFF
   \                     ??CrossCallReturnLabel_122:
   \   0000B5   6028         JZ      ??zcl_SendCommand_4
   \   0000B7                ; Setup parameters for call to function zcl_DeviceOperational
   \   0000B7   85..82       MOV     DPL,?V0 + 12
   \   0000BA   85..83       MOV     DPH,?V0 + 13
   \   0000BD   12....       LCALL   ?Subroutine47 & 0xFFFF
   \                     ??CrossCallReturnLabel_93:
   \   0000C0   12....       LCALL   ?PUSH_XSTACK8_X_TWO
   \   0000C3   EE           MOV     A,R6
   \   0000C4   FD           MOV     R5,A
   \   0000C5   7402         MOV     A,#0x2
   \   0000C7   12....       LCALL   ?XSTACK_DISP0_8
   \   0000CA   E0           MOVX    A,@DPTR
   \   0000CB   5403         ANL     A,#0x3
   \   0000CD   FC           MOV     R4,A
   \   0000CE   AA..         MOV     R2,?V0 + 2
   \   0000D0   AB..         MOV     R3,?V0 + 3
   \   0000D2   A9..         MOV     R1,?V0 + 6
   \   0000D4   12....       LCALL   ??zcl_DeviceOperational?relay
   \   0000D7   7402         MOV     A,#0x2
   \   0000D9   12....       LCALL   ?DEALLOC_XSTACK8
   \   0000DC   E9           MOV     A,R1
   \   0000DD   7005         JNZ     ??zcl_SendCommand_5
    716            {
    717              return ( ZFailure ); // EMBEDDED RETURN
   \                     ??zcl_SendCommand_4:
   \   0000DF   7901         MOV     R1,#0x1
   \   0000E1   02....       LJMP    ??zcl_SendCommand_1 & 0xFFFF
    718            }
    719          
    720            // Fill in the Maufacturer Code
    721            if ( manuCode != 0 )
   \                     ??zcl_SendCommand_5:
   \   0000E4   E5..         MOV     A,?V0 + 10
   \   0000E6   45..         ORL     A,?V0 + 11
   \   0000E8   6016         JZ      ??zcl_SendCommand_6
    722            {
    723              hdr.fc.manuSpecific = 1;
   \   0000EA   85..82       MOV     DPL,?XSP + 0
   \   0000ED   85..83       MOV     DPH,?XSP + 1
   \   0000F0   E0           MOVX    A,@DPTR
   \   0000F1   4404         ORL     A,#0x4
   \   0000F3   F0           MOVX    @DPTR,A
    724              hdr.manuCode = manuCode;
   \   0000F4   7402         MOV     A,#0x2
   \   0000F6   12....       LCALL   ?XSTACK_DISP0_8
   \   0000F9   E5..         MOV     A,?V0 + 10
   \   0000FB   F0           MOVX    @DPTR,A
   \   0000FC   A3           INC     DPTR
   \   0000FD   E5..         MOV     A,?V0 + 11
   \   0000FF   F0           MOVX    @DPTR,A
    725            }
    726          
    727            // Set the Command Direction
    728            if ( direction )
   \                     ??zcl_SendCommand_6:
   \   000100   E5..         MOV     A,?V0 + 1
   \   000102   85..82       MOV     DPL,?XSP + 0
   \   000105   85..83       MOV     DPH,?XSP + 1
   \   000108   6005         JZ      ??zcl_SendCommand_7
    729            {
    730              hdr.fc.direction = ZCL_FRAME_SERVER_CLIENT_DIR;
   \   00010A   E0           MOVX    A,@DPTR
   \   00010B   4408         ORL     A,#0x8
   \   00010D   8003         SJMP    ??zcl_SendCommand_8
    731            }
    732            else
    733            {
    734              hdr.fc.direction = ZCL_FRAME_CLIENT_SERVER_DIR;
   \                     ??zcl_SendCommand_7:
   \   00010F   E0           MOVX    A,@DPTR
   \   000110   54F7         ANL     A,#0xf7
   \                     ??zcl_SendCommand_8:
   \   000112   F0           MOVX    @DPTR,A
    735            }
    736          
    737            // Set the Disable Default Response field
    738            if ( disableDefaultRsp )
   \   000113   E5..         MOV     A,?V0 + 0
   \   000115   6005         JZ      ??zcl_SendCommand_9
    739            {
    740              hdr.fc.disableDefaultRsp = 1;
   \   000117   E0           MOVX    A,@DPTR
   \   000118   4410         ORL     A,#0x10
   \   00011A   8003         SJMP    ??zcl_SendCommand_10
    741            }
    742            else
    743            {
    744              hdr.fc.disableDefaultRsp = 0;
   \                     ??zcl_SendCommand_9:
   \   00011C   E0           MOVX    A,@DPTR
   \   00011D   54EF         ANL     A,#0xef
   \                     ??zcl_SendCommand_10:
   \   00011F   F0           MOVX    @DPTR,A
    745            }
    746          
    747            // Fill in the Transaction Sequence Number
    748            hdr.transSeqNum = seqNum;
   \   000120   7404         MOV     A,#0x4
   \   000122   12....       LCALL   ?XSTACK_DISP0_8
   \   000125   EF           MOV     A,R7
   \   000126   F0           MOVX    @DPTR,A
    749          
    750            // Fill in the command
    751            hdr.commandID = cmd;
   \   000127   7405         MOV     A,#0x5
   \   000129   12....       LCALL   ?XSTACK_DISP0_8
   \   00012C   EE           MOV     A,R6
   \   00012D   F0           MOVX    @DPTR,A
    752          
    753            // calculate the needed buffer size
    754            msgLen = zclCalcHdrSize( &hdr );
   \   00012E   75..03       MOV     ?V0 + 0,#0x3
   \   000131   85..82       MOV     DPL,?XSP + 0
   \   000134   85..83       MOV     DPH,?XSP + 1
   \   000137   E0           MOVX    A,@DPTR
   \   000138   5404         ANL     A,#0x4
   \   00013A   6003         JZ      ??zcl_SendCommand_11
   \   00013C   75..05       MOV     ?V0 + 0,#0x5
    755            msgLen += cmdFormatLen;
   \                     ??zcl_SendCommand_11:
   \   00013F   E5..         MOV     A,?V0 + 0
   \   000141   25..         ADD     A,?V0 + 14
   \   000143   F5..         MOV     ?V0 + 0,A
   \   000145   E4           CLR     A
   \   000146   35..         ADDC    A,?V0 + 15
   \   000148   F5..         MOV     ?V0 + 1,A
    756          
    757            // Allocate the buffer needed
    758            msgBuf = osal_mem_alloc( msgLen );
   \   00014A                ; Setup parameters for call to function osal_mem_alloc
   \   00014A   AA..         MOV     R2,?V0 + 0
   \   00014C   FB           MOV     R3,A
   \   00014D   12....       LCALL   ??osal_mem_alloc?relay
   \   000150   8A..         MOV     ?V0 + 4,R2
   \   000152   8B..         MOV     ?V0 + 5,R3
    759            if ( msgBuf != NULL )
   \   000154   EA           MOV     A,R2
   \   000155   45..         ORL     A,?V0 + 5
   \   000157   606A         JZ      ??zcl_SendCommand_12
    760            {
    761              // Fill in the ZCL Header
    762              pBuf = zclBuildHdr( &hdr, msgBuf );
    763          
    764              // Fill in the command frame
    765              osal_memcpy( pBuf, cmdFormat, cmdFormatLen );
   \   000159                ; Setup parameters for call to function osal_memcpy
   \   000159   7429         MOV     A,#0x29
   \   00015B   12....       LCALL   ?XSTACK_DISP0_8
   \   00015E   12....       LCALL   ?Subroutine26 & 0xFFFF
   \                     ??CrossCallReturnLabel_39:
   \   000161   12....       LCALL   ?PUSH_XSTACK_I_THREE
   \   000164                ; Setup parameters for call to function zclBuildHdr
   \   000164   AC..         MOV     R4,?V0 + 4
   \   000166   AD..         MOV     R5,?V0 + 5
   \   000168   7403         MOV     A,#0x3
   \   00016A   12....       LCALL   ?XSTACK_DISP0_8
   \   00016D   AA82         MOV     R2,DPL
   \   00016F   AB83         MOV     R3,DPH
   \   000171   12....       LCALL   ??zclBuildHdr?relay
   \   000174   AC..         MOV     R4,?V0 + 14
   \   000176   AD..         MOV     R5,?V0 + 15
   \   000178   12....       LCALL   ??osal_memcpy?relay
   \   00017B   7403         MOV     A,#0x3
   \   00017D   12....       LCALL   ?DEALLOC_XSTACK8
    766          
    767              status = AF_DataRequest( destAddr, epDesc, clusterID, msgLen, msgBuf,
    768                                       &zcl_TransID, options, AF_DEFAULT_RADIUS );
   \   000180                ; Setup parameters for call to function AF_DataRequest
   \   000180   75..1E       MOV     ?V0 + 8,#0x1e
   \   000183   78..         MOV     R0,#?V0 + 8
   \   000185   12....       LCALL   ?PUSH_XSTACK_I_ONE
   \   000188   75....       MOV     ?V0 + 8,#zcl_TransID & 0xff
   \   00018B   75....       MOV     ?V0 + 9,#(zcl_TransID >> 8) & 0xff
   \   00018E   78..         MOV     R0,#?V0 + 8
   \   000190   12....       LCALL   ?PUSH_XSTACK_I_TWO
   \   000193   78..         MOV     R0,#?V0 + 4
   \   000195   12....       LCALL   ?PUSH_XSTACK_I_TWO
   \   000198   78..         MOV     R0,#?V0 + 0
   \   00019A   12....       LCALL   ?PUSH_XSTACK_I_TWO
   \   00019D   78..         MOV     R0,#?V0 + 2
   \   00019F   12....       LCALL   ?PUSH_XSTACK_I_TWO
   \   0001A2   A9..         MOV     R1,?V0 + 7
   \   0001A4   AC..         MOV     R4,?V0 + 12
   \   0001A6   AD..         MOV     R5,?V0 + 13
   \   0001A8   740F         MOV     A,#0xf
   \   0001AA   12....       LCALL   ?XSTACK_DISP0_8
   \   0001AD   12....       LCALL   ??Subroutine62_0 & 0xFFFF
   \                     ??CrossCallReturnLabel_126:
   \   0001B0   12....       LCALL   ??AF_DataRequest?relay
   \   0001B3   7409         MOV     A,#0x9
   \   0001B5   12....       LCALL   ?DEALLOC_XSTACK8
   \   0001B8   E9           MOV     A,R1
   \   0001B9   FE           MOV     R6,A
    769              osal_mem_free ( msgBuf );
   \   0001BA                ; Setup parameters for call to function osal_mem_free
   \   0001BA   AA..         MOV     R2,?V0 + 4
   \   0001BC   AB..         MOV     R3,?V0 + 5
   \   0001BE   12....       LCALL   ??osal_mem_free?relay
   \   0001C1   8002         SJMP    ??zcl_SendCommand_13
    770            }
    771            else
    772            {
    773              status = ZMemError;
   \                     ??zcl_SendCommand_12:
   \   0001C3   7E10         MOV     R6,#0x10
    774            }
    775          
    776            return ( status );
   \                     ??zcl_SendCommand_13:
   \   0001C5   EE           MOV     A,R6
   \   0001C6   F9           MOV     R1,A
   \                     ??zcl_SendCommand_1:
   \   0001C7   7408         MOV     A,#0x8
   \   0001C9   12....       LCALL   ?DEALLOC_XSTACK8
   \   0001CC   7F10         MOV     R7,#0x10
   \   0001CE   02....       LJMP    ?BANKED_LEAVE_XDATA
    777          }

   \                                 In  segment BANKED_CODE, align 1, keep-with-next
   \                     ?Subroutine47:
   \   000000   A3           INC     DPTR
   \   000001   A3           INC     DPTR
   \   000002   A3           INC     DPTR
   \   000003                REQUIRE ??Subroutine54_0
   \   000003                ; // Fall through to label ??Subroutine54_0

   \                                 In  segment BANKED_CODE, align 1, keep-with-next
   \                     ??Subroutine54_0:
   \   000000   A3           INC     DPTR
   \   000001   E0           MOVX    A,@DPTR
   \   000002   F583         MOV     DPH,A
   \   000004   8882         MOV     DPL,R0
   \   000006   A3           INC     DPTR
   \   000007   22           RET

   \                                 In  segment BANKED_CODE, align 1, keep-with-next
   \                     ??Subroutine60_0:
   \   000000   A3           INC     DPTR
   \   000001   A3           INC     DPTR
   \   000002                REQUIRE ??Subroutine61_0
   \   000002                ; // Fall through to label ??Subroutine61_0

   \                                 In  segment BANKED_CODE, align 1, keep-with-next
   \                     ??Subroutine61_0:
   \   000000   E0           MOVX    A,@DPTR
   \   000001   F8           MOV     R0,A
   \   000002   A3           INC     DPTR
   \   000003   E0           MOVX    A,@DPTR
   \   000004   F9           MOV     R1,A
   \   000005   E8           MOV     A,R0
   \   000006   49           ORL     A,R1
   \   000007   22           RET

   \                                 In  segment BANKED_CODE, align 1, keep-with-next
   \                     ?Subroutine26:
   \   000000   E0           MOVX    A,@DPTR
   \   000001   F5..         MOV     ?V0 + 8,A
   \   000003   A3           INC     DPTR
   \   000004   E0           MOVX    A,@DPTR
   \   000005   F5..         MOV     ?V0 + 9,A
   \   000007   75..00       MOV     ?V0 + 10,#0x0
   \   00000A   78..         MOV     R0,#?V0 + 8
   \   00000C   22           RET
    778          
    779          #ifdef ZCL_READ
    780          /*********************************************************************
    781           * @fn      zcl_SendRead
    782           *
    783           * @brief   Send a Read command
    784           *
    785           * @param   srcEP - Application's endpoint
    786           * @param   dstAddr - destination address
    787           * @param   clusterID - cluster ID
    788           * @param   readCmd - read command to be sent
    789           * @param   direction - direction of the command
    790           * @param   seqNum - transaction sequence number
    791           *
    792           * @return  ZSuccess if OK
    793           */
    794          ZStatus_t zcl_SendRead( uint8 srcEP, afAddrType_t *dstAddr,
    795                                  uint16 clusterID, zclReadCmd_t *readCmd,
    796                                  uint8 direction, uint8 disableDefaultRsp, uint8 seqNum)
    797          {
    798            uint16 dataLen;
    799            uint8 *buf;
    800            uint8 *pBuf;
    801            ZStatus_t status;
    802          
    803            dataLen = readCmd->numAttr * 2; // Attribute ID
    804          
    805            buf = osal_mem_alloc( dataLen );
    806            if ( buf != NULL )
    807            {
    808              uint8 i;
    809          
    810              // Load the buffer - serially
    811              pBuf = buf;
    812              for (i = 0; i < readCmd->numAttr; i++)
    813              {
    814                *pBuf++ = LO_UINT16( readCmd->attrID[i] );
    815                *pBuf++ = HI_UINT16( readCmd->attrID[i] );
    816              }
    817          
    818              status = zcl_SendCommand( srcEP, dstAddr, clusterID, ZCL_CMD_READ, FALSE,
    819                                        direction, disableDefaultRsp, 0, seqNum, dataLen, buf );
    820              osal_mem_free( buf );
    821            }
    822            else
    823            {
    824              status = ZMemError;
    825            }
    826          
    827            return ( status );
    828          }
    829          
    830          /*********************************************************************
    831           * @fn      zcl_SendReadRsp
    832           *
    833           * @brief   Send a Read Response command.
    834           *
    835           * @param   srcEP - Application's endpoint
    836           * @param   dstAddr - destination address
    837           * @param   clusterID - cluster ID
    838           * @param   readRspCmd - read response command to be sent
    839           * @param   direction - direction of the command
    840           * @param   seqNum - transaction sequence number
    841           *
    842           * @return  ZSuccess if OK
    843           */
    844          ZStatus_t zcl_SendReadRsp( uint8 srcEP, afAddrType_t *dstAddr,
    845                                     uint16 clusterID, zclReadRspCmd_t *readRspCmd,
    846                                     uint8 direction, uint8 disableDefaultRsp, uint8 seqNum )
    847          {
    848            uint8 *buf;
    849            uint16 len = 0;
    850            ZStatus_t status;
    851          
    852            // calculate the size of the command
    853            for ( uint8 i = 0; i < readRspCmd->numAttr; i++ )
    854            {
    855              zclReadRspStatus_t *statusRec = &(readRspCmd->attrList[i]);
    856          
    857              len += 2 + 1; // Attribute ID + Status
    858          
    859              if ( statusRec->status == ZCL_STATUS_SUCCESS )
    860              {
    861                len++; // Attribute Data Type length
    862          
    863                // Attribute Data length
    864                if ( statusRec->data != NULL )
    865                {
    866                  len += zclGetAttrDataLength( statusRec->dataType, statusRec->data );
    867                }
    868                else
    869                {
    870                  len += zclGetAttrDataLengthUsingCB( srcEP, clusterID, statusRec->attrID );
    871                }
    872              }
    873            }
    874          
    875            buf = osal_mem_alloc( len );
    876            if ( buf != NULL )
    877            {
    878              // Load the buffer - serially
    879              uint8 *pBuf = buf;
    880              for ( uint8 i = 0; i < readRspCmd->numAttr; i++ )
    881              {
    882                zclReadRspStatus_t *statusRec = &(readRspCmd->attrList[i]);
    883          
    884                *pBuf++ = LO_UINT16( statusRec->attrID );
    885                *pBuf++ = HI_UINT16( statusRec->attrID );
    886                *pBuf++ = statusRec->status;
    887          
    888                if ( statusRec->status == ZCL_STATUS_SUCCESS )
    889                {
    890                  *pBuf++ = statusRec->dataType;
    891          
    892                  if ( statusRec->data != NULL )
    893                  {
    894                    // Copy attribute data to the buffer to be sent out
    895                    pBuf = zclSerializeData( statusRec->dataType, statusRec->data, pBuf );
    896                  }
    897                  else
    898                  {
    899                    uint16 dataLen;
    900          
    901                    // Read attribute data directly into the buffer to be sent out
    902                    zclReadAttrDataUsingCB( srcEP, clusterID, statusRec->attrID, pBuf, &dataLen );
    903                    pBuf += dataLen;
    904                  }
    905                }
    906              } // for loop
    907          
    908              status = zcl_SendCommand( srcEP, dstAddr, clusterID, ZCL_CMD_READ_RSP, FALSE,
    909                                        direction, disableDefaultRsp, 0, seqNum, len, buf );
    910              osal_mem_free( buf );
    911            }
    912            else
    913            {
    914              status = ZMemError;
    915            }
    916          
    917            return ( status );
    918          }
    919          #endif // ZCL_READ
    920          
    921          #ifdef ZCL_WRITE
    922          /*********************************************************************
    923           * @fn      sendWriteRequest
    924           *
    925           * @brief   Send a Write command
    926           *
    927           * @param   dstAddr - destination address
    928           * @param   clusterID - cluster ID
    929           * @param   writeCmd - write command to be sent
    930           * @param   cmd - ZCL_CMD_WRITE, ZCL_CMD_WRITE_UNDIVIDED or ZCL_CMD_WRITE_NO_RSP
    931           * @param   direction - direction of the command
    932           * @param   seqNum - transaction sequence number
    933           *
    934           * @return  ZSuccess if OK
    935           */
    936          ZStatus_t zcl_SendWriteRequest( uint8 srcEP, afAddrType_t *dstAddr, uint16 clusterID,
    937                                          zclWriteCmd_t *writeCmd, uint8 cmd, uint8 direction,
    938                                          uint8 disableDefaultRsp, uint8 seqNum )
    939          {
    940            uint8 *buf;
    941            uint16 dataLen = 0;
    942            ZStatus_t status;
    943          
    944            for ( uint8 i = 0; i < writeCmd->numAttr; i++ )
    945            {
    946              zclWriteRec_t *statusRec = &(writeCmd->attrList[i]);
    947          
    948              dataLen += 2 + 1; // Attribute ID + Attribute Type
    949          
    950              // Attribute Data
    951              dataLen += zclGetAttrDataLength( statusRec->dataType, statusRec->attrData );
    952            }
    953          
    954            buf = osal_mem_alloc( dataLen );
    955            if ( buf != NULL )
    956            {
    957              // Load the buffer - serially
    958              uint8 *pBuf = buf;
    959              for ( uint8 i = 0; i < writeCmd->numAttr; i++ )
    960              {
    961                zclWriteRec_t *statusRec = &(writeCmd->attrList[i]);
    962          
    963                *pBuf++ = LO_UINT16( statusRec->attrID );
    964                *pBuf++ = HI_UINT16( statusRec->attrID );
    965                *pBuf++ = statusRec->dataType;
    966          
    967                pBuf = zclSerializeData( statusRec->dataType, statusRec->attrData, pBuf );
    968              }
    969          
    970              status = zcl_SendCommand( srcEP, dstAddr, clusterID, cmd, FALSE,
    971                                        direction, disableDefaultRsp, 0, seqNum, dataLen, buf );
    972              osal_mem_free( buf );
    973            }
    974            else
    975            {
    976              status = ZMemError;
    977            }
    978          
    979            return ( status);
    980          }
    981          
    982          /*********************************************************************
    983           * @fn      zcl_SendWriteRsp
    984           *
    985           * @brief   Send a Write Response command
    986           *
    987           * @param   dstAddr - destination address
    988           * @param   clusterID - cluster ID
    989           * @param   wrtieRspCmd - write response command to be sent
    990           * @param   direction - direction of the command
    991           * @param   seqNum - transaction sequence number
    992           *
    993           * @return  ZSuccess if OK
    994           */
    995          ZStatus_t zcl_SendWriteRsp( uint8 srcEP, afAddrType_t *dstAddr,
    996                                      uint16 clusterID, zclWriteRspCmd_t *writeRspCmd,
    997                                      uint8 direction, uint8 disableDefaultRsp, uint8 seqNum )
    998          {
    999            uint16 dataLen;
   1000            uint8 *buf;
   1001            ZStatus_t status;
   1002          
   1003            dataLen = writeRspCmd->numAttr * ( 1 + 2 ); // status + attribute id
   1004          
   1005            buf = osal_mem_alloc( dataLen );
   1006            if ( buf != NULL )
   1007            {
   1008              // Load the buffer - serially
   1009              uint8 *pBuf = buf;
   1010              for ( uint8 i = 0; i < writeRspCmd->numAttr; i++ )
   1011              {
   1012                *pBuf++ = writeRspCmd->attrList[i].status;
   1013                *pBuf++ = LO_UINT16( writeRspCmd->attrList[i].attrID );
   1014                *pBuf++ = HI_UINT16( writeRspCmd->attrList[i].attrID );
   1015              }
   1016          
   1017              // If there's only a single status record and its status field is set to
   1018              // SUCCESS then omit the attribute ID field.
   1019              if ( writeRspCmd->numAttr == 1 && writeRspCmd->attrList[0].status == ZCL_STATUS_SUCCESS )
   1020              {
   1021                dataLen = 1;
   1022              }
   1023          
   1024              status = zcl_SendCommand( srcEP, dstAddr, clusterID, ZCL_CMD_WRITE_RSP, FALSE,
   1025                                        direction, disableDefaultRsp, 0, seqNum, dataLen, buf );
   1026              osal_mem_free( buf );
   1027            }
   1028            else
   1029            {
   1030              status = ZMemError;
   1031            }
   1032          
   1033            return ( status );
   1034          }
   1035          #endif // ZCL_WRITE
   1036          
   1037          #ifdef ZCL_REPORT
   1038          /*********************************************************************
   1039           * @fn      zcl_SendConfigReportCmd
   1040           *
   1041           * @brief   Send a Configure Reporting command
   1042           *
   1043           * @param   dstAddr - destination address
   1044           * @param   clusterID - cluster ID
   1045           * @param   cfgReportCmd - configure reporting command to be sent
   1046           * @param   direction - direction of the command
   1047           * @param   seqNum - transaction sequence number
   1048           *
   1049           * @return  ZSuccess if OK
   1050           */
   1051          ZStatus_t zcl_SendConfigReportCmd( uint8 srcEP, afAddrType_t *dstAddr,
   1052                                    uint16 clusterID, zclCfgReportCmd_t *cfgReportCmd,
   1053                                    uint8 direction, uint8 disableDefaultRsp, uint8 seqNum )
   1054          {
   1055            uint8 *buf;
   1056            uint16 dataLen = 0;
   1057            ZStatus_t status;
   1058          
   1059            // Find out the data length
   1060            for ( uint8 i = 0; i < cfgReportCmd->numAttr; i++ )
   1061            {
   1062              zclCfgReportRec_t *reportRec = &(cfgReportCmd->attrList[i]);
   1063          
   1064              dataLen += 1 + 2; // Direction + Attribute ID
   1065          
   1066              if ( reportRec->direction == ZCL_SEND_ATTR_REPORTS )
   1067              {
   1068                dataLen += 1 + 2 + 2; // Data Type + Min + Max Reporting Intervals
   1069          
   1070                // Find out the size of the Reportable Change field (for Analog data types)
   1071                if ( zclAnalogDataType( reportRec->dataType ) )
   1072                {
   1073                  dataLen += zclGetDataTypeLength( reportRec->dataType );
   1074                }
   1075              }
   1076              else
   1077              {
   1078                dataLen += 2; // Timeout Period
   1079              }
   1080            }
   1081          
   1082            buf = osal_mem_alloc( dataLen );
   1083            if ( buf != NULL )
   1084            {
   1085              // Load the buffer - serially
   1086              uint8 *pBuf = buf;
   1087              for ( uint8 i = 0; i < cfgReportCmd->numAttr; i++ )
   1088              {
   1089                zclCfgReportRec_t *reportRec = &(cfgReportCmd->attrList[i]);
   1090          
   1091                *pBuf++ = reportRec->direction;
   1092                *pBuf++ = LO_UINT16( reportRec->attrID );
   1093                *pBuf++ = HI_UINT16( reportRec->attrID );
   1094          
   1095                if ( reportRec->direction == ZCL_SEND_ATTR_REPORTS )
   1096                {
   1097                  *pBuf++ = reportRec->dataType;
   1098                  *pBuf++ = LO_UINT16( reportRec->minReportInt );
   1099                  *pBuf++ = HI_UINT16( reportRec->minReportInt );
   1100                  *pBuf++ = LO_UINT16( reportRec->maxReportInt );
   1101                  *pBuf++ = HI_UINT16( reportRec->maxReportInt );
   1102          
   1103                  if ( zclAnalogDataType( reportRec->dataType ) )
   1104                  {
   1105                    pBuf = zclSerializeData( reportRec->dataType, reportRec->reportableChange, pBuf );
   1106                  }
   1107                }
   1108                else
   1109                {
   1110                  *pBuf++ = LO_UINT16( reportRec->timeoutPeriod );
   1111                  *pBuf++ = HI_UINT16( reportRec->timeoutPeriod );
   1112                }
   1113              } // for loop
   1114          
   1115              status = zcl_SendCommand( srcEP, dstAddr, clusterID, ZCL_CMD_CONFIG_REPORT, FALSE,
   1116                                        direction, disableDefaultRsp, 0, seqNum, dataLen, buf );
   1117              osal_mem_free( buf );
   1118            }
   1119            else
   1120            {
   1121              status = ZMemError;
   1122            }
   1123          
   1124            return ( status );
   1125          }
   1126          
   1127          /*********************************************************************
   1128           * @fn      zcl_SendConfigReportRspCmd
   1129           *
   1130           * @brief   Send a Configure Reporting Response command
   1131           *
   1132           * @param   dstAddr - destination address
   1133           * @param   clusterID - cluster ID
   1134           * @param   cfgReportRspCmd - configure reporting response command to be sent
   1135           * @param   direction - direction of the command
   1136           * @param   seqNum - transaction sequence number
   1137           *
   1138           * @return  ZSuccess if OK
   1139           */
   1140          ZStatus_t zcl_SendConfigReportRspCmd( uint8 srcEP, afAddrType_t *dstAddr,
   1141                              uint16 clusterID, zclCfgReportRspCmd_t *cfgReportRspCmd,
   1142                              uint8 direction, uint8 disableDefaultRsp, uint8 seqNum )
   1143          {
   1144            uint16 dataLen;
   1145            uint8 *buf;
   1146            ZStatus_t status;
   1147          
   1148            // Atrribute list (Status, Direction and Attribute ID)
   1149            dataLen = cfgReportRspCmd->numAttr * ( 1 + 1 + 2 );
   1150          
   1151            buf = osal_mem_alloc( dataLen );
   1152            if ( buf != NULL )
   1153            {
   1154              // Load the buffer - serially
   1155              uint8 *pBuf = buf;
   1156              for ( uint8 i = 0; i < cfgReportRspCmd->numAttr; i++ )
   1157              {
   1158                *pBuf++ = cfgReportRspCmd->attrList[i].status;
   1159                *pBuf++ = cfgReportRspCmd->attrList[i].direction;
   1160                *pBuf++ = LO_UINT16( cfgReportRspCmd->attrList[i].attrID );
   1161                *pBuf++ = HI_UINT16( cfgReportRspCmd->attrList[i].attrID );
   1162              }
   1163          
   1164              // If there's only a single status record and its status field is set to
   1165              // SUCCESS then omit the attribute ID field.
   1166              if ( cfgReportRspCmd->numAttr == 1 && cfgReportRspCmd->attrList[0].status == ZCL_STATUS_SUCCESS )
   1167              {
   1168                dataLen = 1;
   1169              }
   1170          
   1171              status = zcl_SendCommand( srcEP, dstAddr, clusterID,
   1172                                        ZCL_CMD_CONFIG_REPORT_RSP, FALSE, direction,
   1173                                        disableDefaultRsp, 0, seqNum, dataLen, buf );
   1174              osal_mem_free( buf );
   1175            }
   1176            else
   1177            {
   1178              status = ZMemError;
   1179            }
   1180          
   1181            return ( status );
   1182          }
   1183          
   1184          /*********************************************************************
   1185           * @fn      zcl_SendReadReportCfgCmd
   1186           *
   1187           * @brief   Send a Read Reporting Configuration command
   1188           *
   1189           * @param   dstAddr - destination address
   1190           * @param   clusterID - cluster ID
   1191           * @param   readReportCfgCmd - read reporting configuration command to be sent
   1192           * @param   direction - direction of the command
   1193           * @param   seqNum - transaction sequence number
   1194           *
   1195           * @return  ZSuccess if OK
   1196           */
   1197          ZStatus_t zcl_SendReadReportCfgCmd( uint8 srcEP, afAddrType_t *dstAddr,
   1198                            uint16 clusterID, zclReadReportCfgCmd_t *readReportCfgCmd,
   1199                            uint8 direction, uint8 disableDefaultRsp, uint8 seqNum )
   1200          {
   1201            uint16 dataLen;
   1202            uint8 *buf;
   1203            ZStatus_t status;
   1204          
   1205            dataLen = readReportCfgCmd->numAttr * ( 1 + 2 ); // Direction + Atrribute ID
   1206          
   1207            buf = osal_mem_alloc( dataLen );
   1208            if ( buf != NULL )
   1209            {
   1210              // Load the buffer - serially
   1211              uint8 *pBuf = buf;
   1212              for ( uint8 i = 0; i < readReportCfgCmd->numAttr; i++ )
   1213              {
   1214                *pBuf++ = readReportCfgCmd->attrList[i].direction;
   1215                *pBuf++ = LO_UINT16( readReportCfgCmd->attrList[i].attrID );
   1216                *pBuf++ = HI_UINT16( readReportCfgCmd->attrList[i].attrID );
   1217              }
   1218          
   1219              status = zcl_SendCommand( srcEP, dstAddr, clusterID, ZCL_CMD_READ_REPORT_CFG, FALSE,
   1220                                        direction, disableDefaultRsp, 0, seqNum, dataLen, buf );
   1221              osal_mem_free( buf );
   1222            }
   1223            else
   1224            {
   1225              status = ZMemError;
   1226            }
   1227          
   1228            return ( status );
   1229          }
   1230          
   1231          /*********************************************************************
   1232           * @fn      zcl_SendReadReportCfgRspCmd
   1233           *
   1234           * @brief   Send a Read Reporting Configuration Response command
   1235           *
   1236           * @param   dstAddr - destination address
   1237           * @param   clusterID - cluster ID
   1238           * @param   readReportCfgRspCmd - read reporting configuration response command to be sent
   1239           * @param   direction - direction of the command
   1240           * @param   seqNum - transaction sequence number
   1241           *
   1242           * @return  ZSuccess if OK
   1243           */
   1244          ZStatus_t zcl_SendReadReportCfgRspCmd( uint8 srcEP, afAddrType_t *dstAddr,
   1245                       uint16 clusterID, zclReadReportCfgRspCmd_t *readReportCfgRspCmd,
   1246                       uint8 direction, uint8 disableDefaultRsp, uint8 seqNum )
   1247          {
   1248            uint8 *buf;
   1249            uint16 dataLen = 0;
   1250            ZStatus_t status;
   1251          
   1252            // Find out the data length
   1253            for ( uint8 i = 0; i < readReportCfgRspCmd->numAttr; i++ )
   1254            {
   1255              zclReportCfgRspRec_t *reportRspRec = &(readReportCfgRspCmd->attrList[i]);
   1256          
   1257              dataLen += 1 + 1 + 2 ; // Status, Direction and Atrribute ID
   1258          
   1259              if ( reportRspRec->status == ZCL_STATUS_SUCCESS )
   1260              {
   1261                if ( reportRspRec->direction == ZCL_SEND_ATTR_REPORTS )
   1262                {
   1263                  dataLen += 1 + 2 + 2; // Data Type + Min + Max Reporting Intervals
   1264          
   1265                  // Find out the size of the Reportable Change field (for Analog data types)
   1266                  if ( zclAnalogDataType( reportRspRec->dataType ) )
   1267                  {
   1268                    dataLen += zclGetDataTypeLength( reportRspRec->dataType );
   1269                  }
   1270                }
   1271                else
   1272                {
   1273                  dataLen += 2; // Timeout Period
   1274                }
   1275              }
   1276            }
   1277          
   1278            buf = osal_mem_alloc( dataLen );
   1279            if ( buf != NULL )
   1280            {
   1281              // Load the buffer - serially
   1282              uint8 *pBuf = buf;
   1283              for ( uint8 i = 0; i < readReportCfgRspCmd->numAttr; i++ )
   1284              {
   1285                zclReportCfgRspRec_t *reportRspRec = &(readReportCfgRspCmd->attrList[i]);
   1286          
   1287                *pBuf++ = reportRspRec->status;
   1288                *pBuf++ = reportRspRec->direction;
   1289                *pBuf++ = LO_UINT16( reportRspRec->attrID );
   1290                *pBuf++ = HI_UINT16( reportRspRec->attrID );
   1291          
   1292                if ( reportRspRec->status == ZCL_STATUS_SUCCESS )
   1293                {
   1294                  if ( reportRspRec->direction == ZCL_SEND_ATTR_REPORTS )
   1295                  {
   1296                    *pBuf++ = reportRspRec->dataType;
   1297                    *pBuf++ = LO_UINT16( reportRspRec->minReportInt );
   1298                    *pBuf++ = HI_UINT16( reportRspRec->minReportInt );
   1299                    *pBuf++ = LO_UINT16( reportRspRec->maxReportInt );
   1300                    *pBuf++ = HI_UINT16( reportRspRec->maxReportInt );
   1301          
   1302                    if ( zclAnalogDataType( reportRspRec->dataType ) )
   1303                    {
   1304                      pBuf = zclSerializeData( reportRspRec->dataType,
   1305                                               reportRspRec->reportableChange, pBuf );
   1306                    }
   1307                  }
   1308                  else
   1309                  {
   1310                    *pBuf++ = LO_UINT16( reportRspRec->timeoutPeriod );
   1311                    *pBuf++ = HI_UINT16( reportRspRec->timeoutPeriod );
   1312                  }
   1313                }
   1314              }
   1315          
   1316              status = zcl_SendCommand( srcEP, dstAddr, clusterID,
   1317                                        ZCL_CMD_READ_REPORT_CFG_RSP, FALSE,
   1318                                        direction, disableDefaultRsp, 0, seqNum, dataLen, buf );
   1319              osal_mem_free( buf );
   1320            }
   1321            else
   1322            {
   1323              status = ZMemError;
   1324            }
   1325          
   1326            return ( status );
   1327          }
   1328          
   1329          /*********************************************************************
   1330           * @fn      zcl_SendReportCmd
   1331           *
   1332           * @brief   Send a Report command
   1333           *
   1334           * @param   dstAddr - destination address
   1335           * @param   clusterID - cluster ID
   1336           * @param   reportCmd - report command to be sent
   1337           * @param   direction - direction of the command
   1338           * @param   seqNum - transaction sequence number
   1339           *
   1340           * @return  ZSuccess if OK
   1341           */
   1342          ZStatus_t zcl_SendReportCmd( uint8 srcEP, afAddrType_t *dstAddr,
   1343                                       uint16 clusterID, zclReportCmd_t *reportCmd,
   1344                                       uint8 direction, uint8 disableDefaultRsp, uint8 seqNum )
   1345          {
   1346            uint16 dataLen = 0;
   1347            uint8 *buf;
   1348            ZStatus_t status;
   1349          
   1350            // calculate the size of the command
   1351            for ( uint8 i = 0; i < reportCmd->numAttr; i++ )
   1352            {
   1353              zclReport_t *reportRec = &(reportCmd->attrList[i]);
   1354          
   1355              dataLen += 2 + 1; // Attribute ID + data type
   1356          
   1357              // Attribute Data
   1358              dataLen += zclGetAttrDataLength( reportRec->dataType, reportRec->attrData );
   1359            }
   1360          
   1361            buf = osal_mem_alloc( dataLen );
   1362            if ( buf != NULL )
   1363            {
   1364              // Load the buffer - serially
   1365              uint8 *pBuf = buf;
   1366              for ( uint8 i = 0; i < reportCmd->numAttr; i++ )
   1367              {
   1368                zclReport_t *reportRec = &(reportCmd->attrList[i]);
   1369          
   1370                *pBuf++ = LO_UINT16( reportRec->attrID );
   1371                *pBuf++ = HI_UINT16( reportRec->attrID );
   1372                *pBuf++ = reportRec->dataType;
   1373          
   1374                pBuf = zclSerializeData( reportRec->dataType, reportRec->attrData, pBuf );
   1375              }
   1376          
   1377              status = zcl_SendCommand( srcEP, dstAddr, clusterID, ZCL_CMD_REPORT, FALSE,
   1378                                        direction, disableDefaultRsp, 0, seqNum, dataLen, buf );
   1379              osal_mem_free( buf );
   1380            }
   1381            else
   1382            {
   1383              status = ZMemError;
   1384            }
   1385          
   1386            return ( status );
   1387          }
   1388          #endif // ZCL_REPORT
   1389          
   1390          /*********************************************************************
   1391           * @fn      zcl_SendDefaultRspCmd
   1392           *
   1393           * @brief   Send a Default Response command
   1394           *
   1395           *          Note: The manufacturer code field should be set if this
   1396           *          command is being sent in response to a manufacturer specific
   1397           *          command.
   1398           *
   1399           * @param   dstAddr - destination address
   1400           * @param   clusterID - cluster ID
   1401           * @param   defaultRspCmd - default response command to be sent
   1402           * @param   direction - direction of the command
   1403           * @param   manuCode - manufacturer code for proprietary extensions to a profile
   1404           * @param   seqNum - transaction sequence number
   1405           *
   1406           * @return  ZSuccess if OK
   1407           */

   \                                 In  segment BANKED_CODE, align 1, keep-with-next
   1408          ZStatus_t zcl_SendDefaultRspCmd( uint8 srcEP, afAddrType_t *dstAddr, uint16 clusterID,
   \                     zcl_SendDefaultRspCmd:
   1409                                           zclDefaultRspCmd_t *defaultRspCmd, uint8 direction,
   1410                                           uint8 disableDefaultRsp, uint16 manuCode, uint8 seqNum )
   1411          {
   \   000000   74F2         MOV     A,#-0xe
   \   000002   12....       LCALL   ?BANKED_ENTER_XDATA
   \   000005                ; Saved register size: 14
   \   000005                ; Auto size: 2
   \   000005   74FE         MOV     A,#-0x2
   \   000007   12....       LCALL   ?ALLOC_XSTACK8
   \   00000A   E9           MOV     A,R1
   \   00000B   FE           MOV     R6,A
   \   00000C   7410         MOV     A,#0x10
   \   00000E   12....       LCALL   ?XSTACK_DISP0_8
   \   000011   12....       LCALL   ?Subroutine28 & 0xFFFF
   \                     ??CrossCallReturnLabel_43:
   \   000014   7412         MOV     A,#0x12
   \   000016   12....       LCALL   ?XSTACK_DISP0_8
   \   000019   E0           MOVX    A,@DPTR
   \   00001A   FF           MOV     R7,A
   \   00001B   7413         MOV     A,#0x13
   \   00001D   12....       LCALL   ?XSTACK_DISP0_8
   \   000020   E0           MOVX    A,@DPTR
   \   000021   F5..         MOV     ?V0 + 4,A
   \   000023   7414         MOV     A,#0x14
   \   000025   12....       LCALL   ?XSTACK_DISP0_8
   \   000028   E0           MOVX    A,@DPTR
   \   000029   F5..         MOV     ?V0 + 2,A
   \   00002B   A3           INC     DPTR
   \   00002C   E0           MOVX    A,@DPTR
   \   00002D   F5..         MOV     ?V0 + 3,A
   \   00002F   7416         MOV     A,#0x16
   \   000031   12....       LCALL   ?XSTACK_DISP0_8
   \   000034   E0           MOVX    A,@DPTR
   \   000035   F5..         MOV     ?V0 + 5,A
   1412            uint8 buf[2]; // Command ID and Status;
   1413          
   1414            // Load the buffer - serially
   1415            buf[0] = defaultRspCmd->commandID;
   \   000037   8882         MOV     DPL,R0
   \   000039   8983         MOV     DPH,R1
   \   00003B   E0           MOVX    A,@DPTR
   \   00003C   85..82       MOV     DPL,?XSP + 0
   \   00003F   85..83       MOV     DPH,?XSP + 1
   \   000042   12....       LCALL   ?Subroutine50 & 0xFFFF
   1416            buf[1] = defaultRspCmd->statusCode;
   \                     ??CrossCallReturnLabel_91:
   \   000045   E0           MOVX    A,@DPTR
   \   000046   C0E0         PUSH    A
   \   000048   7401         MOV     A,#0x1
   \   00004A   12....       LCALL   ?XSTACK_DISP0_8
   \   00004D   D0E0         POP     A
   \   00004F   F0           MOVX    @DPTR,A
   1417          
   1418            return ( zcl_SendCommand( srcEP, dstAddr, clusterID, ZCL_CMD_DEFAULT_RSP, FALSE,
   1419                                      direction, disableDefaultRsp, manuCode, seqNum, 2, buf ) );
   \   000050                ; Setup parameters for call to function zcl_SendCommand
   \   000050   85..82       MOV     DPL,?XSP + 0
   \   000053   85..83       MOV     DPH,?XSP + 1
   \   000056   8582..       MOV     ?V0 + 0,DPL
   \   000059   8583..       MOV     ?V0 + 1,DPH
   \   00005C   78..         MOV     R0,#?V0 + 0
   \   00005E   12....       LCALL   ?PUSH_XSTACK_I_TWO
   \   000061   75..02       MOV     ?V0 + 0,#0x2
   \   000064   75..00       MOV     ?V0 + 1,#0x0
   \   000067   78..         MOV     R0,#?V0 + 0
   \   000069   12....       LCALL   ?PUSH_XSTACK_I_TWO
   \   00006C   E5..         MOV     A,?V0 + 5
   \   00006E   F5..         MOV     ?V0 + 0,A
   \   000070   78..         MOV     R0,#?V0 + 0
   \   000072   12....       LCALL   ?PUSH_XSTACK_I_ONE
   \   000075   78..         MOV     R0,#?V0 + 2
   \   000077   12....       LCALL   ?PUSH_XSTACK_I_TWO
   \   00007A   E5..         MOV     A,?V0 + 4
   \   00007C   F5..         MOV     ?V0 + 0,A
   \   00007E   78..         MOV     R0,#?V0 + 0
   \   000080   12....       LCALL   ?PUSH_XSTACK_I_ONE
   \   000083   EF           MOV     A,R7
   \   000084   F5..         MOV     ?V0 + 0,A
   \   000086   78..         MOV     R0,#?V0 + 0
   \   000088   12....       LCALL   ?PUSH_XSTACK_I_ONE
   \   00008B   75..00       MOV     ?V0 + 0,#0x0
   \   00008E   78..         MOV     R0,#?V0 + 0
   \   000090   12....       LCALL   ?PUSH_XSTACK_I_ONE
   \   000093   75..0B       MOV     ?V0 + 0,#0xb
   \   000096   78..         MOV     R0,#?V0 + 0
   \   000098   12....       LCALL   ?PUSH_XSTACK_I_ONE
   \   00009B   EE           MOV     A,R6
   \   00009C   F9           MOV     R1,A
   \   00009D   12....       LCALL   ??zcl_SendCommand?relay
   \   0000A0   740B         MOV     A,#0xb
   \   0000A2   12....       LCALL   ?DEALLOC_XSTACK8
   \   0000A5   7402         MOV     A,#0x2
   \   0000A7   12....       LCALL   ?DEALLOC_XSTACK8
   \   0000AA   02....       LJMP    ?Subroutine2 & 0xFFFF
   1420          }

   \                                 In  segment BANKED_CODE, align 1, keep-with-next
   \                     ?Subroutine28:
   \   000000   E0           MOVX    A,@DPTR
   \   000001   F8           MOV     R0,A
   \   000002   A3           INC     DPTR
   \   000003   E0           MOVX    A,@DPTR
   \   000004   F9           MOV     R1,A
   \   000005   22           RET
   1421          
   1422          #ifdef ZCL_DISCOVER
   1423          /*********************************************************************
   1424           * @fn      zcl_SendDiscoverCmd
   1425           *
   1426           * @brief   Send a Discover command
   1427           *
   1428           * @param   dstAddr - destination address
   1429           * @param   clusterID - cluster ID
   1430           * @param   discoverCmd - discover command to be sent
   1431           * @param   direction - direction of the command
   1432           * @param   seqNum - transaction sequence number
   1433           *
   1434           * @return  ZSuccess if OK
   1435           */
   1436          ZStatus_t zcl_SendDiscoverCmd( uint8 srcEP, afAddrType_t *dstAddr,
   1437                                      uint16 clusterID, zclDiscoverCmd_t *discoverCmd,
   1438                                      uint8 direction, uint8 disableDefaultRsp, uint8 seqNum )
   1439          {
   1440            uint16 dataLen = 2 + 1; // Start Attribute ID and Max Attribute IDs
   1441            uint8 *buf;
   1442            ZStatus_t status;
   1443          
   1444            buf = osal_mem_alloc( dataLen );
   1445            if ( buf != NULL )
   1446            {
   1447              // Load the buffer - serially
   1448              uint8 *pBuf = buf;
   1449              *pBuf++ = LO_UINT16(discoverCmd->startAttr);
   1450              *pBuf++ = HI_UINT16(discoverCmd->startAttr);
   1451              *pBuf++ = discoverCmd->maxAttrIDs;
   1452          
   1453              status = zcl_SendCommand( srcEP, dstAddr, clusterID, ZCL_CMD_DISCOVER, FALSE,
   1454                                        direction, disableDefaultRsp, 0, seqNum, dataLen, buf );
   1455              osal_mem_free( buf );
   1456            }
   1457            else
   1458            {
   1459              status = ZMemError;
   1460            }
   1461          
   1462            return ( status );
   1463          }
   1464          
   1465          /*********************************************************************
   1466           * @fn      zcl_SendDiscoverRspCmd
   1467           *
   1468           * @brief   Send a Discover Response command
   1469           *
   1470           * @param   dstAddr - destination address
   1471           * @param   clusterID - cluster ID
   1472           * @param   reportRspCmd - report response command to be sent
   1473           * @param   direction - direction of the command
   1474           * @param   seqNum - transaction sequence number
   1475           *
   1476           * @return  ZSuccess if OK
   1477           */
   1478          ZStatus_t zcl_SendDiscoverRspCmd( uint8 srcEP, afAddrType_t *dstAddr,
   1479                                uint16 clusterID, zclDiscoverRspCmd_t *discoverRspCmd,
   1480                                uint8 direction, uint8 disableDefaultRsp, uint8 seqNum )
   1481          {
   1482            uint16 dataLen = 1; // Discovery complete
   1483            uint8 *buf;
   1484            ZStatus_t status;
   1485          
   1486            // calculate the size of the command
   1487            dataLen += discoverRspCmd->numAttr * (2 + 1); // Attribute ID and Data Type
   1488          
   1489            buf = osal_mem_alloc( dataLen );
   1490            if ( buf != NULL )
   1491            {
   1492              // Load the buffer - serially
   1493              uint8 *pBuf = buf;
   1494              *pBuf++ = discoverRspCmd->discComplete;
   1495              for ( uint8 i = 0; i < discoverRspCmd->numAttr; i++ )
   1496              {
   1497                *pBuf++ = LO_UINT16(discoverRspCmd->attrList[i].attrID);
   1498                *pBuf++ = HI_UINT16(discoverRspCmd->attrList[i].attrID);
   1499                *pBuf++ = discoverRspCmd->attrList[i].dataType;
   1500              }
   1501          
   1502              status = zcl_SendCommand( srcEP, dstAddr, clusterID, ZCL_CMD_DISCOVER_RSP, FALSE,
   1503                                        direction, disableDefaultRsp, 0, seqNum, dataLen, buf );
   1504              osal_mem_free( buf );
   1505            }
   1506            else
   1507            {
   1508              status = ZMemError;
   1509            }
   1510          
   1511            return ( status );
   1512          }
   1513          #endif // ZCL_DISCOVER
   1514          
   1515          /*********************************************************************
   1516           * PRIVATE FUNCTIONS
   1517           *********************************************************************/
   1518          
   1519          /*********************************************************************
   1520           * @fn      zclProcessMessageMSG
   1521           *
   1522           * @brief   Data message processor callback.  This function processes
   1523           *          any incoming data - probably from other devices.  So, based
   1524           *          on cluster ID, perform the intended action.
   1525           *
   1526           * @param   pkt - incoming message
   1527           *
   1528           * @return  none
   1529           */

   \                                 In  segment BANKED_CODE, align 1, keep-with-next
   1530          void zclProcessMessageMSG( afIncomingMSGPacket_t *pkt )
   \                     zclProcessMessageMSG:
   1531          {
   \   000000   74F4         MOV     A,#-0xc
   \   000002   12....       LCALL   ?BANKED_ENTER_XDATA
   \   000005                ; Saved register size: 12
   \   000005                ; Auto size: 21
   \   000005   74EB         MOV     A,#-0x15
   \   000007   12....       LCALL   ?ALLOC_XSTACK8
   \   00000A   EA           MOV     A,R2
   \   00000B   FE           MOV     R6,A
   \   00000C   EB           MOV     A,R3
   \   00000D   FF           MOV     R7,A
   1532            endPointDesc_t *epDesc;
   1533            zclIncoming_t inMsg;
   1534            zclLibPlugin_t *pInPlugin;
   1535            zclDefaultRspCmd_t defautlRspCmd;
   1536            uint8 options;
   1537            uint8 securityEnable;
   1538            uint8 interPanMsg;
   1539            ZStatus_t status = ZFailure;
   1540          
   1541            if ( pkt->cmd.DataLength == 0 )
   \   00000E   12....       LCALL   ?Subroutine36 & 0xFFFF
   \                     ??CrossCallReturnLabel_60:
   \   000011   12....       LCALL   ??Subroutine61_0 & 0xFFFF
   \                     ??CrossCallReturnLabel_120:
   \   000014   7003         JNZ     $+5
   \   000016   02....       LJMP    ??zclProcessMessageMSG_0 & 0xFFFF
   1542            {
   1543              return;   // Error, ignore the message
   1544            }
   1545          
   1546            // Initialize
   1547            inMsg.msg = pkt;
   \   000019   85..82       MOV     DPL,?XSP + 0
   \   00001C   85..83       MOV     DPH,?XSP + 1
   \   00001F   EE           MOV     A,R6
   \   000020   F0           MOVX    @DPTR,A
   \   000021   A3           INC     DPTR
   \   000022   EF           MOV     A,R7
   \   000023   F0           MOVX    @DPTR,A
   1548            inMsg.attrCmd = NULL;
   \   000024   740C         MOV     A,#0xc
   \   000026   12....       LCALL   ?XSTACK_DISP0_8
   \   000029   E4           CLR     A
   \   00002A   F0           MOVX    @DPTR,A
   \   00002B   A3           INC     DPTR
   \   00002C   F0           MOVX    @DPTR,A
   1549            inMsg.pData = NULL;
   \   00002D   7408         MOV     A,#0x8
   \   00002F   12....       LCALL   ?XSTACK_DISP0_8
   \   000032   E4           CLR     A
   \   000033   F0           MOVX    @DPTR,A
   \   000034   A3           INC     DPTR
   \   000035   F0           MOVX    @DPTR,A
   1550            inMsg.pDataLen = 0;
   \   000036   740A         MOV     A,#0xa
   \   000038   12....       LCALL   ?XSTACK_DISP0_8
   \   00003B   E4           CLR     A
   \   00003C   F0           MOVX    @DPTR,A
   \   00003D   A3           INC     DPTR
   \   00003E   F0           MOVX    @DPTR,A
   1551          
   1552            inMsg.pData = zclParseHdr( &(inMsg.hdr), pkt->cmd.Data );
   \   00003F   EE           MOV     A,R6
   \   000040   2422         ADD     A,#0x22
   \   000042   12....       LCALL   ?Subroutine38 & 0xFFFF
   \                     ??CrossCallReturnLabel_64:
   \   000045   12....       LCALL   ??Subroutine64_0 & 0xFFFF
   \                     ??CrossCallReturnLabel_138:
   \   000048   7402         MOV     A,#0x2
   \   00004A   12....       LCALL   ?XSTACK_DISP0_8
   \   00004D   AA82         MOV     R2,DPL
   \   00004F   AB83         MOV     R3,DPH
   \   000051   12....       LCALL   ??zclParseHdr?relay
   \   000054   8A..         MOV     ?V0 + 2,R2
   \   000056   8B..         MOV     ?V0 + 3,R3
   \   000058   A8..         MOV     R0,?V0 + 2
   \   00005A   A9..         MOV     R1,?V0 + 3
   \   00005C   7408         MOV     A,#0x8
   \   00005E   12....       LCALL   ?XSTACK_DISP0_8
   \   000061   12....       LCALL   ?Subroutine15 & 0xFFFF
   1553            inMsg.pDataLen = pkt->cmd.DataLength;
   1554            inMsg.pDataLen -= (uint16)(inMsg.pData - pkt->cmd.Data);
   \                     ??CrossCallReturnLabel_110:
   \   000064   12....       LCALL   ?Subroutine36 & 0xFFFF
   \                     ??CrossCallReturnLabel_61:
   \   000067   12....       LCALL   ??Subroutine62_0 & 0xFFFF
   \                     ??CrossCallReturnLabel_127:
   \   00006A   EA           MOV     A,R2
   \   00006B   C3           CLR     C
   \   00006C   98           SUBB    A,R0
   \   00006D   F8           MOV     R0,A
   \   00006E   EB           MOV     A,R3
   \   00006F   99           SUBB    A,R1
   \   000070   F9           MOV     R1,A
   \   000071   85..82       MOV     DPL,?V0 + 0
   \   000074   85..83       MOV     DPH,?V0 + 1
   \   000077   E0           MOVX    A,@DPTR
   \   000078   28           ADD     A,R0
   \   000079   F8           MOV     R0,A
   \   00007A   A3           INC     DPTR
   \   00007B   E0           MOVX    A,@DPTR
   \   00007C   39           ADDC    A,R1
   \   00007D   F9           MOV     R1,A
   \   00007E   740A         MOV     A,#0xa
   \   000080   12....       LCALL   ?XSTACK_DISP0_8
   \   000083   12....       LCALL   ?Subroutine15 & 0xFFFF
   1555          
   1556            // Find the wanted endpoint
   1557            epDesc = afFindEndPointDesc( pkt->endPoint );
   \                     ??CrossCallReturnLabel_111:
   \   000086                ; Setup parameters for call to function afFindEndPointDesc
   \   000086   12....       LCALL   ?Subroutine40 & 0xFFFF
   \                     ??CrossCallReturnLabel_68:
   \   000089   F9           MOV     R1,A
   \   00008A   12....       LCALL   ??afFindEndPointDesc?relay
   1558            if ( epDesc == NULL )
   \   00008D   EA           MOV     A,R2
   \   00008E   4B           ORL     A,R3
   \   00008F   7003         JNZ     $+5
   \   000091   02....       LJMP    ??zclProcessMessageMSG_0 & 0xFFFF
   1559            {
   1560              return;   // Error, ignore the message
   1561            }
   1562          
   1563            if ( ( epDesc->simpleDesc == NULL ) ||
   1564                 ( zcl_DeviceOperational( pkt->endPoint, pkt->clusterId, inMsg.hdr.fc.type,
   1565                                          inMsg.hdr.commandID, epDesc->simpleDesc->AppProfId ) == FALSE ) )
   \   000094   8A82         MOV     DPL,R2
   \   000096   8B83         MOV     DPH,R3
   \   000098   A3           INC     DPTR
   \   000099   12....       LCALL   ??Subroutine60_0 & 0xFFFF
   \                     ??CrossCallReturnLabel_123:
   \   00009C   7003         JNZ     $+5
   \   00009E   02....       LJMP    ??zclProcessMessageMSG_0 & 0xFFFF
   \   0000A1                ; Setup parameters for call to function zcl_DeviceOperational
   \   0000A1   8A82         MOV     DPL,R2
   \   0000A3   8B83         MOV     DPH,R3
   \   0000A5   12....       LCALL   ?Subroutine47 & 0xFFFF
   \                     ??CrossCallReturnLabel_94:
   \   0000A8   12....       LCALL   ?PUSH_XSTACK8_X_TWO
   \   0000AB   7409         MOV     A,#0x9
   \   0000AD   12....       LCALL   ?XSTACK_DISP0_8
   \   0000B0   E0           MOVX    A,@DPTR
   \   0000B1   FD           MOV     R5,A
   \   0000B2   7404         MOV     A,#0x4
   \   0000B4   12....       LCALL   ?XSTACK_DISP0_8
   \   0000B7   E0           MOVX    A,@DPTR
   \   0000B8   5403         ANL     A,#0x3
   \   0000BA   FC           MOV     R4,A
   \   0000BB   8E82         MOV     DPL,R6
   \   0000BD   8F83         MOV     DPH,R7
   \   0000BF   A3           INC     DPTR
   \   0000C0   A3           INC     DPTR
   \   0000C1   A3           INC     DPTR
   \   0000C2   A3           INC     DPTR
   \   0000C3   12....       LCALL   ?Subroutine23 & 0xFFFF
   \                     ??CrossCallReturnLabel_37:
   \   0000C6   12....       LCALL   ??zcl_DeviceOperational?relay
   \   0000C9   7402         MOV     A,#0x2
   \   0000CB   12....       LCALL   ?DEALLOC_XSTACK8
   \   0000CE   E9           MOV     A,R1
   \   0000CF   7003         JNZ     $+5
   \   0000D1   02....       LJMP    ??zclProcessMessageMSG_0 & 0xFFFF
   1566            {
   1567              return; // Error, ignore the message
   1568            }
   1569          
   1570          #if defined ( INTER_PAN )
   1571            if ( StubAPS_InterPan( pkt->srcAddr.panId, pkt->srcAddr.endPoint ) )
   1572            {
   1573              // No foundation command is supported thru Inter-PAN communication.
   1574              // But the Smart Light cluster uses a different Frame Control format
   1575              // for it's Inter-PAN messages, where the messages could be confused
   1576              // with the foundation commands.
   1577              if ( !ZCL_CLUSTER_ID_SL( pkt->clusterId ) && zcl_ProfileCmd( inMsg.hdr.fc.type ) )
   1578              {
   1579                return;
   1580              }
   1581          
   1582              interPanMsg = TRUE;
   1583              options = AF_TX_OPTIONS_NONE;
   1584            }
   1585            else
   1586          #endif
   1587            {
   1588              interPanMsg = FALSE;
   1589              options = zclGetClusterOption( pkt->endPoint, pkt->clusterId );
   \   0000D4   EE           MOV     A,R6
   \   0000D5   2404         ADD     A,#0x4
   \   0000D7   12....       LCALL   ?Subroutine38 & 0xFFFF
   1590            }
   \                     ??CrossCallReturnLabel_65:
   \   0000DA   12....       LCALL   ?Subroutine23 & 0xFFFF
   \                     ??CrossCallReturnLabel_38:
   \   0000DD   12....       LCALL   ??zclGetClusterOption?relay
   \   0000E0   E9           MOV     A,R1
   \   0000E1   F5..         MOV     ?V0 + 2,A
   1591          
   1592            // Find the appropriate plugin
   1593            pInPlugin = zclFindPlugin( pkt->clusterId, epDesc->simpleDesc->AppProfId );
   \   0000E3   85..82       MOV     DPL,?V0 + 0
   \   0000E6   85..83       MOV     DPH,?V0 + 1
   \   0000E9   12....       LCALL   ??Subroutine62_0 & 0xFFFF
   \                     ??CrossCallReturnLabel_128:
   \   0000EC   90....       MOV     DPTR,#plugins
   \   0000EF   8004         SJMP    ??zclProcessMessageMSG_1
   \                     ??zclProcessMessageMSG_2:
   \   0000F1   8882         MOV     DPL,R0
   \   0000F3   8983         MOV     DPH,R1
   \                     ??zclProcessMessageMSG_1:
   \   0000F5   12....       LCALL   ??Subroutine61_0 & 0xFFFF
   \                     ??CrossCallReturnLabel_118:
   \   0000F8   6020         JZ      ??zclProcessMessageMSG_3
   \   0000FA   8882         MOV     DPL,R0
   \   0000FC   8983         MOV     DPH,R1
   \   0000FE   12....       LCALL   ?Subroutine46 & 0xFFFF
   \                     ??CrossCallReturnLabel_141:
   \   000101   C3           CLR     C
   \   000102   EA           MOV     A,R2
   \   000103   9C           SUBB    A,R4
   \   000104   EB           MOV     A,R3
   \   000105   9D           SUBB    A,R5
   \   000106   40E9         JC      ??zclProcessMessageMSG_2
   \   000108   8882         MOV     DPL,R0
   \   00010A   8983         MOV     DPH,R1
   \   00010C   A3           INC     DPTR
   \   00010D   A3           INC     DPTR
   \   00010E   A3           INC     DPTR
   \   00010F   A3           INC     DPTR
   \   000110   C3           CLR     C
   \   000111   E0           MOVX    A,@DPTR
   \   000112   9A           SUBB    A,R2
   \   000113   A3           INC     DPTR
   \   000114   E0           MOVX    A,@DPTR
   \   000115   9B           SUBB    A,R3
   \   000116   40D9         JC      ??zclProcessMessageMSG_2
   \   000118   8004         SJMP    ??zclProcessMessageMSG_4
   \                     ??zclProcessMessageMSG_3:
   \   00011A   7800         MOV     R0,#0x0
   \   00011C   7900         MOV     R1,#0x0
   1594          
   1595            // Local and remote Security options must match except for Default Response command
   1596            if ( ( pInPlugin != NULL ) && !zcl_DefaultRspCmd( inMsg.hdr ) )
   \                     ??zclProcessMessageMSG_4:
   \   00011E   E8           MOV     A,R0
   \   00011F   49           ORL     A,R1
   \   000120   7003         JNZ     $+5
   \   000122   02....       LJMP    ??zclProcessMessageMSG_5 & 0xFFFF
   \   000125   7402         MOV     A,#0x2
   \   000127   12....       LCALL   ?XSTACK_DISP0_8
   \   00012A   E0           MOVX    A,@DPTR
   \   00012B   5407         ANL     A,#0x7
   \   00012D   700D         JNZ     ??zclProcessMessageMSG_6
   \   00012F   7407         MOV     A,#0x7
   \   000131   12....       LCALL   ?XSTACK_DISP0_8
   \   000134   E0           MOVX    A,@DPTR
   \   000135   640B         XRL     A,#0xb
   \   000137   7003         JNZ     $+5
   \   000139   02....       LJMP    ??zclProcessMessageMSG_5 & 0xFFFF
   1597            {
   1598              securityEnable = ( options & AF_EN_SECURITY ) ? TRUE : FALSE;
   \                     ??zclProcessMessageMSG_6:
   \   00013C   E5..         MOV     A,?V0 + 2
   \   00013E   A2E6         MOV     C,0xE0 /* A   */.6
   \   000140   5004         JNC     ??zclProcessMessageMSG_7
   \   000142   D2F0         SETB    B.0
   \   000144   8002         SJMP    ??zclProcessMessageMSG_8
   \                     ??zclProcessMessageMSG_7:
   \   000146   C2F0         CLR     B.0
   \                     ??zclProcessMessageMSG_8:
   \   000148   A2F0         MOV     C,B.0
   \   00014A   E4           CLR     A
   \   00014B   33           RLC     A
   \   00014C   F5..         MOV     ?V0 + 0,A
   1599              if ( pkt->SecurityUse != securityEnable )
   \   00014E   EE           MOV     A,R6
   \   00014F   2419         ADD     A,#0x19
   \   000151   12....       LCALL   ??Subroutine55_0 & 0xFFFF
   \                     ??CrossCallReturnLabel_97:
   \   000154   E0           MOVX    A,@DPTR
   \   000155   65..         XRL     A,?V0 + 0
   \   000157   7003         JNZ     $+5
   \   000159   02....       LJMP    ??zclProcessMessageMSG_5 & 0xFFFF
   1600              {
   1601                if ( UNICAST_MSG( inMsg.msg ) )
   \   00015C   12....       LCALL   ?Subroutine25 & 0xFFFF
   \                     ??CrossCallReturnLabel_102:
   \   00015F   6003         JZ      $+5
   \   000161   02....       LJMP    ??zclProcessMessageMSG_0 & 0xFFFF
   \   000164   12....       LCALL   ?Subroutine17 & 0xFFFF
   \                     ??CrossCallReturnLabel_124:
   \   000167   6003         JZ      $+5
   \   000169   02....       LJMP    ??zclProcessMessageMSG_0 & 0xFFFF
   1602                {
   1603                  // Send a Default Response command back with no Application Link Key security
   1604                  if ( securityEnable )
   \   00016C   E5..         MOV     A,?V0 + 0
   \   00016E   A2E0         MOV     C,0xE0 /* A   */.0
   \   000170   5005         JNC     ??CrossCallReturnLabel_26
   1605                  {
   1606                    zclSetSecurityOption( pkt->endPoint, pkt->clusterId, FALSE );
   \   000172                ; Setup parameters for call to function zclSetSecurityOption
   \   000172   7C00         MOV     R4,#0x0
   \   000174   12....       LCALL   ?Subroutine19 & 0xFFFF
   1607                  }
   1608          
   1609                  defautlRspCmd.statusCode = status;
   \                     ??CrossCallReturnLabel_26:
   \   000177   740F         MOV     A,#0xf
   \   000179   12....       LCALL   ?XSTACK_DISP0_8
   \   00017C   7401         MOV     A,#0x1
   \   00017E   F0           MOVX    @DPTR,A
   1610                  defautlRspCmd.commandID = inMsg.hdr.commandID;
   \   00017F   7407         MOV     A,#0x7
   \   000181   12....       LCALL   ?XSTACK_DISP0_8
   \   000184   E0           MOVX    A,@DPTR
   \   000185   C0E0         PUSH    A
   \   000187   740E         MOV     A,#0xe
   \   000189   12....       LCALL   ?XSTACK_DISP0_8
   \   00018C   D0E0         POP     A
   \   00018E   F0           MOVX    @DPTR,A
   1611                  zcl_SendDefaultRspCmd( inMsg.msg->endPoint, &(inMsg.msg->srcAddr),
   1612                                         inMsg.msg->clusterId, &defautlRspCmd,
   1613                                         ZCL_FRAME_SERVER_CLIENT_DIR, true,
   1614                                         inMsg.hdr.manuCode, inMsg.hdr.transSeqNum );
   \   00018F                ; Setup parameters for call to function zcl_SendDefaultRspCmd
   \   00018F   7406         MOV     A,#0x6
   \   000191   12....       LCALL   ?XSTACK_DISP0_8
   \   000194   E0           MOVX    A,@DPTR
   \   000195   F5..         MOV     ?V0 + 1,A
   \   000197   78..         MOV     R0,#?V0 + 1
   \   000199   12....       LCALL   ?PUSH_XSTACK_I_ONE
   \   00019C   7405         MOV     A,#0x5
   \   00019E   12....       LCALL   ?XSTACK_DISP0_8
   \   0001A1   12....       LCALL   ?PUSH_XSTACK8_X_TWO
   \   0001A4   75..01       MOV     ?V0 + 1,#0x1
   \   0001A7   78..         MOV     R0,#?V0 + 1
   \   0001A9   12....       LCALL   ?PUSH_XSTACK_I_ONE
   \   0001AC   78..         MOV     R0,#?V0 + 1
   \   0001AE   12....       LCALL   ?PUSH_XSTACK_I_ONE
   \   0001B1   7413         MOV     A,#0x13
   \   0001B3   12....       LCALL   ?XSTACK_DISP0_8
   \   0001B6   8582..       MOV     ?V0 + 2,DPL
   \   0001B9   8583..       MOV     ?V0 + 3,DPH
   \   0001BC   78..         MOV     R0,#?V0 + 2
   \   0001BE   12....       LCALL   ?PUSH_XSTACK_I_TWO
   \   0001C1   7407         MOV     A,#0x7
   \   0001C3   12....       LCALL   ?XSTACK_DISP0_8
   \   0001C6   12....       LCALL   ?Subroutine22 & 0xFFFF
   \                     ??CrossCallReturnLabel_35:
   \   0001C9   12....       LCALL   ?XSTACK_DISP0_8
   \   0001CC   12....       LCALL   ?Subroutine29 & 0xFFFF
   \                     ??CrossCallReturnLabel_48:
   \   0001CF   12....       LCALL   ?XSTACK_DISP0_8
   \   0001D2   12....       LCALL   ?Subroutine20 & 0xFFFF
   \                     ??CrossCallReturnLabel_28:
   \   0001D5   12....       LCALL   ?DEALLOC_XSTACK8
   1615                  if ( securityEnable )
   \   0001D8   E5..         MOV     A,?V0 + 0
   \   0001DA   A2E0         MOV     C,0xE0 /* A   */.0
   \   0001DC   4003         JC      $+5
   \   0001DE   02....       LJMP    ??zclProcessMessageMSG_0 & 0xFFFF
   1616                  {
   1617                    zclSetSecurityOption( pkt->endPoint, pkt->clusterId, TRUE );
   \   0001E1                ; Setup parameters for call to function zclSetSecurityOption
   \   0001E1   7C01         MOV     R4,#0x1
   \   0001E3   12....       LCALL   ?Subroutine19 & 0xFFFF
   1618                  }
   1619                }
   1620          
   1621                return;   // Error, ignore the message
   1622              }
   1623            }
   \                     ??CrossCallReturnLabel_27:
   \   0001E6   02....       LJMP    ??zclProcessMessageMSG_0 & 0xFFFF
   1624          
   1625            // Is this a foundation type message
   1626            if ( !interPanMsg && zcl_ProfileCmd( inMsg.hdr.fc.type ) )
   \                     ??zclProcessMessageMSG_5:
   \   0001E9   7402         MOV     A,#0x2
   \   0001EB   12....       LCALL   ?XSTACK_DISP0_8
   \   0001EE   E0           MOVX    A,@DPTR
   \   0001EF   5403         ANL     A,#0x3
   \   0001F1   6003         JZ      $+5
   \   0001F3   02....       LJMP    ??zclProcessMessageMSG_9 & 0xFFFF
   1627            {
   1628              if ( inMsg.hdr.fc.manuSpecific )
   \   0001F6   E0           MOVX    A,@DPTR
   \   0001F7   5404         ANL     A,#0x4
   \   0001F9   6005         JZ      ??zclProcessMessageMSG_10
   1629              {
   1630                // We don't support any manufacturer specific command
   1631                status = ZCL_STATUS_UNSUP_MANU_GENERAL_COMMAND;
   \   0001FB   7A84         MOV     R2,#-0x7c
   \   0001FD   02....       LJMP    ??zclProcessMessageMSG_11 & 0xFFFF
   1632              }
   1633              else if ( ( inMsg.hdr.commandID <= ZCL_CMD_MAX ) &&
   1634                        ( zclCmdTable[inMsg.hdr.commandID].pfnParseInProfile != NULL ) )
   \                     ??zclProcessMessageMSG_10:
   \   000200   7407         MOV     A,#0x7
   \   000202   12....       LCALL   ?XSTACK_DISP0_8
   \   000205   E0           MOVX    A,@DPTR
   \   000206   C3           CLR     C
   \   000207   940E         SUBB    A,#0xe
   \   000209   4003         JC      $+5
   \   00020B   02....       LJMP    ??zclProcessMessageMSG_12 & 0xFFFF
   \   00020E   12....       LCALL   ?Subroutine18 & 0xFFFF
   \                     ??CrossCallReturnLabel_22:
   \   000211   12....       LCALL   ?S_SHL
   \   000214   74..         MOV     A,#zclCmdTable & 0xff
   \   000216   25..         ADD     A,?V0 + 0
   \   000218   F582         MOV     DPL,A
   \   00021A   74..         MOV     A,#(zclCmdTable >> 8) & 0xff
   \   00021C   12....       LCALL   ?Subroutine37 & 0xFFFF
   \                     ??CrossCallReturnLabel_62:
   \   00021F   7003         JNZ     $+5
   \   000221   02....       LJMP    ??zclProcessMessageMSG_12 & 0xFFFF
   1635              {
   1636                zclParseCmd_t parseCmd;
   1637          
   1638                parseCmd.endpoint = pkt->endPoint;
   \   000224   12....       LCALL   ?Subroutine40 & 0xFFFF
   \                     ??CrossCallReturnLabel_69:
   \   000227   C0E0         PUSH    A
   \   000229   7410         MOV     A,#0x10
   \   00022B   12....       LCALL   ?XSTACK_DISP0_8
   \   00022E   D0E0         POP     A
   \   000230   F0           MOVX    @DPTR,A
   1639                parseCmd.dataLen = inMsg.pDataLen;
   \   000231   740A         MOV     A,#0xa
   \   000233   12....       LCALL   ?XSTACK_DISP0_8
   \   000236   12....       LCALL   ?Subroutine28 & 0xFFFF
   \                     ??CrossCallReturnLabel_44:
   \   000239   7411         MOV     A,#0x11
   \   00023B   12....       LCALL   ?XSTACK_DISP0_8
   \   00023E   12....       LCALL   ?Subroutine15 & 0xFFFF
   1640                parseCmd.pData = inMsg.pData;
   \                     ??CrossCallReturnLabel_112:
   \   000241   7408         MOV     A,#0x8
   \   000243   12....       LCALL   ?XSTACK_DISP0_8
   \   000246   12....       LCALL   ?Subroutine28 & 0xFFFF
   \                     ??CrossCallReturnLabel_45:
   \   000249   7413         MOV     A,#0x13
   \   00024B   12....       LCALL   ?XSTACK_DISP0_8
   \   00024E   12....       LCALL   ?Subroutine15 & 0xFFFF
   1641          
   1642                // Parse the command, remember that the return value is a pointer to allocated memory
   1643                inMsg.attrCmd = zclParseCmd( inMsg.hdr.commandID, &parseCmd );
   \                     ??CrossCallReturnLabel_113:
   \   000251                ; Setup parameters for indirect call
   \   000251   7410         MOV     A,#0x10
   \   000253   12....       LCALL   ?XSTACK_DISP0_8
   \   000256   AA82         MOV     R2,DPL
   \   000258   AB83         MOV     R3,DPH
   \   00025A   7407         MOV     A,#0x7
   \   00025C   12....       LCALL   ?XSTACK_DISP0_8
   \   00025F   12....       LCALL   ?Subroutine18 & 0xFFFF
   \                     ??CrossCallReturnLabel_23:
   \   000262   12....       LCALL   ?S_SHL
   \   000265   74..         MOV     A,#zclCmdTable & 0xff
   \   000267   25..         ADD     A,?V0 + 0
   \   000269   F582         MOV     DPL,A
   \   00026B   74..         MOV     A,#(zclCmdTable >> 8) & 0xff
   \   00026D   12....       LCALL   ?Subroutine49 & 0xFFFF
   \                     ??CrossCallReturnLabel_81:
   \   000270   C0E0         PUSH    A
   \   000272   7401         MOV     A,#0x1
   \   000274   93           MOVC    A,@A+DPTR
   \   000275   F583         MOV     DPH,A
   \   000277   D082         POP     DPL
   \   000279   12....       LCALL   ?CALL_IND
   \   00027C   8A..         MOV     ?V0 + 0,R2
   \   00027E   8B..         MOV     ?V0 + 1,R3
   \   000280   A8..         MOV     R0,?V0 + 0
   \   000282   A9..         MOV     R1,?V0 + 1
   \   000284   740C         MOV     A,#0xc
   \   000286   12....       LCALL   ?XSTACK_DISP0_8
   \   000289   12....       LCALL   ?Subroutine15 & 0xFFFF
   1644                if ( (inMsg.attrCmd != NULL) && (zclCmdTable[inMsg.hdr.commandID].pfnProcessInProfile != NULL) )
   \                     ??CrossCallReturnLabel_114:
   \   00028C   E8           MOV     A,R0
   \   00028D   49           ORL     A,R1
   \   00028E   6059         JZ      ??zclProcessMessageMSG_13
   \   000290   7407         MOV     A,#0x7
   \   000292   12....       LCALL   ?XSTACK_DISP0_8
   \   000295   12....       LCALL   ?Subroutine18 & 0xFFFF
   \                     ??CrossCallReturnLabel_24:
   \   000298   12....       LCALL   ?S_SHL
   \   00029B   74..         MOV     A,#(zclCmdTable + 2) & 0xff
   \   00029D   25..         ADD     A,?V0 + 0
   \   00029F   F582         MOV     DPL,A
   \   0002A1   74..         MOV     A,#((zclCmdTable + 2) >> 8) & 0xff
   \   0002A3   12....       LCALL   ?Subroutine37 & 0xFFFF
   \                     ??CrossCallReturnLabel_63:
   \   0002A6   6036         JZ      ??zclProcessMessageMSG_14
   1645                {
   1646                  // Process the command
   1647                  if ( zclProcessCmd( inMsg.hdr.commandID, &inMsg ) == FALSE )
   \   0002A8                ; Setup parameters for indirect call
   \   0002A8   85..82       MOV     DPL,?XSP + 0
   \   0002AB   85..83       MOV     DPH,?XSP + 1
   \   0002AE   AA82         MOV     R2,DPL
   \   0002B0   AB83         MOV     R3,DPH
   \   0002B2   7407         MOV     A,#0x7
   \   0002B4   12....       LCALL   ?XSTACK_DISP0_8
   \   0002B7   12....       LCALL   ?Subroutine18 & 0xFFFF
   1648                  {
   1649                    // Couldn't find attribute in the table.
   1650                  }
   1651                }
   \                     ??CrossCallReturnLabel_25:
   \   0002BA   12....       LCALL   ?S_SHL
   \   0002BD   74..         MOV     A,#(zclCmdTable + 2) & 0xff
   \   0002BF   25..         ADD     A,?V0 + 0
   \   0002C1   F582         MOV     DPL,A
   \   0002C3   74..         MOV     A,#((zclCmdTable + 2) >> 8) & 0xff
   \   0002C5   12....       LCALL   ?Subroutine49 & 0xFFFF
   \                     ??CrossCallReturnLabel_82:
   \   0002C8   C0E0         PUSH    A
   \   0002CA   7401         MOV     A,#0x1
   \   0002CC   93           MOVC    A,@A+DPTR
   \   0002CD   F583         MOV     DPH,A
   \   0002CF   D082         POP     DPL
   \   0002D1   12....       LCALL   ?CALL_IND
   1652          
   1653                // Free the buffer
   1654                if ( inMsg.attrCmd )
   \   0002D4   740C         MOV     A,#0xc
   \   0002D6   12....       LCALL   ?XSTACK_DISP0_8
   \   0002D9   12....       LCALL   ??Subroutine61_0 & 0xFFFF
   \                     ??CrossCallReturnLabel_121:
   \   0002DC   600B         JZ      ??zclProcessMessageMSG_13
   1655                {
   1656                  osal_mem_free( inMsg.attrCmd );
   \                     ??zclProcessMessageMSG_14:
   \   0002DE                ; Setup parameters for call to function osal_mem_free
   \   0002DE   740C         MOV     A,#0xc
   \   0002E0   12....       LCALL   ?XSTACK_DISP0_8
   \   0002E3   12....       LCALL   ??Subroutine62_0 & 0xFFFF
   1657                }
   \                     ??CrossCallReturnLabel_129:
   \   0002E6   12....       LCALL   ??osal_mem_free?relay
   1658          
   1659                if ( CMD_HAS_RSP( inMsg.hdr.commandID ) )
   \                     ??zclProcessMessageMSG_13:
   \   0002E9   7407         MOV     A,#0x7
   \   0002EB   12....       LCALL   ?XSTACK_DISP0_8
   \   0002EE   E0           MOVX    A,@DPTR
   \   0002EF   7003         JNZ     $+5
   \   0002F1   02....       LJMP    ??zclProcessMessageMSG_0 & 0xFFFF
   \   0002F4   6402         XRL     A,#0x2
   \   0002F6   7003         JNZ     $+5
   \   0002F8   02....       LJMP    ??zclProcessMessageMSG_0 & 0xFFFF
   \   0002FB   E0           MOVX    A,@DPTR
   \   0002FC   6403         XRL     A,#0x3
   \   0002FE   7003         JNZ     $+5
   \   000300   02....       LJMP    ??zclProcessMessageMSG_0 & 0xFFFF
   \   000303   E0           MOVX    A,@DPTR
   \   000304   6406         XRL     A,#0x6
   \   000306   7003         JNZ     $+5
   \   000308   02....       LJMP    ??zclProcessMessageMSG_0 & 0xFFFF
   \   00030B   E0           MOVX    A,@DPTR
   \   00030C   6408         XRL     A,#0x8
   \   00030E   7003         JNZ     $+5
   \   000310   02....       LJMP    ??zclProcessMessageMSG_0 & 0xFFFF
   \   000313   E0           MOVX    A,@DPTR
   \   000314   640C         XRL     A,#0xc
   \   000316   7003         JNZ     $+5
   \   000318   02....       LJMP    ??zclProcessMessageMSG_0 & 0xFFFF
   \   00031B   E0           MOVX    A,@DPTR
   \   00031C   640B         XRL     A,#0xb
   \   00031E   7003         JNZ     $+5
   \   000320   02....       LJMP    ??zclProcessMessageMSG_0 & 0xFFFF
   1660                {
   1661                  return; // We're done
   1662                }
   1663          
   1664                status = ZSuccess;
   \   000323   7A00         MOV     R2,#0x0
   \   000325   8050         SJMP    ??zclProcessMessageMSG_11
   1665              }
   1666              else
   1667              {
   1668                // Unsupported message
   1669                status = ZCL_STATUS_UNSUP_GENERAL_COMMAND;
   \                     ??zclProcessMessageMSG_12:
   \   000327   7A82         MOV     R2,#-0x7e
   \   000329   804C         SJMP    ??zclProcessMessageMSG_11
   1670              }
   1671            }
   1672            else  // Not a foundation type message, so it must be specific to the cluster ID.
   1673            {
   1674              if ( pInPlugin && pInPlugin->pfnIncomingHdlr )
   \                     ??zclProcessMessageMSG_9:
   \   00032B   E8           MOV     A,R0
   \   00032C   49           ORL     A,R1
   \   00032D   6038         JZ      ??zclProcessMessageMSG_15
   \   00032F   8882         MOV     DPL,R0
   \   000331   8983         MOV     DPH,R1
   \   000333   A3           INC     DPTR
   \   000334   A3           INC     DPTR
   \   000335   A3           INC     DPTR
   \   000336   A3           INC     DPTR
   \   000337   A3           INC     DPTR
   \   000338   A3           INC     DPTR
   \   000339   12....       LCALL   ?Subroutine21 & 0xFFFF
   \                     ??CrossCallReturnLabel_34:
   \   00033C   6029         JZ      ??zclProcessMessageMSG_15
   1675              {
   1676                // The return value of the plugin function will be
   1677                //  ZSuccess - Supported and need default response
   1678                //  ZFailure - Unsupported
   1679                //  ZCL_STATUS_CMD_HAS_RSP - Supported and do not need default rsp
   1680                //  ZCL_STATUS_INVALID_FIELD - Supported, but the incoming msg is wrong formatted
   1681                //  ZCL_STATUS_INVALID_VALUE - Supported, but the request not achievable by the h/w
   1682                //  ZCL_STATUS_SOFTWARE_FAILURE - Supported but ZStack memory allocation fails
   1683                status = pInPlugin->pfnIncomingHdlr( &inMsg );
   \   00033E                ; Setup parameters for indirect call
   \   00033E   85..82       MOV     DPL,?XSP + 0
   \   000341   85..83       MOV     DPH,?XSP + 1
   \   000344   AA82         MOV     R2,DPL
   \   000346   AB83         MOV     R3,DPH
   \   000348   8882         MOV     DPL,R0
   \   00034A   8983         MOV     DPH,R1
   \   00034C   A3           INC     DPTR
   \   00034D   A3           INC     DPTR
   \   00034E   A3           INC     DPTR
   \   00034F   A3           INC     DPTR
   \   000350   A3           INC     DPTR
   \   000351   A3           INC     DPTR
   \   000352   12....       LCALL   ?Subroutine45 & 0xFFFF
   \                     ??CrossCallReturnLabel_78:
   \   000355   12....       LCALL   ?CALL_IND
   \   000358   E9           MOV     A,R1
   \   000359   FA           MOV     R2,A
   1684                if ( status == ZCL_STATUS_CMD_HAS_RSP || ( interPanMsg && status == ZSuccess ) )
   \   00035A   74FF         MOV     A,#-0x1
   \   00035C   6A           XRL     A,R2
   \   00035D   7003         JNZ     $+5
   \   00035F   02....       LJMP    ??zclProcessMessageMSG_0 & 0xFFFF
   1685                {
   1686                  return; // We're done
   1687                }
   1688              }
   1689          
   1690              if ( status == ZFailure )
   \   000362   7401         MOV     A,#0x1
   \   000364   6A           XRL     A,R2
   \   000365   7010         JNZ     ??zclProcessMessageMSG_11
   1691              {
   1692                // Unsupported message
   1693                if ( inMsg.hdr.fc.manuSpecific )
   \                     ??zclProcessMessageMSG_15:
   \   000367   7402         MOV     A,#0x2
   \   000369   12....       LCALL   ?XSTACK_DISP0_8
   \   00036C   E0           MOVX    A,@DPTR
   \   00036D   5404         ANL     A,#0x4
   \   00036F   6004         JZ      ??zclProcessMessageMSG_16
   1694                {
   1695                  status = ZCL_STATUS_UNSUP_MANU_CLUSTER_COMMAND;
   \   000371   7A83         MOV     R2,#-0x7d
   \   000373   8002         SJMP    ??zclProcessMessageMSG_11
   1696                }
   1697                else
   1698                {
   1699                  status = ZCL_STATUS_UNSUP_CLUSTER_COMMAND;
   \                     ??zclProcessMessageMSG_16:
   \   000375   7A81         MOV     R2,#-0x7f
   1700                }
   1701              }
   1702            }
   1703          
   1704            if ( UNICAST_MSG( inMsg.msg ) && inMsg.hdr.fc.disableDefaultRsp == 0 )
   \                     ??zclProcessMessageMSG_11:
   \   000377   12....       LCALL   ?Subroutine25 & 0xFFFF
   \                     ??CrossCallReturnLabel_103:
   \   00037A   706F         JNZ     ??zclProcessMessageMSG_0
   \   00037C   12....       LCALL   ?Subroutine17 & 0xFFFF
   \                     ??CrossCallReturnLabel_125:
   \   00037F   706A         JNZ     ??zclProcessMessageMSG_0
   \   000381   7402         MOV     A,#0x2
   \   000383   12....       LCALL   ?XSTACK_DISP0_8
   \   000386   E0           MOVX    A,@DPTR
   \   000387   5410         ANL     A,#0x10
   \   000389   7060         JNZ     ??zclProcessMessageMSG_0
   1705            {
   1706              // Send a Default Response command back
   1707              defautlRspCmd.statusCode = status;
   \   00038B   740F         MOV     A,#0xf
   \   00038D   12....       LCALL   ?XSTACK_DISP0_8
   \   000390   EA           MOV     A,R2
   \   000391   F0           MOVX    @DPTR,A
   1708              defautlRspCmd.commandID = inMsg.hdr.commandID;
   \   000392   7407         MOV     A,#0x7
   \   000394   12....       LCALL   ?XSTACK_DISP0_8
   \   000397   E0           MOVX    A,@DPTR
   \   000398   C0E0         PUSH    A
   \   00039A   740E         MOV     A,#0xe
   \   00039C   12....       LCALL   ?XSTACK_DISP0_8
   \   00039F   D0E0         POP     A
   \   0003A1   F0           MOVX    @DPTR,A
   1709              zcl_SendDefaultRspCmd( inMsg.msg->endPoint, &(inMsg.msg->srcAddr),
   1710                                     inMsg.msg->clusterId, &defautlRspCmd,
   1711                                     ZCL_FRAME_SERVER_CLIENT_DIR, true,
   1712                                     inMsg.hdr.manuCode, inMsg.hdr.transSeqNum );
   \   0003A2                ; Setup parameters for call to function zcl_SendDefaultRspCmd
   \   0003A2   7406         MOV     A,#0x6
   \   0003A4   12....       LCALL   ?XSTACK_DISP0_8
   \   0003A7   E0           MOVX    A,@DPTR
   \   0003A8   F5..         MOV     ?V0 + 0,A
   \   0003AA   78..         MOV     R0,#?V0 + 0
   \   0003AC   12....       LCALL   ?PUSH_XSTACK_I_ONE
   \   0003AF   7405         MOV     A,#0x5
   \   0003B1   12....       LCALL   ?XSTACK_DISP0_8
   \   0003B4   12....       LCALL   ?PUSH_XSTACK8_X_TWO
   \   0003B7   75..01       MOV     ?V0 + 0,#0x1
   \   0003BA   78..         MOV     R0,#?V0 + 0
   \   0003BC   12....       LCALL   ?PUSH_XSTACK_I_ONE
   \   0003BF   78..         MOV     R0,#?V0 + 0
   \   0003C1   12....       LCALL   ?PUSH_XSTACK_I_ONE
   \   0003C4   7413         MOV     A,#0x13
   \   0003C6   12....       LCALL   ?XSTACK_DISP0_8
   \   0003C9   8582..       MOV     ?V0 + 0,DPL
   \   0003CC   8583..       MOV     ?V0 + 1,DPH
   \   0003CF   78..         MOV     R0,#?V0 + 0
   \   0003D1   12....       LCALL   ?PUSH_XSTACK_I_TWO
   \   0003D4   7407         MOV     A,#0x7
   \   0003D6   12....       LCALL   ?XSTACK_DISP0_8
   \   0003D9   12....       LCALL   ?Subroutine22 & 0xFFFF
   1713            }
   \                     ??CrossCallReturnLabel_36:
   \   0003DC   12....       LCALL   ?XSTACK_DISP0_8
   \   0003DF   12....       LCALL   ?Subroutine29 & 0xFFFF
   \                     ??CrossCallReturnLabel_49:
   \   0003E2   12....       LCALL   ?XSTACK_DISP0_8
   \   0003E5   12....       LCALL   ?Subroutine20 & 0xFFFF
   \                     ??CrossCallReturnLabel_29:
   \   0003E8   12....       LCALL   ?DEALLOC_XSTACK8
   \                     ??zclProcessMessageMSG_0:
   \   0003EB   7415         MOV     A,#0x15
   \   0003ED   12....       LCALL   ?DEALLOC_XSTACK8
   \   0003F0   02....       LJMP    ?Subroutine1 & 0xFFFF
   1714          }

   \                                 In  segment BANKED_CODE, align 1, keep-with-next
   \                     ?Subroutine40:
   \   000000   12....       LCALL   ?Subroutine52 & 0xFFFF
   \                     ??CrossCallReturnLabel_99:
   \   000003   E0           MOVX    A,@DPTR
   \   000004   22           RET

   \                                 In  segment BANKED_CODE, align 1, keep-with-next
   \                     ?Subroutine38:
   \   000000   F8           MOV     R0,A
   \   000001   EF           MOV     A,R7
   \   000002   3400         ADDC    A,#0x0
   \   000004   F9           MOV     R1,A
   \   000005   88..         MOV     ?V0 + 0,R0
   \   000007   89..         MOV     ?V0 + 1,R1
   \   000009                ; Setup parameters for call to function zclParseHdr
   \   000009                ; Setup parameters for call to function zclGetClusterOption
   \   000009   8882         MOV     DPL,R0
   \   00000B   F583         MOV     DPH,A
   \   00000D   22           RET

   \                                 In  segment BANKED_CODE, align 1, keep-with-next
   \                     ?Subroutine37:
   \   000000   12....       LCALL   ?Subroutine49 & 0xFFFF
   \                     ??CrossCallReturnLabel_83:
   \   000003   F8           MOV     R0,A
   \   000004   7401         MOV     A,#0x1
   \   000006   93           MOVC    A,@A+DPTR
   \   000007   F9           MOV     R1,A
   \   000008   E8           MOV     A,R0
   \   000009   49           ORL     A,R1
   \   00000A   22           RET

   \                                 In  segment BANKED_CODE, align 1, keep-with-next
   \                     ?Subroutine49:
   \   000000   35..         ADDC    A,?V0 + 1
   \   000002   F583         MOV     DPH,A
   \   000004   E4           CLR     A
   \   000005   93           MOVC    A,@A+DPTR
   \   000006   22           RET

   \                                 In  segment BANKED_CODE, align 1, keep-with-next
   \                     ?Subroutine36:
   \   000000   EE           MOV     A,R6
   \   000001   2420         ADD     A,#0x20
   \   000003   12....       LCALL   ??Subroutine55_0 & 0xFFFF
   \                     ??CrossCallReturnLabel_98:
   \   000006   22           RET

   \                                 In  segment BANKED_CODE, align 1, keep-with-next
   \                     ?Subroutine52:
   \   000000   EE           MOV     A,R6
   \   000001   2414         ADD     A,#0x14
   \   000003                REQUIRE ??Subroutine55_0
   \   000003                ; // Fall through to label ??Subroutine55_0

   \                                 In  segment BANKED_CODE, align 1, keep-with-next
   \                     ??Subroutine55_0:
   \   000000   F582         MOV     DPL,A
   \   000002   EF           MOV     A,R7
   \   000003                REQUIRE ??Subroutine56_0
   \   000003                ; // Fall through to label ??Subroutine56_0

   \                                 In  segment BANKED_CODE, align 1, keep-with-next
   \                     ??Subroutine56_0:
   \   000000   3400         ADDC    A,#0x0
   \   000002   F583         MOV     DPH,A
   \   000004   22           RET

   \                                 In  segment BANKED_CODE, align 1, keep-with-next
   \                     ?Subroutine29:
   \   000000   E0           MOVX    A,@DPTR
   \   000001   2406         ADD     A,#0x6
   \   000003   FA           MOV     R2,A
   \   000004   A3           INC     DPTR
   \   000005   E0           MOVX    A,@DPTR
   \   000006   3400         ADDC    A,#0x0
   \   000008   FB           MOV     R3,A
   \   000009   7407         MOV     A,#0x7
   \   00000B   22           RET

   \                                 In  segment BANKED_CODE, align 1, keep-with-next
   \                     ?Subroutine25:
   \   000000   85..82       MOV     DPL,?XSP + 0
   \   000003   85..83       MOV     DPH,?XSP + 1
   \   000006   E0           MOVX    A,@DPTR
   \   000007   2415         ADD     A,#0x15
   \   000009                REQUIRE ??Subroutine57_0
   \   000009                ; // Fall through to label ??Subroutine57_0

   \                                 In  segment BANKED_CODE, align 1, keep-with-next
   \                     ??Subroutine57_0:
   \   000000   12....       LCALL   ?Subroutine48 & 0xFFFF
   \                     ??CrossCallReturnLabel_105:
   \   000003   22           RET

   \                                 In  segment BANKED_CODE, align 1, keep-with-next
   \                     ?Subroutine48:
   \   000000   F8           MOV     R0,A
   \   000001   A3           INC     DPTR
   \   000002   E0           MOVX    A,@DPTR
   \   000003   12....       LCALL   ?Subroutine51 & 0xFFFF
   \                     ??CrossCallReturnLabel_108:
   \   000006   E0           MOVX    A,@DPTR
   \   000007   22           RET

   \                                 In  segment BANKED_CODE, align 1, keep-with-next
   \                     ?Subroutine23:
   \   000000   12....       LCALL   ?Subroutine44 & 0xFFFF
   \                     ??CrossCallReturnLabel_77:
   \   000003   22           RET

   \                                 In  segment BANKED_CODE, align 1, keep-with-next
   \                     ?Subroutine44:
   \   000000   E0           MOVX    A,@DPTR
   \   000001   FA           MOV     R2,A
   \   000002   A3           INC     DPTR
   \   000003   E0           MOVX    A,@DPTR
   \   000004   FB           MOV     R3,A
   \   000005   12....       LCALL   ?Subroutine52 & 0xFFFF
   \                     ??CrossCallReturnLabel_100:
   \   000008   E0           MOVX    A,@DPTR
   \   000009   F9           MOV     R1,A
   \   00000A   22           RET

   \                                 In  segment BANKED_CODE, align 1, keep-with-next
   \                     ?Subroutine22:
   \   000000   12....       LCALL   ?Subroutine45 & 0xFFFF
   \                     ??CrossCallReturnLabel_80:
   \   000003   A3           INC     DPTR
   \   000004   A3           INC     DPTR
   \   000005   12....       LCALL   ?Subroutine46 & 0xFFFF
   \                     ??CrossCallReturnLabel_142:
   \   000008   7407         MOV     A,#0x7
   \   00000A   22           RET

   \                                 In  segment BANKED_CODE, align 1, keep-with-next
   \                     ?Subroutine45:
   \   000000   E0           MOVX    A,@DPTR
   \   000001   F8           MOV     R0,A
   \   000002   A3           INC     DPTR
   \   000003   E0           MOVX    A,@DPTR
   \   000004   F583         MOV     DPH,A
   \   000006   8882         MOV     DPL,R0
   \   000008   22           RET

   \                                 In  segment BANKED_CODE, align 1, keep-with-next
   \                     ?Subroutine20:
   \   000000   E0           MOVX    A,@DPTR
   \   000001   2414         ADD     A,#0x14
   \   000003   12....       LCALL   ?Subroutine48 & 0xFFFF
   \                     ??CrossCallReturnLabel_104:
   \   000006   F9           MOV     R1,A
   \   000007   12....       LCALL   ??zcl_SendDefaultRspCmd?relay
   \   00000A   7407         MOV     A,#0x7
   \   00000C   22           RET

   \                                 In  segment BANKED_CODE, align 1, keep-with-next
   \                     ?Subroutine19:
   \   000000   8E82         MOV     DPL,R6
   \   000002   8F83         MOV     DPH,R7
   \   000004   A3           INC     DPTR
   \   000005   A3           INC     DPTR
   \   000006   A3           INC     DPTR
   \   000007   A3           INC     DPTR
   \   000008   12....       LCALL   ?Subroutine44 & 0xFFFF
   \                     ??CrossCallReturnLabel_76:
   \   00000B   12....       LCALL   ??zclSetSecurityOption?relay
   \   00000E   22           RET

   \                                 In  segment BANKED_CODE, align 1, keep-with-next
   \                     ?Subroutine18:
   \   000000   E0           MOVX    A,@DPTR
   \   000001   F5..         MOV     ?V0 + 0,A
   \   000003   75..00       MOV     ?V0 + 1,#0x0
   \   000006   7402         MOV     A,#0x2
   \   000008   78..         MOV     R0,#?V0 + 0
   \   00000A   22           RET

   \                                 In  segment BANKED_CODE, align 1, keep-with-next
   \                     ?Subroutine15:
   \   000000   E8           MOV     A,R0
   \   000001                REQUIRE ??Subroutine58_0
   \   000001                ; // Fall through to label ??Subroutine58_0

   \                                 In  segment BANKED_CODE, align 1, keep-with-next
   \                     ??Subroutine58_0:
   \   000000   F0           MOVX    @DPTR,A
   \   000001   A3           INC     DPTR
   \   000002   E9           MOV     A,R1
   \   000003   F0           MOVX    @DPTR,A
   \   000004   22           RET

   \                                 In  segment BANKED_CODE, align 1, keep-with-next
   \                     ?Subroutine51:
   \   000000   3400         ADDC    A,#0x0
   \   000002   F9           MOV     R1,A
   \   000003   8882         MOV     DPL,R0
   \   000005   8983         MOV     DPH,R1
   \   000007   22           RET

   \                                 In  segment BANKED_CODE, align 1, keep-with-next
   \                     ?Subroutine17:
   \   000000   85..82       MOV     DPL,?XSP + 0
   \   000003   85..83       MOV     DPH,?XSP + 1
   \   000006   12....       LCALL   ?Subroutine45 & 0xFFFF
   \                     ??CrossCallReturnLabel_79:
   \   000009                REQUIRE ??Subroutine60_0
   \   000009                ; // Fall through to label ??Subroutine60_0

   \                                 In  segment BANKED_CODE, align 1, keep-with-next
   \                     ?Subroutine46:
   \   000000   A3           INC     DPTR
   \   000001   A3           INC     DPTR
   \   000002                REQUIRE ??Subroutine64_0
   \   000002                ; // Fall through to label ??Subroutine64_0
   1715          
   1716          /*********************************************************************
   1717           * @fn      zclParseHdr
   1718           *
   1719           * @brief   Parse header of the ZCL format
   1720           *
   1721           * @param   hdr - place to put the frame control information
   1722           * @param   pData - incoming buffer to parse
   1723           *
   1724           * @return  pointer past the header
   1725           */

   \                                 In  segment BANKED_CODE, align 1, keep-with-next
   1726          uint8 *zclParseHdr( zclFrameHdr_t *hdr, uint8 *pData )
   \                     zclParseHdr:
   1727          {
   \   000000   74F4         MOV     A,#-0xc
   \   000002   12....       LCALL   ?BANKED_ENTER_XDATA
   \   000005                ; Saved register size: 12
   \   000005                ; Auto size: 0
   \   000005   8A..         MOV     ?V0 + 0,R2
   \   000007   8B..         MOV     ?V0 + 1,R3
   \   000009   EC           MOV     A,R4
   \   00000A   FE           MOV     R6,A
   \   00000B   ED           MOV     A,R5
   \   00000C   FF           MOV     R7,A
   1728            // Clear the header
   1729            osal_memset( (uint8 *)hdr, 0, sizeof ( zclFrameHdr_t ) );
   \   00000D                ; Setup parameters for call to function osal_memset
   \   00000D   7C06         MOV     R4,#0x6
   \   00000F   7D00         MOV     R5,#0x0
   \   000011   7900         MOV     R1,#0x0
   \   000013   12....       LCALL   ??osal_memset?relay
   1730          
   1731            // Parse the Frame Control
   1732            hdr->fc.type = zcl_FCType( *pData );
   \   000016   85..82       MOV     DPL,?V0 + 0
   \   000019   85..83       MOV     DPH,?V0 + 1
   \   00001C   E0           MOVX    A,@DPTR
   \   00001D   54FC         ANL     A,#0xfc
   \   00001F   F8           MOV     R0,A
   \   000020   A3           INC     DPTR
   \   000021   E0           MOVX    A,@DPTR
   \   000022   F9           MOV     R1,A
   \   000023   8E82         MOV     DPL,R6
   \   000025   8F83         MOV     DPH,R7
   \   000027   E0           MOVX    A,@DPTR
   \   000028   5403         ANL     A,#0x3
   \   00002A   FA           MOV     R2,A
   \   00002B   E8           MOV     A,R0
   \   00002C   4A           ORL     A,R2
   \   00002D   85..82       MOV     DPL,?V0 + 0
   \   000030   85..83       MOV     DPH,?V0 + 1
   \   000033   12....       LCALL   ?Subroutine6 & 0xFFFF
   1733            hdr->fc.manuSpecific = zcl_FCManuSpecific( *pData ) ? 1 : 0;
   \                     ??CrossCallReturnLabel_2:
   \   000036   A2E2         MOV     C,0xE0 /* A   */.2
   \   000038   5004         JNC     ??zclParseHdr_0
   \   00003A   D2F0         SETB    B.0
   \   00003C   8002         SJMP    ??zclParseHdr_1
   \                     ??zclParseHdr_0:
   \   00003E   C2F0         CLR     B.0
   \                     ??zclParseHdr_1:
   \   000040   85..82       MOV     DPL,?V0 + 0
   \   000043   85..83       MOV     DPH,?V0 + 1
   \   000046   E0           MOVX    A,@DPTR
   \   000047   54FB         ANL     A,#0xfb
   \   000049   FA           MOV     R2,A
   \   00004A   A2F0         MOV     C,B.0
   \   00004C   E4           CLR     A
   \   00004D   33           RLC     A
   \   00004E   F5..         MOV     ?V0 + 2,A
   \   000050   75..00       MOV     ?V0 + 3,#0x0
   \   000053   7402         MOV     A,#0x2
   \   000055   78..         MOV     R0,#?V0 + 2
   \   000057   12....       LCALL   ?S_SHL
   \   00005A   EA           MOV     A,R2
   \   00005B   45..         ORL     A,?V0 + 2
   \   00005D   12....       LCALL   ?Subroutine6 & 0xFFFF
   1734            if ( zcl_FCDirection( *pData ) )
   \                     ??CrossCallReturnLabel_3:
   \   000060   A2E3         MOV     C,0xE0 /* A   */.3
   \   000062   85..82       MOV     DPL,?V0 + 0
   \   000065   85..83       MOV     DPH,?V0 + 1
   \   000068   E0           MOVX    A,@DPTR
   \   000069   5004         JNC     ??zclParseHdr_2
   1735            {
   1736              hdr->fc.direction = ZCL_FRAME_SERVER_CLIENT_DIR;
   \   00006B   4408         ORL     A,#0x8
   \   00006D   8002         SJMP    ??zclParseHdr_3
   1737            }
   1738            else
   1739            {
   1740              hdr->fc.direction = ZCL_FRAME_CLIENT_SERVER_DIR;
   \                     ??zclParseHdr_2:
   \   00006F   54F7         ANL     A,#0xf7
   1741            }
   \                     ??zclParseHdr_3:
   \   000071   12....       LCALL   ?Subroutine43 & 0xFFFF
   1742          
   1743            hdr->fc.disableDefaultRsp = zcl_FCDisableDefaultRsp( *pData ) ? 1 : 0;
   \                     ??CrossCallReturnLabel_72:
   \   000074   E0           MOVX    A,@DPTR
   \   000075   A2E4         MOV     C,0xE0 /* A   */.4
   \   000077   5004         JNC     ??zclParseHdr_4
   \   000079   D2F0         SETB    B.0
   \   00007B   8002         SJMP    ??zclParseHdr_5
   \                     ??zclParseHdr_4:
   \   00007D   C2F0         CLR     B.0
   \                     ??zclParseHdr_5:
   \   00007F   85..82       MOV     DPL,?V0 + 0
   \   000082   85..83       MOV     DPH,?V0 + 1
   \   000085   E0           MOVX    A,@DPTR
   \   000086   54EF         ANL     A,#0xef
   \   000088   FA           MOV     R2,A
   \   000089   A3           INC     DPTR
   \   00008A   E0           MOVX    A,@DPTR
   \   00008B   FB           MOV     R3,A
   \   00008C   A2F0         MOV     C,B.0
   \   00008E   E4           CLR     A
   \   00008F   33           RLC     A
   \   000090   F5..         MOV     ?V0 + 2,A
   \   000092   7404         MOV     A,#0x4
   \   000094   78..         MOV     R0,#?V0 + 2
   \   000096   12....       LCALL   ?S_SHL
   \   000099   EA           MOV     A,R2
   \   00009A   45..         ORL     A,?V0 + 2
   \   00009C   F8           MOV     R0,A
   \   00009D   EB           MOV     A,R3
   \   00009E   F9           MOV     R1,A
   \   00009F   85..82       MOV     DPL,?V0 + 0
   \   0000A2   85..83       MOV     DPH,?V0 + 1
   \   0000A5   E8           MOV     A,R0
   \   0000A6   F0           MOVX    @DPTR,A
   \   0000A7   A3           INC     DPTR
   \   0000A8   E9           MOV     A,R1
   \   0000A9   12....       LCALL   ?Subroutine11 & 0xFFFF
   1744            pData++;  // move past the frame control field
   1745          
   1746            // parse the manfacturer code
   1747            if ( hdr->fc.manuSpecific )
   \                     ??CrossCallReturnLabel_11:
   \   0000AC   E8           MOV     A,R0
   \   0000AD   5404         ANL     A,#0x4
   \   0000AF   601A         JZ      ??zclParseHdr_6
   1748            {
   1749              hdr->manuCode = BUILD_UINT16( pData[0], pData[1] );
   \   0000B1   E0           MOVX    A,@DPTR
   \   0000B2   FA           MOV     R2,A
   \   0000B3   A3           INC     DPTR
   \   0000B4   E0           MOVX    A,@DPTR
   \   0000B5   F9           MOV     R1,A
   \   0000B6   EA           MOV     A,R2
   \   0000B7   85..82       MOV     DPL,?V0 + 0
   \   0000BA   85..83       MOV     DPH,?V0 + 1
   \   0000BD   A3           INC     DPTR
   \   0000BE   A3           INC     DPTR
   \   0000BF   12....       LCALL   ??Subroutine58_0 & 0xFFFF
   1750              pData += 2;
   \                     ??CrossCallReturnLabel_109:
   \   0000C2   EE           MOV     A,R6
   \   0000C3   2402         ADD     A,#0x2
   \   0000C5   0E           INC     R6
   \   0000C6   0E           INC     R6
   \   0000C7   EF           MOV     A,R7
   \   0000C8   3400         ADDC    A,#0x0
   \   0000CA   FF           MOV     R7,A
   1751            }
   1752          
   1753            // parse the Transaction Sequence Number
   1754            hdr->transSeqNum = *pData++;
   \                     ??zclParseHdr_6:
   \   0000CB   8E82         MOV     DPL,R6
   \   0000CD   8F83         MOV     DPH,R7
   \   0000CF   12....       LCALL   ?Subroutine30 & 0xFFFF
   \                     ??CrossCallReturnLabel_50:
   \   0000D2   12....       LCALL   ?Subroutine11 & 0xFFFF
   1755          
   1756            // parse the Cluster's command ID
   1757            hdr->commandID = *pData++;
   \                     ??CrossCallReturnLabel_12:
   \   0000D5   12....       LCALL   ?Subroutine30 & 0xFFFF
   \                     ??CrossCallReturnLabel_51:
   \   0000D8   A3           INC     DPTR
   \   0000D9   12....       LCALL   ?Subroutine13 & 0xFFFF
   1758          
   1759            // Should point to the frame payload
   1760            return ( pData );
   \                     ??CrossCallReturnLabel_17:
   \   0000DC   AA82         MOV     R2,DPL
   \   0000DE   AB83         MOV     R3,DPH
   \   0000E0   02....       LJMP    ?Subroutine1 & 0xFFFF
   1761          }

   \                                 In  segment BANKED_CODE, align 1, keep-with-next
   \                     ?Subroutine30:
   \   000000   E0           MOVX    A,@DPTR
   \   000001   85..82       MOV     DPL,?V0 + 0
   \   000004   85..83       MOV     DPH,?V0 + 1
   \   000007   A3           INC     DPTR
   \   000008   A3           INC     DPTR
   \   000009   A3           INC     DPTR
   \   00000A   A3           INC     DPTR
   \   00000B   22           RET

   \                                 In  segment BANKED_CODE, align 1, keep-with-next
   \                     ?Subroutine11:
   \   000000   12....       LCALL   ?Subroutine43 & 0xFFFF
   \                     ??CrossCallReturnLabel_73:
   \   000003   A3           INC     DPTR
   \   000004   AE82         MOV     R6,DPL
   \   000006   AF83         MOV     R7,DPH
   \   000008   22           RET

   \                                 In  segment BANKED_CODE, align 1, keep-with-next
   \                     ?Subroutine13:
   \   000000   12....       LCALL   ?Subroutine43 & 0xFFFF
   \                     ??CrossCallReturnLabel_74:
   \   000003   A3           INC     DPTR
   \   000004   22           RET

   \                                 In  segment BANKED_CODE, align 1, keep-with-next
   \                     ?Subroutine43:
   \   000000   F0           MOVX    @DPTR,A
   \   000001   8E82         MOV     DPL,R6
   \   000003   8F83         MOV     DPH,R7
   \   000005   22           RET

   \                                 In  segment BANKED_CODE, align 1, keep-with-next
   \                     ?Subroutine6:
   \   000000   F0           MOVX    @DPTR,A
   \   000001   A3           INC     DPTR
   \   000002   E9           MOV     A,R1
   \   000003   12....       LCALL   ?Subroutine43 & 0xFFFF
   \                     ??CrossCallReturnLabel_75:
   \   000006   E0           MOVX    A,@DPTR
   \   000007   22           RET
   1762          
   1763          /*********************************************************************
   1764           * @fn      zclBuildHdr
   1765           *
   1766           * @brief   Build header of the ZCL format
   1767           *
   1768           * @param   hdr - outgoing header information
   1769           * @param   pData - outgoing header space
   1770           *
   1771           * @return  pointer past the header
   1772           */

   \                                 In  segment BANKED_CODE, align 1, keep-with-next
   1773          static uint8 *zclBuildHdr( zclFrameHdr_t *hdr, uint8 *pData )
   \                     zclBuildHdr:
   1774          {
   \   000000   74F7         MOV     A,#-0x9
   \   000002   12....       LCALL   ?BANKED_ENTER_XDATA
   \   000005                ; Saved register size: 9
   \   000005                ; Auto size: 0
   1775            // Build the Frame Control byte
   1776            *pData = hdr->fc.type;
   \   000005   8A82         MOV     DPL,R2
   \   000007   8B83         MOV     DPH,R3
   \   000009   E0           MOVX    A,@DPTR
   \   00000A   5403         ANL     A,#0x3
   \   00000C   8C82         MOV     DPL,R4
   \   00000E   8D83         MOV     DPH,R5
   \   000010   12....       LCALL   ??Subroutine59_0 & 0xFFFF
   1777            *pData |= hdr->fc.manuSpecific << 2;
   \                     ??CrossCallReturnLabel_117:
   \   000013   5404         ANL     A,#0x4
   \   000015   12....       LCALL   ?Subroutine14 & 0xFFFF
   1778            *pData |= hdr->fc.direction << 3;
   \                     ??CrossCallReturnLabel_115:
   \   000018   5408         ANL     A,#0x8
   \   00001A   12....       LCALL   ?Subroutine14 & 0xFFFF
   1779            *pData |= hdr->fc.disableDefaultRsp << 4;
   \                     ??CrossCallReturnLabel_116:
   \   00001D   5410         ANL     A,#0x10
   \   00001F   F8           MOV     R0,A
   \   000020   8C82         MOV     DPL,R4
   \   000022   8D83         MOV     DPH,R5
   \   000024   E0           MOVX    A,@DPTR
   \   000025   48           ORL     A,R0
   \   000026   12....       LCALL   ?Subroutine9 & 0xFFFF
   1780            pData++;  // move past the frame control field
   1781          
   1782            // Add the manfacturer code
   1783            if ( hdr->fc.manuSpecific )
   \                     ??CrossCallReturnLabel_7:
   \   000029   E0           MOVX    A,@DPTR
   \   00002A   5404         ANL     A,#0x4
   \   00002C   6013         JZ      ??CrossCallReturnLabel_53
   1784            {
   1785              *pData++ = LO_UINT16( hdr->manuCode );
   \   00002E   EA           MOV     A,R2
   \   00002F   2402         ADD     A,#0x2
   \   000031   F8           MOV     R0,A
   \   000032   EB           MOV     A,R3
   \   000033   12....       LCALL   ?Subroutine51 & 0xFFFF
   \                     ??CrossCallReturnLabel_106:
   \   000036   12....       LCALL   ?Subroutine32 & 0xFFFF
   1786              *pData++ = HI_UINT16( hdr->manuCode );
   \                     ??CrossCallReturnLabel_52:
   \   000039   8882         MOV     DPL,R0
   \   00003B   8983         MOV     DPH,R1
   \   00003D   A3           INC     DPTR
   \   00003E   12....       LCALL   ?Subroutine32 & 0xFFFF
   1787            }
   1788          
   1789            // Add the Transaction Sequence Number
   1790            *pData++ = hdr->transSeqNum;
   \                     ??CrossCallReturnLabel_53:
   \   000041   8A82         MOV     DPL,R2
   \   000043   8B83         MOV     DPH,R3
   \   000045   A3           INC     DPTR
   \   000046   A3           INC     DPTR
   \   000047   A3           INC     DPTR
   \   000048   A3           INC     DPTR
   \   000049   E0           MOVX    A,@DPTR
   \   00004A   8C82         MOV     DPL,R4
   \   00004C   8D83         MOV     DPH,R5
   \   00004E   12....       LCALL   ?Subroutine9 & 0xFFFF
   1791          
   1792            // Add the Cluster's command ID
   1793            *pData++ = hdr->commandID;
   \                     ??CrossCallReturnLabel_8:
   \   000051   A3           INC     DPTR
   \   000052   A3           INC     DPTR
   \   000053   A3           INC     DPTR
   \   000054   A3           INC     DPTR
   \   000055   A3           INC     DPTR
   \   000056   E0           MOVX    A,@DPTR
   \   000057   8C82         MOV     DPL,R4
   \   000059   8D83         MOV     DPH,R5
   \   00005B   F0           MOVX    @DPTR,A
   \   00005C   A3           INC     DPTR
   1794          
   1795            // Should point to the frame payload
   1796            return ( pData );
   \   00005D   AA82         MOV     R2,DPL
   \   00005F   AB83         MOV     R3,DPH
   \   000061                REQUIRE ?Subroutine3
   \   000061                ; // Fall through to label ?Subroutine3
   1797          }

   \                                 In  segment BANKED_CODE, align 1, keep-with-next
   \                     ?Subroutine3:
   \   000000   7F01         MOV     R7,#0x1
   \   000002   02....       LJMP    ?BANKED_LEAVE_XDATA

   \                                 In  segment BANKED_CODE, align 1, keep-with-next
   \                     ?Subroutine32:
   \   000000   E0           MOVX    A,@DPTR
   \   000001   8C82         MOV     DPL,R4
   \   000003   8D83         MOV     DPH,R5
   \   000005   F0           MOVX    @DPTR,A
   \   000006   A3           INC     DPTR
   \   000007   0C           INC     R4
   \   000008   AD83         MOV     R5,DPH
   \   00000A   22           RET

   \                                 In  segment BANKED_CODE, align 1, keep-with-next
   \                     ?Subroutine14:
   \   000000   F8           MOV     R0,A
   \   000001   8C82         MOV     DPL,R4
   \   000003   8D83         MOV     DPH,R5
   \   000005   E0           MOVX    A,@DPTR
   \   000006   48           ORL     A,R0
   \   000007                REQUIRE ??Subroutine59_0
   \   000007                ; // Fall through to label ??Subroutine59_0

   \                                 In  segment BANKED_CODE, align 1, keep-with-next
   \                     ??Subroutine59_0:
   \   000000   F0           MOVX    @DPTR,A
   \   000001   8A82         MOV     DPL,R2
   \   000003   8B83         MOV     DPH,R3
   \   000005   E0           MOVX    A,@DPTR
   \   000006   22           RET

   \                                 In  segment BANKED_CODE, align 1, keep-with-next
   \                     ?Subroutine9:
   \   000000   F0           MOVX    @DPTR,A
   \   000001   A3           INC     DPTR
   \   000002   AC82         MOV     R4,DPL
   \   000004   AD83         MOV     R5,DPH
   \   000006   8A82         MOV     DPL,R2
   \   000008   8B83         MOV     DPH,R3
   \   00000A   22           RET
   1798          
   1799          /*********************************************************************
   1800           * @fn      zclCalcHdrSize
   1801           *
   1802           * @brief   Calculate the number of bytes needed for an outgoing
   1803           *          ZCL header.
   1804           *
   1805           * @param   hdr - outgoing header information
   1806           *
   1807           * @return  returns the number of bytes needed
   1808           */
   1809          static uint8 zclCalcHdrSize( zclFrameHdr_t *hdr )
   1810          {
   1811            uint8 needed = (1 + 1 + 1); // frame control + transaction seq num + cmd ID
   1812          
   1813            // Add the manfacturer code
   1814            if ( hdr->fc.manuSpecific )
   1815            {
   1816              needed += 2;
   1817            }
   1818          
   1819            return ( needed );
   1820          }
   1821          
   1822          /*********************************************************************
   1823           * @fn      zclFindPlugin
   1824           *
   1825           * @brief   Find the right plugin for a cluster ID
   1826           *
   1827           * @param   clusterID - cluster ID to look for
   1828           * @param   profileID - profile ID
   1829           *
   1830           * @return  pointer to plugin, NULL if not found
   1831           */
   1832          static zclLibPlugin_t *zclFindPlugin( uint16 clusterID, uint16 profileID )
   1833          {
   1834            (void)profileID;  // Intentionally unreferenced parameter
   1835          
   1836            zclLibPlugin_t *pLoop = plugins;
   1837          
   1838            while ( pLoop != NULL )
   1839            {
   1840              if ( ( clusterID >= pLoop->startClusterID ) && ( clusterID <= pLoop->endClusterID ) )
   1841              {
   1842                return ( pLoop );
   1843              }
   1844          
   1845              pLoop = pLoop->next;
   1846            }
   1847          
   1848            return ( (zclLibPlugin_t *)NULL );
   1849          }
   1850          
   1851          /*********************************************************************
   1852           * @fn      zclFindAttrRecsList
   1853           *
   1854           * @brief   Find the right attribute record list for an endpoint
   1855           *
   1856           * @param   clusterID - endpointto look for
   1857           *
   1858           * @return  pointer to record list, NULL if not found
   1859           */

   \                                 In  segment BANKED_CODE, align 1, keep-with-next
   1860          static zclAttrRecsList *zclFindAttrRecsList( uint8 endpoint )
   \                     zclFindAttrRecsList:
   1861          {
   \   000000   C082         PUSH    DPL
   \   000002   C083         PUSH    DPH
   \   000004                ; Saved register size: 2
   \   000004                ; Auto size: 0
   1862            zclAttrRecsList *pLoop = attrList;
   \   000004   90....       MOV     DPTR,#attrList
   \   000007   8004         SJMP    ??zclFindAttrRecsList_0
   1863          
   1864            while ( pLoop != NULL )
   1865            {
   1866              if ( pLoop->endpoint == endpoint )
   1867              {
   1868                return ( pLoop );
   1869              }
   1870          
   1871              pLoop = pLoop->next;
   \                     ??zclFindAttrRecsList_1:
   \   000009   8A82         MOV     DPL,R2
   \   00000B   8B83         MOV     DPH,R3
   \                     ??zclFindAttrRecsList_0:
   \   00000D   12....       LCALL   ?Subroutine21 & 0xFFFF
   \                     ??CrossCallReturnLabel_30:
   \   000010   600C         JZ      ??zclFindAttrRecsList_2
   \   000012   8A82         MOV     DPL,R2
   \   000014   8B83         MOV     DPH,R3
   \   000016   A3           INC     DPTR
   \   000017   A3           INC     DPTR
   \   000018   E0           MOVX    A,@DPTR
   \   000019   69           XRL     A,R1
   \   00001A   70ED         JNZ     ??zclFindAttrRecsList_1
   \   00001C   8004         SJMP    ??zclFindAttrRecsList_3
   1872            }
   1873          
   1874            return ( NULL );
   \                     ??zclFindAttrRecsList_2:
   \   00001E   7A00         MOV     R2,#0x0
   \   000020   7B00         MOV     R3,#0x0
   \                     ??zclFindAttrRecsList_3:
   \   000022   02....       LJMP    ?Subroutine0 & 0xFFFF
   1875          }
   1876          
   1877          /*********************************************************************
   1878           * @fn      zclFindAttrRec
   1879           *
   1880           * @brief   Find the attribute record that matchs the parameters
   1881           *
   1882           * @param   endpoint - Application's endpoint
   1883           * @param   clusterID - cluster ID
   1884           * @param   attrId - attribute looking for
   1885           * @param   pAttr - attribute record to be returned
   1886           *
   1887           * @return  TRUE if record found. FALSE, otherwise.
   1888           */

   \                                 In  segment BANKED_CODE, align 1, keep-with-next
   1889          uint8 zclFindAttrRec( uint8 endpoint, uint16 clusterID, uint16 attrId, zclAttrRec_t *pAttr )
   \                     zclFindAttrRec:
   1890          {
   \   000000   74EE         MOV     A,#-0x12
   \   000002   12....       LCALL   ?BANKED_ENTER_XDATA
   \   000005                ; Saved register size: 18
   \   000005                ; Auto size: 0
   \   000005   8A..         MOV     ?V0 + 2,R2
   \   000007   8B..         MOV     ?V0 + 3,R3
   \   000009   8C..         MOV     ?V0 + 0,R4
   \   00000B   8D..         MOV     ?V0 + 1,R5
   \   00000D   7412         MOV     A,#0x12
   \   00000F   12....       LCALL   ?XSTACK_DISP0_8
   \   000012   E0           MOVX    A,@DPTR
   \   000013   FE           MOV     R6,A
   \   000014   A3           INC     DPTR
   \   000015   E0           MOVX    A,@DPTR
   \   000016   FF           MOV     R7,A
   1891            uint8 x;
   1892            zclAttrRecsList *pRec = zclFindAttrRecsList( endpoint );
   \   000017                ; Setup parameters for call to function zclFindAttrRecsList
   \   000017   12....       LCALL   ??zclFindAttrRecsList?relay
   1893          
   1894            if ( pRec != NULL )
   \   00001A   EA           MOV     A,R2
   \   00001B   4B           ORL     A,R3
   \   00001C   7003         JNZ     $+5
   \   00001E   02....       LJMP    ??zclFindAttrRec_0 & 0xFFFF
   1895            {
   1896              for ( x = 0; x < pRec->numAttributes; x++ )
   \   000021   75..00       MOV     ?V0 + 6,#0x0
   \   000024   8002         SJMP    ??zclFindAttrRec_1
   \                     ??zclFindAttrRec_2:
   \   000026   05..         INC     ?V0 + 6
   \                     ??zclFindAttrRec_1:
   \   000028   8A82         MOV     DPL,R2
   \   00002A   8B83         MOV     DPH,R3
   \   00002C   A3           INC     DPTR
   \   00002D   A3           INC     DPTR
   \   00002E   A3           INC     DPTR
   \   00002F   A3           INC     DPTR
   \   000030   A3           INC     DPTR
   \   000031   A3           INC     DPTR
   \   000032   A3           INC     DPTR
   \   000033   E0           MOVX    A,@DPTR
   \   000034   F8           MOV     R0,A
   \   000035   E5..         MOV     A,?V0 + 6
   \   000037   C3           CLR     C
   \   000038   98           SUBB    A,R0
   \   000039   5073         JNC     ??zclFindAttrRec_0
   1897              {
   1898                if ( pRec->attrs[x].clusterID == clusterID && pRec->attrs[x].attr.attrId == attrId )
   \   00003B   85....       MOV     ?V0 + 8,?V0 + 6
   \   00003E   75..00       MOV     ?V0 + 9,#0x0
   \   000041   7403         MOV     A,#0x3
   \   000043   78..         MOV     R0,#?V0 + 8
   \   000045   12....       LCALL   ?S_SHL
   \   000048   12....       LCALL   ?Subroutine27 & 0xFFFF
   \                     ??CrossCallReturnLabel_41:
   \   00004B   E4           CLR     A
   \   00004C   93           MOVC    A,@A+DPTR
   \   00004D   F8           MOV     R0,A
   \   00004E   7401         MOV     A,#0x1
   \   000050   93           MOVC    A,@A+DPTR
   \   000051   F9           MOV     R1,A
   \   000052   E5..         MOV     A,?V0 + 2
   \   000054   68           XRL     A,R0
   \   000055   7003         JNZ     ??zclFindAttrRec_3
   \   000057   E5..         MOV     A,?V0 + 3
   \   000059   69           XRL     A,R1
   \                     ??zclFindAttrRec_3:
   \   00005A   70CA         JNZ     ??zclFindAttrRec_2
   \   00005C   85....       MOV     ?V0 + 8,?V0 + 6
   \   00005F   75..00       MOV     ?V0 + 9,#0x0
   \   000062   7403         MOV     A,#0x3
   \   000064   78..         MOV     R0,#?V0 + 8
   \   000066   12....       LCALL   ?S_SHL
   \   000069   12....       LCALL   ?Subroutine27 & 0xFFFF
   \                     ??CrossCallReturnLabel_42:
   \   00006C   A3           INC     DPTR
   \   00006D   A3           INC     DPTR
   \   00006E   E4           CLR     A
   \   00006F   93           MOVC    A,@A+DPTR
   \   000070   F8           MOV     R0,A
   \   000071   7401         MOV     A,#0x1
   \   000073   93           MOVC    A,@A+DPTR
   \   000074   F9           MOV     R1,A
   \   000075   E5..         MOV     A,?V0 + 0
   \   000077   68           XRL     A,R0
   \   000078   7003         JNZ     ??zclFindAttrRec_4
   \   00007A   E5..         MOV     A,?V0 + 1
   \   00007C   69           XRL     A,R1
   \                     ??zclFindAttrRec_4:
   \   00007D   70A7         JNZ     ??zclFindAttrRec_2
   1899                {
   1900                  *pAttr = pRec->attrs[x];
   \   00007F   75..00       MOV     ?V0 + 7,#0x0
   \   000082   7403         MOV     A,#0x3
   \   000084   78..         MOV     R0,#?V0 + 6
   \   000086   12....       LCALL   ?S_SHL
   \   000089   8A82         MOV     DPL,R2
   \   00008B   8B83         MOV     DPH,R3
   \   00008D   A3           INC     DPTR
   \   00008E   A3           INC     DPTR
   \   00008F   A3           INC     DPTR
   \   000090   A3           INC     DPTR
   \   000091   A3           INC     DPTR
   \   000092   A3           INC     DPTR
   \   000093   A3           INC     DPTR
   \   000094   A3           INC     DPTR
   \   000095   E0           MOVX    A,@DPTR
   \   000096   25..         ADD     A,?V0 + 6
   \   000098   F8           MOV     R0,A
   \   000099   A3           INC     DPTR
   \   00009A   E0           MOVX    A,@DPTR
   \   00009B   35..         ADDC    A,?V0 + 7
   \   00009D   8882         MOV     DPL,R0
   \   00009F   F583         MOV     DPH,A
   \   0000A1   EE           MOV     A,R6
   \   0000A2   FC           MOV     R4,A
   \   0000A3   EF           MOV     A,R7
   \   0000A4   FD           MOV     R5,A
   \   0000A5   7408         MOV     A,#0x8
   \   0000A7   12....       LCALL   ?MOVE_LONG8_XDATA_CODE
   1901          
   1902                  return ( TRUE ); // EMBEDDED RETURN
   \   0000AA   7901         MOV     R1,#0x1
   \   0000AC   8002         SJMP    ??zclFindAttrRec_5
   1903                }
   1904              }
   1905            }
   1906          
   1907            return ( FALSE );
   \                     ??zclFindAttrRec_0:
   \   0000AE   7900         MOV     R1,#0x0
   \                     ??zclFindAttrRec_5:
   \   0000B0   7F0A         MOV     R7,#0xa
   \   0000B2   02....       LJMP    ?BANKED_LEAVE_XDATA
   1908          }

   \                                 In  segment BANKED_CODE, align 1, keep-with-next
   \                     ?Subroutine27:
   \   000000   8A82         MOV     DPL,R2
   \   000002   8B83         MOV     DPH,R3
   \   000004   A3           INC     DPTR
   \   000005   A3           INC     DPTR
   \   000006   A3           INC     DPTR
   \   000007   A3           INC     DPTR
   \   000008   A3           INC     DPTR
   \   000009   A3           INC     DPTR
   \   00000A   A3           INC     DPTR
   \   00000B   A3           INC     DPTR
   \   00000C   E0           MOVX    A,@DPTR
   \   00000D   25..         ADD     A,?V0 + 8
   \   00000F   F8           MOV     R0,A
   \   000010   A3           INC     DPTR
   \   000011   E0           MOVX    A,@DPTR
   \   000012   35..         ADDC    A,?V0 + 9
   \   000014   8882         MOV     DPL,R0
   \   000016   F583         MOV     DPH,A
   \   000018   22           RET
   1909          
   1910          #if defined ( ZCL_READ ) || defined ( ZCL_WRITE )
   1911          /*********************************************************************
   1912           * @fn      zclGetReadWriteCB
   1913           *
   1914           * @brief   Get the Read/Write callback function pointer for a given endpoint.
   1915           *
   1916           * @param   endpoint - Application's endpoint
   1917           *
   1918           * @return  Read/Write CB, NULL if not found
   1919           */
   1920          static zclReadWriteCB_t zclGetReadWriteCB( uint8 endpoint )
   1921          {
   1922            zclAttrRecsList *pRec = zclFindAttrRecsList( endpoint );
   1923          
   1924            if ( pRec != NULL )
   1925            {
   1926              return ( pRec->pfnReadWriteCB );
   1927            }
   1928          
   1929            return ( NULL );
   1930          }
   1931          
   1932          /*********************************************************************
   1933           * @fn      zclGetAuthorizeCB
   1934           *
   1935           * @brief   Get the Read/Write Authorization callback function pointer
   1936           *          for a given endpoint.
   1937           *
   1938           * @param   endpoint - Application's endpoint
   1939           *
   1940           * @return  Authorization CB, NULL if not found
   1941           */
   1942          static zclAuthorizeCB_t zclGetAuthorizeCB( uint8 endpoint )
   1943          {
   1944            zclAttrRecsList *pRec = zclFindAttrRecsList( endpoint );
   1945          
   1946            if ( pRec != NULL )
   1947            {
   1948              return ( pRec->pfnAuthorizeCB );
   1949            }
   1950          
   1951            return ( NULL );
   1952          }
   1953          #endif // ZCL_READ || ZCL_WRITE
   1954          
   1955          /*********************************************************************
   1956           * @fn      zclFindClusterOption
   1957           *
   1958           * @brief   Find the option record that matchs the cluster id
   1959           *
   1960           * @param   endpoint - Application's endpoint
   1961           * @param   clusterID - cluster ID looking for
   1962           *
   1963           * @return  pointer to clutser option, NULL if not found
   1964           */

   \                                 In  segment BANKED_CODE, align 1, keep-with-next
   1965          static zclOptionRec_t *zclFindClusterOption( uint8 endpoint, uint16 clusterID )
   \                     zclFindClusterOption:
   1966          {
   \   000000   74F7         MOV     A,#-0x9
   \   000002   12....       LCALL   ?BANKED_ENTER_XDATA
   \   000005                ; Saved register size: 9
   \   000005                ; Auto size: 0
   \   000005   E9           MOV     A,R1
   \   000006   FE           MOV     R6,A
   1967            zclClusterOptionList *pLoop;
   1968          
   1969            pLoop = clusterOptionList;
   \   000007   90....       MOV     DPTR,#clusterOptionList
   \   00000A   8004         SJMP    ??zclFindClusterOption_0
   1970            while ( pLoop != NULL )
   1971            {
   1972              if ( pLoop->endpoint == endpoint )
   1973              {
   1974                for ( uint8 x = 0; x < pLoop->numOptions; x++ )
   1975                {
   1976                  if ( pLoop->options[x].clusterID == clusterID )
   1977                  {
   1978                    return ( &(pLoop->options[x]) ); // EMBEDDED RETURN
   1979                  }
   1980                }
   1981              }
   1982          
   1983              pLoop = pLoop->next;
   \                     ??zclFindClusterOption_1:
   \   00000C   8882         MOV     DPL,R0
   \   00000E   8983         MOV     DPH,R1
   \                     ??zclFindClusterOption_0:
   \   000010   12....       LCALL   ??Subroutine61_0 & 0xFFFF
   \                     ??CrossCallReturnLabel_119:
   \   000013   605E         JZ      ??zclFindClusterOption_2
   \   000015   8882         MOV     DPL,R0
   \   000017   8983         MOV     DPH,R1
   \   000019   A3           INC     DPTR
   \   00001A   A3           INC     DPTR
   \   00001B   E0           MOVX    A,@DPTR
   \   00001C   6E           XRL     A,R6
   \   00001D   70ED         JNZ     ??zclFindClusterOption_1
   \   00001F   75..00       MOV     ?V0 + 0,#0x0
   \   000022   8002         SJMP    ??zclFindClusterOption_3
   \                     ??zclFindClusterOption_4:
   \   000024   05..         INC     ?V0 + 0
   \                     ??zclFindClusterOption_3:
   \   000026   8882         MOV     DPL,R0
   \   000028   8983         MOV     DPH,R1
   \   00002A   A3           INC     DPTR
   \   00002B   A3           INC     DPTR
   \   00002C   A3           INC     DPTR
   \   00002D   E0           MOVX    A,@DPTR
   \   00002E   FC           MOV     R4,A
   \   00002F   E5..         MOV     A,?V0 + 0
   \   000031   C3           CLR     C
   \   000032   9C           SUBB    A,R4
   \   000033   50D7         JNC     ??zclFindClusterOption_1
   \   000035   E5..         MOV     A,?V0 + 0
   \   000037   75F003       MOV     B,#0x3
   \   00003A   A4           MUL     AB
   \   00003B   FC           MOV     R4,A
   \   00003C   ADF0         MOV     R5,B
   \   00003E   8882         MOV     DPL,R0
   \   000040   8983         MOV     DPH,R1
   \   000042   A3           INC     DPTR
   \   000043   A3           INC     DPTR
   \   000044   A3           INC     DPTR
   \   000045   A3           INC     DPTR
   \   000046   E0           MOVX    A,@DPTR
   \   000047   2C           ADD     A,R4
   \   000048   FF           MOV     R7,A
   \   000049   A3           INC     DPTR
   \   00004A   E0           MOVX    A,@DPTR
   \   00004B   3D           ADDC    A,R5
   \   00004C   8F82         MOV     DPL,R7
   \   00004E   F583         MOV     DPH,A
   \   000050   E0           MOVX    A,@DPTR
   \   000051   6A           XRL     A,R2
   \   000052   7003         JNZ     ??zclFindClusterOption_5
   \   000054   A3           INC     DPTR
   \   000055   E0           MOVX    A,@DPTR
   \   000056   6B           XRL     A,R3
   \                     ??zclFindClusterOption_5:
   \   000057   70CB         JNZ     ??zclFindClusterOption_4
   \   000059   E5..         MOV     A,?V0 + 0
   \   00005B   75F003       MOV     B,#0x3
   \   00005E   A4           MUL     AB
   \   00005F   FA           MOV     R2,A
   \   000060   ABF0         MOV     R3,B
   \   000062   8882         MOV     DPL,R0
   \   000064   8983         MOV     DPH,R1
   \   000066   A3           INC     DPTR
   \   000067   A3           INC     DPTR
   \   000068   A3           INC     DPTR
   \   000069   A3           INC     DPTR
   \   00006A   E0           MOVX    A,@DPTR
   \   00006B   2A           ADD     A,R2
   \   00006C   FA           MOV     R2,A
   \   00006D   A3           INC     DPTR
   \   00006E   E0           MOVX    A,@DPTR
   \   00006F   3B           ADDC    A,R3
   \   000070   FB           MOV     R3,A
   \   000071   8004         SJMP    ??zclFindClusterOption_6
   1984            }
   1985          
   1986            return ( NULL );
   \                     ??zclFindClusterOption_2:
   \   000073   7A00         MOV     R2,#0x0
   \   000075   7B00         MOV     R3,#0x0
   \                     ??zclFindClusterOption_6:
   \   000077   02....       LJMP    ?Subroutine3 & 0xFFFF
   1987          }
   1988          
   1989          /*********************************************************************
   1990           * @fn      zclGetClusterOption
   1991           *
   1992           * @brief   Get the option record that matchs the cluster id
   1993           *
   1994           * @param   endpoint - Application's endpoint
   1995           * @param   clusterID - cluster ID looking for
   1996           *
   1997           * @return  clutser option, AF_TX_OPTIONS_NONE if not found
   1998           */

   \                                 In  segment BANKED_CODE, align 1, keep-with-next
   1999          static uint8 zclGetClusterOption( uint8 endpoint, uint16 clusterID )
   \                     zclGetClusterOption:
   2000          {
   \   000000   74F6         MOV     A,#-0xa
   \   000002   12....       LCALL   ?BANKED_ENTER_XDATA
   \   000005                ; Saved register size: 10
   \   000005                ; Auto size: 0
   2001            uint8 option;
   2002            zclOptionRec_t *pOption;
   2003          
   2004            pOption = zclFindClusterOption( endpoint, clusterID );
   \   000005                ; Setup parameters for call to function zclFindClusterOption
   \   000005   12....       LCALL   ?Subroutine39 & 0xFFFF
   2005            if ( pOption != NULL )
   \                     ??CrossCallReturnLabel_66:
   \   000008   6008         JZ      ??zclGetClusterOption_0
   2006            {
   2007              option = pOption->option;
   2008              if ( !ZG_SECURE_ENABLED )
   2009              {
   2010                option &= (AF_EN_SECURITY ^ 0xFF); // make sure Application Link Key security is off
   2011              }
   2012          
   2013              return ( option ); // EMBEDDED RETURN
   \   00000A   A3           INC     DPTR
   \   00000B   A3           INC     DPTR
   \   00000C   E0           MOVX    A,@DPTR
   \   00000D   54BF         ANL     A,#0xbf
   \   00000F   F9           MOV     R1,A
   \   000010   8002         SJMP    ??zclGetClusterOption_1
   2014            }
   2015          
   2016            return ( AF_TX_OPTIONS_NONE );
   \                     ??zclGetClusterOption_0:
   \   000012   7900         MOV     R1,#0x0
   \                     ??zclGetClusterOption_1:
   \   000014                REQUIRE ?Subroutine4
   \   000014                ; // Fall through to label ?Subroutine4
   2017          }

   \                                 In  segment BANKED_CODE, align 1, keep-with-next
   \                     ?Subroutine4:
   \   000000   7F02         MOV     R7,#0x2
   \   000002   02....       LJMP    ?BANKED_LEAVE_XDATA

   \                                 In  segment BANKED_CODE, align 1, keep-with-next
   \                     ?Subroutine39:
   \   000000   12....       LCALL   ??zclFindClusterOption?relay
   \   000003   8A82         MOV     DPL,R2
   \   000005   8B83         MOV     DPH,R3
   \   000007   E582         MOV     A,DPL
   \   000009   4583         ORL     A,DPH
   \   00000B   22           RET
   2018          
   2019          /*********************************************************************
   2020           * @fn      zclSetSecurityOption
   2021           *
   2022           * @brief   Set the security option for the cluster id
   2023           *
   2024           * @param   endpoint - Application's endpoint
   2025           * @param   clusterID - cluster ID looking for
   2026           * @param   enable - whether to enable (TRUE) or disable (FALSE) security option
   2027           *
   2028           * @return  none
   2029           */

   \                                 In  segment BANKED_CODE, align 1, keep-with-next
   2030          static void zclSetSecurityOption( uint8 endpoint, uint16 clusterID, uint8 enable )
   \                     zclSetSecurityOption:
   2031          {
   \   000000   74F6         MOV     A,#-0xa
   \   000002   12....       LCALL   ?BANKED_ENTER_XDATA
   \   000005                ; Saved register size: 10
   \   000005                ; Auto size: 0
   \   000005   EC           MOV     A,R4
   \   000006   FF           MOV     R7,A
   2032            zclOptionRec_t *pOption;
   2033          
   2034            pOption = zclFindClusterOption( endpoint, clusterID );
   \   000007                ; Setup parameters for call to function zclFindClusterOption
   \   000007   12....       LCALL   ?Subroutine39 & 0xFFFF
   2035            if ( pOption != NULL )
   \                     ??CrossCallReturnLabel_67:
   \   00000A   600E         JZ      ??zclSetSecurityOption_0
   2036            {
   2037              if ( enable )
   \   00000C   EF           MOV     A,R7
   \   00000D   A3           INC     DPTR
   \   00000E   A3           INC     DPTR
   \   00000F   6005         JZ      ??zclSetSecurityOption_1
   2038              {
   2039                pOption->option |= AF_EN_SECURITY;
   \   000011   E0           MOVX    A,@DPTR
   \   000012   D2E6         SETB    0xE0 /* A   */.6
   \   000014   8003         SJMP    ??zclSetSecurityOption_2
   2040              }
   2041              else
   2042              {
   2043                pOption->option &= (AF_EN_SECURITY ^ 0xFF);
   \                     ??zclSetSecurityOption_1:
   \   000016   E0           MOVX    A,@DPTR
   \   000017   C2E6         CLR     0xE0 /* A   */.6
   \                     ??zclSetSecurityOption_2:
   \   000019   F0           MOVX    @DPTR,A
   2044              }
   2045            }
   2046          }
   \                     ??zclSetSecurityOption_0:
   \   00001A   80..         SJMP    ?Subroutine4
   2047          
   2048          #ifdef ZCL_DISCOVER
   2049          /*********************************************************************
   2050           * @fn      zclFindNextAttrRec
   2051           *
   2052           * @brief   Find the attribute (or next) record that matchs the parameters
   2053           *
   2054           * @param   endpoint - Application's endpoint
   2055           * @param   clusterID - cluster ID
   2056           * @param   attr - attribute looking for
   2057           *
   2058           * @return  pointer to attribute record, NULL if not found
   2059           */
   2060          static uint8 zclFindNextAttrRec( uint8 endpoint, uint16 clusterID,
   2061                                           uint16 *attrId, zclAttrRec_t *pAttr )
   2062          {
   2063            zclAttrRecsList *pRec = zclFindAttrRecsList( endpoint );
   2064          
   2065            if ( pRec != NULL )
   2066            {
   2067              for ( uint16 x = 0; x < pRec->numAttributes; x++ )
   2068              {
   2069                if ( ( pRec->attrs[x].clusterID == clusterID ) &&
   2070                     ( pRec->attrs[x].attr.attrId >= *attrId ) )
   2071                {
   2072                  *pAttr = pRec->attrs[x];
   2073          
   2074                  // Update attribute ID
   2075                  *attrId = pAttr->attr.attrId;
   2076          
   2077                  return ( TRUE ); // EMBEDDED RETURN
   2078                }
   2079              }
   2080            }
   2081          
   2082            return ( FALSE );
   2083          }
   2084          #endif // ZCL_DISCOVER
   2085          
   2086          /*********************************************************************
   2087           * @fn      zclSerializeData
   2088           *
   2089           * @brief   Builds a buffer from the attribute data to sent out over
   2090           *          the air.
   2091           *
   2092           * @param   dataType - data types defined in zcl.h
   2093           * @param   attrData - pointer to the attribute data
   2094           * @param   buf - where to put the serialized data
   2095           *
   2096           * @return  pointer to end of destination buffer
   2097           */

   \                                 In  segment BANKED_CODE, align 1, keep-with-next
   2098          uint8 *zclSerializeData( uint8 dataType, void *attrData, uint8 *buf )
   \                     zclSerializeData:
   2099          {
   \   000000   74F0         MOV     A,#-0x10
   \   000002   12....       LCALL   ?BANKED_ENTER_XDATA
   \   000005                ; Saved register size: 16
   \   000005                ; Auto size: 0
   \   000005   EA           MOV     A,R2
   \   000006   FE           MOV     R6,A
   \   000007   EB           MOV     A,R3
   \   000008   FF           MOV     R7,A
   \   000009   EC           MOV     A,R4
   \   00000A   FA           MOV     R2,A
   \   00000B   ED           MOV     A,R5
   \   00000C   FB           MOV     R3,A
   2100            uint8 *pStr;
   2101            uint16 len;
   2102          
   2103            switch ( dataType )
   \   00000D   E9           MOV     A,R1
   \   00000E   12....       LCALL   ?UC_SWITCH_SPARSE
   \                     `?<Jumptable for zclSerializeData>_0`:
   \   000011   04           DB        4
   \   000012   41           DB        65
   \   000013   42           DB        66
   \   000014   ....         DW        ??zclSerializeData_0
   \   000016   43           DB        67
   \   000017   44           DB        68
   \   000018   ....         DW        ??zclSerializeData_1
   \   00001A   E0           DB        224
   \   00001B   E2           DB        226
   \   00001C   ....         DW        ??zclSerializeData_2
   \   00001E   E8           DB        232
   \   00001F   E9           DB        233
   \   000020   ....         DW        ??zclSerializeData_3
   \   000022   1A           DB        26
   \   000023   08           DB        8
   \   000024   ....         DW        ??zclSerializeData_4
   \   000026   09           DB        9
   \   000027   ....         DW        ??zclSerializeData_3
   \   000029   0A           DB        10
   \   00002A   ....         DW        ??zclSerializeData_5
   \   00002C   0B           DB        11
   \   00002D   ....         DW        ??zclSerializeData_2
   \   00002F   10           DB        16
   \   000030   ....         DW        ??zclSerializeData_4
   \   000032   18           DB        24
   \   000033   ....         DW        ??zclSerializeData_4
   \   000035   19           DB        25
   \   000036   ....         DW        ??zclSerializeData_3
   \   000038   1A           DB        26
   \   000039   ....         DW        ??zclSerializeData_5
   \   00003B   1B           DB        27
   \   00003C   ....         DW        ??zclSerializeData_2
   \   00003E   20           DB        32
   \   00003F   ....         DW        ??zclSerializeData_4
   \   000041   21           DB        33
   \   000042   ....         DW        ??zclSerializeData_3
   \   000044   22           DB        34
   \   000045   ....         DW        ??zclSerializeData_5
   \   000047   23           DB        35
   \   000048   ....         DW        ??zclSerializeData_2
   \   00004A   24           DB        36
   \   00004B   ....         DW        ??zclSerializeData_6
   \   00004D   25           DB        37
   \   00004E   ....         DW        ??zclSerializeData_7
   \   000050   28           DB        40
   \   000051   ....         DW        ??zclSerializeData_4
   \   000053   29           DB        41
   \   000054   ....         DW        ??zclSerializeData_3
   \   000056   2A           DB        42
   \   000057   ....         DW        ??zclSerializeData_5
   \   000059   2B           DB        43
   \   00005A   ....         DW        ??zclSerializeData_2
   \   00005C   30           DB        48
   \   00005D   ....         DW        ??zclSerializeData_4
   \   00005F   31           DB        49
   \   000060   ....         DW        ??zclSerializeData_3
   \   000062   38           DB        56
   \   000063   ....         DW        ??zclSerializeData_3
   \   000065   39           DB        57
   \   000066   ....         DW        ??zclSerializeData_2
   \   000068   EA           DB        234
   \   000069   ....         DW        ??zclSerializeData_2
   \   00006B   F0           DB        240
   \   00006C   ....         DW        ??zclSerializeData_8
   \   00006E   F1           DB        241
   \   00006F   ....         DW        ??zclSerializeData_9
   \   000071   ....         DW        ??zclSerializeData_10
   2104            {
   2105              case ZCL_DATATYPE_DATA8:
   2106              case ZCL_DATATYPE_BOOLEAN:
   2107              case ZCL_DATATYPE_BITMAP8:
   2108              case ZCL_DATATYPE_INT8:
   2109              case ZCL_DATATYPE_UINT8:
   2110              case ZCL_DATATYPE_ENUM8:
   2111                *buf++ = *((uint8 *)attrData);
   \                     ??zclSerializeData_4:
   \   000073   12....       LCALL   ?Subroutine31 & 0xFFFF
   \                     ??CrossCallReturnLabel_135:
   \   000076   F0           MOVX    @DPTR,A
   \   000077   A3           INC     DPTR
   \   000078   AA82         MOV     R2,DPL
   \                     ??zclSerializeData_11:
   \   00007A   AB83         MOV     R3,DPH
   2112                 break;
   \   00007C   02....       LJMP    ??zclSerializeData_10 & 0xFFFF
   2113          
   2114              case ZCL_DATATYPE_DATA16:
   2115              case ZCL_DATATYPE_BITMAP16:
   2116              case ZCL_DATATYPE_UINT16:
   2117              case ZCL_DATATYPE_INT16:
   2118              case ZCL_DATATYPE_ENUM16:
   2119              case ZCL_DATATYPE_SEMI_PREC:
   2120              case ZCL_DATATYPE_CLUSTER_ID:
   2121              case ZCL_DATATYPE_ATTR_ID:
   2122                *buf++ = LO_UINT16( *((uint16*)attrData) );
   \                     ??zclSerializeData_3:
   \   00007F   12....       LCALL   ?Subroutine31 & 0xFFFF
   \                     ??CrossCallReturnLabel_136:
   \   000082   12....       LCALL   ?Subroutine10 & 0xFFFF
   2123                *buf++ = HI_UINT16( *((uint16*)attrData) );
   \                     ??CrossCallReturnLabel_9:
   \   000085   A3           INC     DPTR
   \   000086   12....       LCALL   ??Subroutine63_0 & 0xFFFF
   \                     ??CrossCallReturnLabel_133:
   \   000089   F0           MOVX    @DPTR,A
   \   00008A   A3           INC     DPTR
   \   00008B   0A           INC     R2
   \   00008C   80EC         SJMP    ??zclSerializeData_11
   2124                break;
   2125          
   2126              case ZCL_DATATYPE_DATA24:
   2127              case ZCL_DATATYPE_BITMAP24:
   2128              case ZCL_DATATYPE_UINT24:
   2129              case ZCL_DATATYPE_INT24:
   2130                *buf++ = BREAK_UINT32( *((uint32*)attrData), 0 );
   \                     ??zclSerializeData_5:
   \   00008E   8E82         MOV     DPL,R6
   \   000090   8F83         MOV     DPH,R7
   \   000092   78..         MOV     R0,#?V0 + 4
   \   000094   12....       LCALL   ?L_MOV_X
   \   000097   8A82         MOV     DPL,R2
   \   000099   8B83         MOV     DPH,R3
   \   00009B   E5..         MOV     A,?V0 + 4
   \   00009D   12....       LCALL   ?Subroutine10 & 0xFFFF
   2131                *buf++ = BREAK_UINT32( *((uint32*)attrData), 1 );
   \                     ??CrossCallReturnLabel_10:
   \   0000A0   78..         MOV     R0,#?V0 + 4
   \   0000A2   12....       LCALL   ?L_MOV_X
   \   0000A5   E5..         MOV     A,?V0 + 5
   \   0000A7   8A82         MOV     DPL,R2
   \   0000A9   8B83         MOV     DPH,R3
   \   0000AB   F0           MOVX    @DPTR,A
   \   0000AC   A3           INC     DPTR
   \   0000AD   0A           INC     R2
   \   0000AE   AB83         MOV     R3,DPH
   2132                *buf++ = BREAK_UINT32( *((uint32*)attrData), 2 );
   \   0000B0   8E82         MOV     DPL,R6
   \   0000B2   8F83         MOV     DPH,R7
   \   0000B4   78..         MOV     R0,#?V0 + 4
   \   0000B6   12....       LCALL   ?L_MOV_X
   \   0000B9   7410         MOV     A,#0x10
   \   0000BB   78..         MOV     R0,#?V0 + 4
   \   0000BD   12....       LCALL   ?UL_SHR
   \   0000C0   8A82         MOV     DPL,R2
   \   0000C2   8B83         MOV     DPH,R3
   \   0000C4   E5..         MOV     A,?V0 + 4
   \   0000C6   80C1         SJMP    ??CrossCallReturnLabel_133
   2133                break;
   2134          
   2135              case ZCL_DATATYPE_DATA32:
   2136              case ZCL_DATATYPE_BITMAP32:
   2137              case ZCL_DATATYPE_UINT32:
   2138              case ZCL_DATATYPE_INT32:
   2139              case ZCL_DATATYPE_SINGLE_PREC:
   2140              case ZCL_DATATYPE_TOD:
   2141              case ZCL_DATATYPE_DATE:
   2142              case ZCL_DATATYPE_UTC:
   2143              case ZCL_DATATYPE_BAC_OID:
   2144                buf = osal_buffer_uint32( buf, *((uint32*)attrData) );
   \                     ??zclSerializeData_2:
   \   0000C8                ; Setup parameters for call to function osal_buffer_uint32
   \   0000C8   8E82         MOV     DPL,R6
   \   0000CA   8F83         MOV     DPH,R7
   \   0000CC   12....       LCALL   ?PUSH_XSTACK8_X_FOUR
   \   0000CF   12....       LCALL   ??osal_buffer_uint32?relay
   \   0000D2   7404         MOV     A,#0x4
   \   0000D4   12....       LCALL   ?DEALLOC_XSTACK8
   2145                break;
   \   0000D7   807A         SJMP    ??zclSerializeData_10
   2146          
   2147              case ZCL_DATATYPE_UINT40:
   2148                pStr = (uint8*)attrData;
   2149                buf = osal_memcpy( buf, pStr, 5 );
   \                     ??zclSerializeData_6:
   \   0000D9                ; Setup parameters for call to function osal_memcpy
   \   0000D9   8E..         MOV     ?V0 + 4,R6
   \   0000DB   8F..         MOV     ?V0 + 5,R7
   \   0000DD   75..00       MOV     ?V0 + 6,#0x0
   \   0000E0   78..         MOV     R0,#?V0 + 4
   \   0000E2   12....       LCALL   ?PUSH_XSTACK_I_THREE
   \   0000E5   7C05         MOV     R4,#0x5
   \   0000E7   8060         SJMP    ??zclSerializeData_12
   2150                break;
   2151          
   2152              case ZCL_DATATYPE_UINT48:
   2153                pStr = (uint8*)attrData;
   2154                buf = osal_memcpy( buf, pStr, 6 );
   \                     ??zclSerializeData_7:
   \   0000E9                ; Setup parameters for call to function osal_memcpy
   \   0000E9   8E..         MOV     ?V0 + 4,R6
   \   0000EB   8F..         MOV     ?V0 + 5,R7
   \   0000ED   75..00       MOV     ?V0 + 6,#0x0
   \   0000F0   78..         MOV     R0,#?V0 + 4
   \   0000F2   12....       LCALL   ?PUSH_XSTACK_I_THREE
   \   0000F5   7C06         MOV     R4,#0x6
   \   0000F7   8050         SJMP    ??zclSerializeData_12
   2155                break;
   2156          
   2157              case ZCL_DATATYPE_IEEE_ADDR:
   2158                pStr = (uint8*)attrData;
   2159                buf = osal_memcpy( buf, pStr, 8 );
   \                     ??zclSerializeData_8:
   \   0000F9                ; Setup parameters for call to function osal_memcpy
   \   0000F9   8E..         MOV     ?V0 + 4,R6
   \   0000FB   8F..         MOV     ?V0 + 5,R7
   \   0000FD   75..00       MOV     ?V0 + 6,#0x0
   \   000100   78..         MOV     R0,#?V0 + 4
   \   000102   12....       LCALL   ?PUSH_XSTACK_I_THREE
   \   000105   7C08         MOV     R4,#0x8
   \   000107   8040         SJMP    ??zclSerializeData_12
   2160                break;
   2161          
   2162              case ZCL_DATATYPE_CHAR_STR:
   2163              case ZCL_DATATYPE_OCTET_STR:
   2164                pStr = (uint8*)attrData;
   2165                len = *pStr;
   2166                buf = osal_memcpy( buf, pStr, len+1 ); // Including length field
   \                     ??zclSerializeData_0:
   \   000109                ; Setup parameters for call to function osal_memcpy
   \   000109   8E..         MOV     ?V0 + 4,R6
   \   00010B   8F..         MOV     ?V0 + 5,R7
   \   00010D   75..00       MOV     ?V0 + 6,#0x0
   \   000110   78..         MOV     R0,#?V0 + 4
   \   000112   12....       LCALL   ?PUSH_XSTACK_I_THREE
   \   000115   8E82         MOV     DPL,R6
   \   000117   8F83         MOV     DPH,R7
   \   000119   E0           MOVX    A,@DPTR
   \   00011A   2401         ADD     A,#0x1
   \   00011C   FC           MOV     R4,A
   \   00011D   E4           CLR     A
   \                     ??zclSerializeData_13:
   \   00011E   3400         ADDC    A,#0x0
   \   000120   FD           MOV     R5,A
   \   000121   8028         SJMP    ??zclSerializeData_14
   2167                break;
   2168          
   2169              case ZCL_DATATYPE_LONG_CHAR_STR:
   2170              case ZCL_DATATYPE_LONG_OCTET_STR:
   2171                pStr = (uint8*)attrData;
   2172                len = BUILD_UINT16( pStr[0], pStr[1] );
   2173                buf = osal_memcpy( buf, pStr, len+2 ); // Including length field
   \                     ??zclSerializeData_1:
   \   000123                ; Setup parameters for call to function osal_memcpy
   \   000123   8E..         MOV     ?V0 + 4,R6
   \   000125   8F..         MOV     ?V0 + 5,R7
   \   000127   75..00       MOV     ?V0 + 6,#0x0
   \   00012A   78..         MOV     R0,#?V0 + 4
   \   00012C   12....       LCALL   ?PUSH_XSTACK_I_THREE
   \   00012F   8E82         MOV     DPL,R6
   \   000131   8F83         MOV     DPH,R7
   \   000133   12....       LCALL   ?Subroutine34 & 0xFFFF
   \                     ??CrossCallReturnLabel_56:
   \   000136   0C           INC     R4
   \   000137   0C           INC     R4
   \   000138   E9           MOV     A,R1
   \   000139   80E3         SJMP    ??zclSerializeData_13
   2174                break;
   2175          
   2176              case ZCL_DATATYPE_128_BIT_SEC_KEY:
   2177                pStr = (uint8*)attrData;
   2178                buf = osal_memcpy( buf, pStr, SEC_KEY_LEN );
   \                     ??zclSerializeData_9:
   \   00013B                ; Setup parameters for call to function osal_memcpy
   \   00013B   8E..         MOV     ?V0 + 4,R6
   \   00013D   8F..         MOV     ?V0 + 5,R7
   \   00013F   75..00       MOV     ?V0 + 6,#0x0
   \   000142   78..         MOV     R0,#?V0 + 4
   \   000144   12....       LCALL   ?PUSH_XSTACK_I_THREE
   \   000147   7C10         MOV     R4,#0x10
   \                     ??zclSerializeData_12:
   \   000149   7D00         MOV     R5,#0x0
   \                     ??zclSerializeData_14:
   \   00014B   12....       LCALL   ??osal_memcpy?relay
   \   00014E   7403         MOV     A,#0x3
   \   000150   12....       LCALL   ?DEALLOC_XSTACK8
   2179                break;
   2180          
   2181              case ZCL_DATATYPE_NO_DATA:
   2182              case ZCL_DATATYPE_UNKNOWN:
   2183                // Fall through
   2184          
   2185              default:
   2186                break;
   2187            }
   2188          
   2189            return ( buf );
   \                     ??zclSerializeData_10:
   \   000153   7F08         MOV     R7,#0x8
   \   000155   02....       LJMP    ?BANKED_LEAVE_XDATA
   2190          }

   \                                 In  segment BANKED_CODE, align 1, keep-with-next
   \                     ?Subroutine10:
   \   000000   F0           MOVX    @DPTR,A
   \   000001   A3           INC     DPTR
   \   000002   AA82         MOV     R2,DPL
   \   000004   AB83         MOV     R3,DPH
   \   000006   8E82         MOV     DPL,R6
   \   000008   8F83         MOV     DPH,R7
   \   00000A   22           RET

   \                                 In  segment BANKED_CODE, align 1, keep-with-next
   \                     ?Subroutine34:
   \   000000   E0           MOVX    A,@DPTR
   \   000001   FC           MOV     R4,A
   \   000002   A3           INC     DPTR
   \   000003   E0           MOVX    A,@DPTR
   \   000004   F9           MOV     R1,A
   \   000005   EC           MOV     A,R4
   \   000006   2402         ADD     A,#0x2
   \   000008   22           RET

   \                                 In  segment BANKED_CODE, align 1, keep-with-next
   \                     ?Subroutine31:
   \   000000   8E82         MOV     DPL,R6
   \   000002   8F83         MOV     DPH,R7
   \   000004                REQUIRE ??Subroutine63_0
   \   000004                ; // Fall through to label ??Subroutine63_0

   \                                 In  segment BANKED_CODE, align 1, keep-with-next
   \                     ??Subroutine63_0:
   \   000000   E0           MOVX    A,@DPTR
   \   000001   8A82         MOV     DPL,R2
   \   000003   8B83         MOV     DPH,R3
   \   000005   22           RET
   2191          
   2192          #ifdef ZCL_REPORT
   2193          /*********************************************************************
   2194           * @fn      zclAnalogDataType
   2195           *
   2196           * @brief   Checks to see if Data Type is Analog
   2197           *
   2198           * @param   dataType - data type
   2199           *
   2200           * @return  TRUE if data type is analog
   2201           */
   2202          uint8 zclAnalogDataType( uint8 dataType )
   2203          {
   2204            uint8 analog;
   2205          
   2206            switch ( dataType )
   2207            {
   2208              case ZCL_DATATYPE_UINT8:
   2209              case ZCL_DATATYPE_UINT16:
   2210              case ZCL_DATATYPE_UINT24:
   2211              case ZCL_DATATYPE_UINT32:
   2212              case ZCL_DATATYPE_UINT40:
   2213              case ZCL_DATATYPE_UINT48:
   2214              case ZCL_DATATYPE_UINT56:
   2215              case ZCL_DATATYPE_UINT64:
   2216              case ZCL_DATATYPE_INT8:
   2217              case ZCL_DATATYPE_INT16:
   2218              case ZCL_DATATYPE_INT24:
   2219              case ZCL_DATATYPE_INT32:
   2220              case ZCL_DATATYPE_INT40:
   2221              case ZCL_DATATYPE_INT48:
   2222              case ZCL_DATATYPE_INT56:
   2223              case ZCL_DATATYPE_INT64:
   2224              case ZCL_DATATYPE_SEMI_PREC:
   2225              case ZCL_DATATYPE_SINGLE_PREC:
   2226              case ZCL_DATATYPE_DOUBLE_PREC:
   2227              case ZCL_DATATYPE_TOD:
   2228              case ZCL_DATATYPE_DATE:
   2229              case ZCL_DATATYPE_UTC:
   2230                analog = TRUE;
   2231                break;
   2232          
   2233              default:
   2234                analog = FALSE;
   2235                break;
   2236            }
   2237          
   2238            return ( analog );
   2239          }
   2240          
   2241          /*********************************************************************
   2242           * @fn      zcl_BuildAnalogData
   2243           *
   2244           * @brief   Build an analog arribute out of sequential bytes.
   2245           *
   2246           * @param   dataType - type of data
   2247           * @param   pData - pointer to data
   2248           * @param   pBuf - where to put the data
   2249           *
   2250           * @return  none
   2251           */
   2252          static void zcl_BuildAnalogData( uint8 dataType, uint8 *pData, uint8 *pBuf)
   2253          {
   2254            switch ( dataType )
   2255            {
   2256              case ZCL_DATATYPE_UINT8:
   2257              case ZCL_DATATYPE_INT8:
   2258                *pData = *pBuf;
   2259                break;
   2260          
   2261              case ZCL_DATATYPE_UINT16:
   2262              case ZCL_DATATYPE_INT16:
   2263              case ZCL_DATATYPE_SEMI_PREC:
   2264                *((uint16*)pData) = BUILD_UINT16( pBuf[0], pBuf[1] );
   2265                break;
   2266          
   2267              case ZCL_DATATYPE_UINT24:
   2268              case ZCL_DATATYPE_INT24:
   2269                *((uint32*)pData) = osal_build_uint32( pBuf, 3 );
   2270                break;
   2271          
   2272              case ZCL_DATATYPE_UINT32:
   2273              case ZCL_DATATYPE_INT32:
   2274              case ZCL_DATATYPE_SINGLE_PREC:
   2275              case ZCL_DATATYPE_TOD:
   2276              case ZCL_DATATYPE_DATE:
   2277              case ZCL_DATATYPE_UTC:
   2278                *((uint32*)pData) = osal_build_uint32( pBuf, 4 );
   2279                break;
   2280          
   2281              case ZCL_DATATYPE_UINT40:
   2282              case ZCL_DATATYPE_UINT48:
   2283              case ZCL_DATATYPE_UINT56:
   2284              case ZCL_DATATYPE_UINT64:
   2285              case ZCL_DATATYPE_INT40:
   2286              case ZCL_DATATYPE_INT48:
   2287              case ZCL_DATATYPE_INT56:
   2288              case ZCL_DATATYPE_INT64:
   2289              case ZCL_DATATYPE_DOUBLE_PREC:
   2290                *pData = 0;
   2291                break;
   2292          
   2293              default:
   2294                *pData = 0;
   2295                break;
   2296            }
   2297          }
   2298          #endif // ZCL_REPORT
   2299          
   2300          /*********************************************************************
   2301           * @fn      zclGetDataTypeLength
   2302           *
   2303           * @brief   Return the length of the datatype in octet.
   2304           *
   2305           *          NOTE: Should not be called for ZCL_DATATYPE_OCTECT_STR or
   2306           *                ZCL_DATATYPE_CHAR_STR data types.
   2307           *
   2308           * @param   dataType - data type
   2309           *
   2310           * @return  length of data
   2311           */

   \                                 In  segment BANKED_CODE, align 1, keep-with-next
   2312          uint8 zclGetDataTypeLength( uint8 dataType )
   \                     zclGetDataTypeLength:
   2313          {
   \   000000   C082         PUSH    DPL
   \   000002   C083         PUSH    DPH
   \   000004                ; Saved register size: 2
   \   000004                ; Auto size: 0
   \   000004   E9           MOV     A,R1
   2314            uint8 len;
   2315          
   2316            switch ( dataType )
   \   000005   12....       LCALL   ?UC_SWITCH_SPARSE
   \                     `?<Jumptable for zclGetDataTypeLength>_0`:
   \   000008   02           DB        2
   \   000009   E0           DB        224
   \   00000A   E2           DB        226
   \   00000B   ....         DW        ??zclGetDataTypeLength_0
   \   00000D   E8           DB        232
   \   00000E   E9           DB        233
   \   00000F   ....         DW        ??zclGetDataTypeLength_1
   \   000011   21           DB        33
   \   000012   08           DB        8
   \   000013   ....         DW        ??zclGetDataTypeLength_2
   \   000015   09           DB        9
   \   000016   ....         DW        ??zclGetDataTypeLength_1
   \   000018   0A           DB        10
   \   000019   ....         DW        ??zclGetDataTypeLength_3
   \   00001B   0B           DB        11
   \   00001C   ....         DW        ??zclGetDataTypeLength_0
   \   00001E   10           DB        16
   \   00001F   ....         DW        ??zclGetDataTypeLength_2
   \   000021   18           DB        24
   \   000022   ....         DW        ??zclGetDataTypeLength_2
   \   000024   19           DB        25
   \   000025   ....         DW        ??zclGetDataTypeLength_1
   \   000027   1A           DB        26
   \   000028   ....         DW        ??zclGetDataTypeLength_3
   \   00002A   1B           DB        27
   \   00002B   ....         DW        ??zclGetDataTypeLength_0
   \   00002D   20           DB        32
   \   00002E   ....         DW        ??zclGetDataTypeLength_2
   \   000030   21           DB        33
   \   000031   ....         DW        ??zclGetDataTypeLength_1
   \   000033   22           DB        34
   \   000034   ....         DW        ??zclGetDataTypeLength_3
   \   000036   23           DB        35
   \   000037   ....         DW        ??zclGetDataTypeLength_0
   \   000039   24           DB        36
   \   00003A   ....         DW        ??zclGetDataTypeLength_4
   \   00003C   25           DB        37
   \   00003D   ....         DW        ??zclGetDataTypeLength_5
   \   00003F   26           DB        38
   \   000040   ....         DW        ??zclGetDataTypeLength_6
   \   000042   27           DB        39
   \   000043   ....         DW        ??zclGetDataTypeLength_7
   \   000045   28           DB        40
   \   000046   ....         DW        ??zclGetDataTypeLength_2
   \   000048   29           DB        41
   \   000049   ....         DW        ??zclGetDataTypeLength_1
   \   00004B   2A           DB        42
   \   00004C   ....         DW        ??zclGetDataTypeLength_3
   \   00004E   2B           DB        43
   \   00004F   ....         DW        ??zclGetDataTypeLength_0
   \   000051   2C           DB        44
   \   000052   ....         DW        ??zclGetDataTypeLength_4
   \   000054   2D           DB        45
   \   000055   ....         DW        ??zclGetDataTypeLength_5
   \   000057   2E           DB        46
   \   000058   ....         DW        ??zclGetDataTypeLength_6
   \   00005A   2F           DB        47
   \   00005B   ....         DW        ??zclGetDataTypeLength_7
   \   00005D   30           DB        48
   \   00005E   ....         DW        ??zclGetDataTypeLength_2
   \   000060   31           DB        49
   \   000061   ....         DW        ??zclGetDataTypeLength_1
   \   000063   38           DB        56
   \   000064   ....         DW        ??zclGetDataTypeLength_1
   \   000066   39           DB        57
   \   000067   ....         DW        ??zclGetDataTypeLength_0
   \   000069   3A           DB        58
   \   00006A   ....         DW        ??zclGetDataTypeLength_7
   \   00006C   EA           DB        234
   \   00006D   ....         DW        ??zclGetDataTypeLength_0
   \   00006F   F0           DB        240
   \   000070   ....         DW        ??zclGetDataTypeLength_7
   \   000072   F1           DB        241
   \   000073   ....         DW        ??zclGetDataTypeLength_8
   \   000075   ....         DW        ??zclGetDataTypeLength_9
   2317            {
   2318              case ZCL_DATATYPE_DATA8:
   2319              case ZCL_DATATYPE_BOOLEAN:
   2320              case ZCL_DATATYPE_BITMAP8:
   2321              case ZCL_DATATYPE_INT8:
   2322              case ZCL_DATATYPE_UINT8:
   2323              case ZCL_DATATYPE_ENUM8:
   2324                len = 1;
   \                     ??zclGetDataTypeLength_2:
   \   000077   7901         MOV     R1,#0x1
   2325                break;
   \   000079   8022         SJMP    ??zclGetDataTypeLength_10
   2326          
   2327              case ZCL_DATATYPE_DATA16:
   2328              case ZCL_DATATYPE_BITMAP16:
   2329              case ZCL_DATATYPE_UINT16:
   2330              case ZCL_DATATYPE_INT16:
   2331              case ZCL_DATATYPE_ENUM16:
   2332              case ZCL_DATATYPE_SEMI_PREC:
   2333              case ZCL_DATATYPE_CLUSTER_ID:
   2334              case ZCL_DATATYPE_ATTR_ID:
   2335                len = 2;
   \                     ??zclGetDataTypeLength_1:
   \   00007B   7902         MOV     R1,#0x2
   2336                break;
   \   00007D   801E         SJMP    ??zclGetDataTypeLength_10
   2337          
   2338              case ZCL_DATATYPE_DATA24:
   2339              case ZCL_DATATYPE_BITMAP24:
   2340              case ZCL_DATATYPE_UINT24:
   2341              case ZCL_DATATYPE_INT24:
   2342                len = 3;
   \                     ??zclGetDataTypeLength_3:
   \   00007F   7903         MOV     R1,#0x3
   2343                break;
   \   000081   801A         SJMP    ??zclGetDataTypeLength_10
   2344          
   2345              case ZCL_DATATYPE_DATA32:
   2346              case ZCL_DATATYPE_BITMAP32:
   2347              case ZCL_DATATYPE_UINT32:
   2348              case ZCL_DATATYPE_INT32:
   2349              case ZCL_DATATYPE_SINGLE_PREC:
   2350              case ZCL_DATATYPE_TOD:
   2351              case ZCL_DATATYPE_DATE:
   2352              case ZCL_DATATYPE_UTC:
   2353              case ZCL_DATATYPE_BAC_OID:
   2354                len = 4;
   \                     ??zclGetDataTypeLength_0:
   \   000083   7904         MOV     R1,#0x4
   2355                break;
   \   000085   8016         SJMP    ??zclGetDataTypeLength_10
   2356          
   2357             case ZCL_DATATYPE_UINT40:
   2358             case ZCL_DATATYPE_INT40:
   2359                 len = 5;
   \                     ??zclGetDataTypeLength_4:
   \   000087   7905         MOV     R1,#0x5
   2360                 break;
   \   000089   8012         SJMP    ??zclGetDataTypeLength_10
   2361          
   2362             case ZCL_DATATYPE_UINT48:
   2363             case ZCL_DATATYPE_INT48:
   2364                 len = 6;
   \                     ??zclGetDataTypeLength_5:
   \   00008B   7906         MOV     R1,#0x6
   2365                 break;
   \   00008D   800E         SJMP    ??zclGetDataTypeLength_10
   2366          
   2367             case ZCL_DATATYPE_UINT56:
   2368             case ZCL_DATATYPE_INT56:
   2369                 len = 7;
   \                     ??zclGetDataTypeLength_6:
   \   00008F   7907         MOV     R1,#0x7
   2370                 break;
   \   000091   800A         SJMP    ??zclGetDataTypeLength_10
   2371          
   2372             case ZCL_DATATYPE_DOUBLE_PREC:
   2373             case ZCL_DATATYPE_IEEE_ADDR:
   2374             case ZCL_DATATYPE_UINT64:
   2375             case ZCL_DATATYPE_INT64:
   2376               len = 8;
   \                     ??zclGetDataTypeLength_7:
   \   000093   7908         MOV     R1,#0x8
   2377               break;
   \   000095   8006         SJMP    ??zclGetDataTypeLength_10
   2378          
   2379              case ZCL_DATATYPE_128_BIT_SEC_KEY:
   2380               len = SEC_KEY_LEN;
   \                     ??zclGetDataTypeLength_8:
   \   000097   7910         MOV     R1,#0x10
   2381               break;
   \   000099   8002         SJMP    ??zclGetDataTypeLength_10
   2382          
   2383              case ZCL_DATATYPE_NO_DATA:
   2384              case ZCL_DATATYPE_UNKNOWN:
   2385                // Fall through
   2386          
   2387              default:
   2388                len = 0;
   \                     ??zclGetDataTypeLength_9:
   \   00009B   7900         MOV     R1,#0x0
   2389                break;
   2390            }
   2391          
   2392            return ( len );
   \                     ??zclGetDataTypeLength_10:
   \   00009D   02....       LJMP    ?Subroutine0 & 0xFFFF
   2393          }
   2394          
   2395          /*********************************************************************
   2396           * @fn      zclGetAttrDataLength
   2397           *
   2398           * @brief   Return the length of the attribute.
   2399           *
   2400           * @param   dataType - data type
   2401           * @param   pData - pointer to data
   2402           *
   2403           * @return  returns atrribute length
   2404           */

   \                                 In  segment BANKED_CODE, align 1, keep-with-next
   2405          uint16 zclGetAttrDataLength( uint8 dataType, uint8 *pData )
   \                     zclGetAttrDataLength:
   2406          {
   \   000000   74F7         MOV     A,#-0x9
   \   000002   12....       LCALL   ?BANKED_ENTER_XDATA
   \   000005                ; Saved register size: 9
   \   000005                ; Auto size: 0
   \   000005   E9           MOV     A,R1
   \   000006   FE           MOV     R6,A
   2407            uint16 dataLen = 0;
   2408          
   2409            if ( dataType == ZCL_DATATYPE_LONG_CHAR_STR || dataType == ZCL_DATATYPE_LONG_OCTET_STR )
   \   000007   7444         MOV     A,#0x44
   \   000009   6E           XRL     A,R6
   \   00000A   6005         JZ      ??zclGetAttrDataLength_0
   \   00000C   7443         MOV     A,#0x43
   \   00000E   6E           XRL     A,R6
   \   00000F   700E         JNZ     ??zclGetAttrDataLength_1
   2410            {
   2411              dataLen = BUILD_UINT16( pData[0], pData[1] ) + 2; // long string length + 2 for length field
   \                     ??zclGetAttrDataLength_0:
   \   000011   8A82         MOV     DPL,R2
   \   000013   8B83         MOV     DPH,R3
   \   000015   12....       LCALL   ?Subroutine34 & 0xFFFF
   2412            }
   \                     ??CrossCallReturnLabel_57:
   \   000018   FA           MOV     R2,A
   \   000019   E9           MOV     A,R1
   \                     ??zclGetAttrDataLength_2:
   \   00001A   3400         ADDC    A,#0x0
   \   00001C   FB           MOV     R3,A
   \   00001D   801C         SJMP    ??zclGetAttrDataLength_3
   2413            else if ( dataType == ZCL_DATATYPE_CHAR_STR || dataType == ZCL_DATATYPE_OCTET_STR )
   \                     ??zclGetAttrDataLength_1:
   \   00001F   7442         MOV     A,#0x42
   \   000021   6E           XRL     A,R6
   \   000022   6005         JZ      ??zclGetAttrDataLength_4
   \   000024   7441         MOV     A,#0x41
   \   000026   6E           XRL     A,R6
   \   000027   700B         JNZ     ??zclGetAttrDataLength_5
   2414            {
   2415              dataLen = *pData + 1; // string length + 1 for length field
   \                     ??zclGetAttrDataLength_4:
   \   000029   8A82         MOV     DPL,R2
   \   00002B   8B83         MOV     DPH,R3
   \   00002D   E0           MOVX    A,@DPTR
   \   00002E   2401         ADD     A,#0x1
   \   000030   FA           MOV     R2,A
   \   000031   E4           CLR     A
   \   000032   80E6         SJMP    ??zclGetAttrDataLength_2
   2416            }
   2417            else
   2418            {
   2419              dataLen = zclGetDataTypeLength( dataType );
   \                     ??zclGetAttrDataLength_5:
   \   000034                ; Setup parameters for call to function zclGetDataTypeLength
   \   000034   12....       LCALL   ??zclGetDataTypeLength?relay
   \   000037   E9           MOV     A,R1
   \   000038   FA           MOV     R2,A
   \   000039   7B00         MOV     R3,#0x0
   2420            }
   2421          
   2422            return ( dataLen );
   \                     ??zclGetAttrDataLength_3:
   \   00003B   02....       LJMP    ?Subroutine3 & 0xFFFF
   2423          }
   2424          
   2425          /*********************************************************************
   2426           * @fn      zclReadAttrData
   2427           *
   2428           * @brief   Read the attribute's current value into pAttrData.
   2429           *
   2430           * @param   pAttrData - where to put attribute data
   2431           * @param   pAttr - pointer to attribute
   2432           * @param   pDataLen - where to put attribute data length
   2433           *
   2434           * @return Success
   2435           */

   \                                 In  segment BANKED_CODE, align 1, keep-with-next
   2436          uint8 zclReadAttrData( uint8 *pAttrData, zclAttrRec_t *pAttr, uint16 *pDataLen )
   \                     zclReadAttrData:
   2437          {
   \   000000   74ED         MOV     A,#-0x13
   \   000002   12....       LCALL   ?BANKED_ENTER_XDATA
   \   000005                ; Saved register size: 19
   \   000005                ; Auto size: 0
   \   000005   EA           MOV     A,R2
   \   000006   FE           MOV     R6,A
   \   000007   EB           MOV     A,R3
   \   000008   FF           MOV     R7,A
   \   000009   7413         MOV     A,#0x13
   \   00000B   12....       LCALL   ?XSTACK_DISP0_8
   \   00000E   12....       LCALL   ?Subroutine28 & 0xFFFF
   \                     ??CrossCallReturnLabel_46:
   \   000011   88..         MOV     ?V0 + 0,R0
   \   000013   89..         MOV     ?V0 + 1,R1
   2438            uint16 dataLen;
   2439          
   2440            dataLen = zclGetAttrDataLength( pAttr->attr.dataType, (uint8*)(pAttr->attr.dataPtr) );
   \   000015   EC           MOV     A,R4
   \   000016   2406         ADD     A,#0x6
   \   000018   F8           MOV     R0,A
   \   000019   ED           MOV     A,R5
   \   00001A   3400         ADDC    A,#0x0
   \   00001C   F9           MOV     R1,A
   \   00001D   88..         MOV     ?V0 + 2,R0
   \   00001F   89..         MOV     ?V0 + 3,R1
   \   000021                ; Setup parameters for call to function zclGetAttrDataLength
   \   000021   8882         MOV     DPL,R0
   \   000023   F583         MOV     DPH,A
   \   000025   12....       LCALL   ??Subroutine62_0 & 0xFFFF
   \                     ??CrossCallReturnLabel_130:
   \   000028   8C82         MOV     DPL,R4
   \   00002A   8D83         MOV     DPH,R5
   \   00002C   A3           INC     DPTR
   \   00002D   A3           INC     DPTR
   \   00002E   A3           INC     DPTR
   \   00002F   A3           INC     DPTR
   \   000030   E0           MOVX    A,@DPTR
   \   000031   F9           MOV     R1,A
   \   000032   12....       LCALL   ??zclGetAttrDataLength?relay
   \   000035   8A..         MOV     ?V0 + 4,R2
   \   000037   8B..         MOV     ?V0 + 5,R3
   2441            osal_memcpy( pAttrData, pAttr->attr.dataPtr, dataLen );
   \   000039                ; Setup parameters for call to function osal_memcpy
   \   000039   85..82       MOV     DPL,?V0 + 2
   \   00003C   85..83       MOV     DPH,?V0 + 3
   \   00003F   12....       LCALL   ?Subroutine26 & 0xFFFF
   \                     ??CrossCallReturnLabel_40:
   \   000042   12....       LCALL   ?PUSH_XSTACK_I_THREE
   \   000045   AC..         MOV     R4,?V0 + 4
   \   000047   AD..         MOV     R5,?V0 + 5
   \   000049   EE           MOV     A,R6
   \   00004A   FA           MOV     R2,A
   \   00004B   EF           MOV     A,R7
   \   00004C   FB           MOV     R3,A
   \   00004D   12....       LCALL   ??osal_memcpy?relay
   \   000050   7403         MOV     A,#0x3
   \   000052   12....       LCALL   ?DEALLOC_XSTACK8
   2442          
   2443            if ( pDataLen != NULL )
   \   000055   E5..         MOV     A,?V0 + 0
   \   000057   45..         ORL     A,?V0 + 1
   \   000059   600D         JZ      ??zclReadAttrData_0
   2444            {
   2445              *pDataLen = dataLen;
   \   00005B   85..82       MOV     DPL,?V0 + 0
   \   00005E   85..83       MOV     DPH,?V0 + 1
   \   000061   E5..         MOV     A,?V0 + 4
   \   000063   F0           MOVX    @DPTR,A
   \   000064   A3           INC     DPTR
   \   000065   E5..         MOV     A,?V0 + 5
   \   000067   F0           MOVX    @DPTR,A
   2446            }
   2447          
   2448            return ( ZCL_STATUS_SUCCESS );
   \                     ??zclReadAttrData_0:
   \   000068   7900         MOV     R1,#0x0
   \   00006A   7F0B         MOV     R7,#0xb
   \   00006C   02....       LJMP    ?BANKED_LEAVE_XDATA
   2449          }
   2450          
   2451          #ifdef ZCL_READ
   2452          /*********************************************************************
   2453           * @fn      zclGetAttrDataLengthUsingCB
   2454           *
   2455           * @brief   Use application's callback to get the length of the attribute's
   2456           *          current value stored in the database.
   2457           *
   2458           * @param   endpoint - application's endpoint
   2459           * @param   clusterId - cluster that attribute belongs to
   2460           * @param   attrId - attribute id
   2461           *
   2462           * @return  returns attribute length
   2463           */
   2464          static uint16 zclGetAttrDataLengthUsingCB( uint8 endpoint, uint16 clusterId, uint16 attrId )
   2465          {
   2466            uint16 dataLen = 0;
   2467            zclReadWriteCB_t pfnReadWriteCB = zclGetReadWriteCB( endpoint );
   2468          
   2469            if ( pfnReadWriteCB != NULL )
   2470            {
   2471              // Only get the attribute length
   2472              (*pfnReadWriteCB)( clusterId, attrId, ZCL_OPER_LEN, NULL, &dataLen );
   2473            }
   2474          
   2475            return ( dataLen );
   2476          }
   2477          
   2478          /*********************************************************************
   2479           * @fn      zclReadAttrDataUsingCB
   2480           *
   2481           * @brief   Use application's callback to read the attribute's current
   2482           *          value stored in the database.
   2483           *
   2484           * @param   endpoint - application's endpoint
   2485           * @param   clusterId - cluster that attribute belongs to
   2486           * @param   attrId - attribute id
   2487           * @param   pAttrData - where to put attribute data
   2488           * @param   pDataLen - where to put attribute data length
   2489           *
   2490           * @return  Successful if data was read
   2491           */
   2492          static ZStatus_t zclReadAttrDataUsingCB( uint8 endpoint, uint16 clusterId, uint16 attrId,
   2493                                                   uint8 *pAttrData, uint16 *pDataLen )
   2494          {
   2495            zclReadWriteCB_t pfnReadWriteCB = zclGetReadWriteCB( endpoint );
   2496          
   2497            if ( pDataLen != NULL )
   2498            {
   2499              *pDataLen = 0; // Always initialize it to 0
   2500            }
   2501          
   2502            if ( pfnReadWriteCB != NULL )
   2503            {
   2504              // Read the attribute value and its length
   2505              return ( (*pfnReadWriteCB)( clusterId, attrId, ZCL_OPER_READ, pAttrData, pDataLen ) );
   2506            }
   2507          
   2508            return ( ZCL_STATUS_SOFTWARE_FAILURE );
   2509          }
   2510          
   2511          /*********************************************************************
   2512           * @fn      zclAuthorizeRead
   2513           *
   2514           * @brief   Use application's callback to authorize a Read operation
   2515           *          on a given attribute.
   2516           *
   2517           * @param   endpoint - application's endpoint
   2518           * @param   srcAddr - source Address
   2519           * @param   pAttr - pointer to attribute
   2520           *
   2521           * @return  ZCL_STATUS_SUCCESS: Operation authorized
   2522           *          ZCL_STATUS_NOT_AUTHORIZED: Operation not authorized
   2523           */
   2524          static ZStatus_t zclAuthorizeRead( uint8 endpoint, afAddrType_t *srcAddr, zclAttrRec_t *pAttr )
   2525          {
   2526            if ( zcl_AccessCtrlAuthRead( pAttr->attr.accessControl ) )
   2527            {
   2528              zclAuthorizeCB_t pfnAuthorizeCB = zclGetAuthorizeCB( endpoint );
   2529          
   2530              if ( pfnAuthorizeCB != NULL )
   2531              {
   2532                return ( (*pfnAuthorizeCB)( srcAddr, pAttr, ZCL_OPER_READ ) );
   2533              }
   2534            }
   2535          
   2536            return ( ZCL_STATUS_SUCCESS );
   2537          }
   2538          #endif // ZCL_READ
   2539          
   2540          #ifdef ZCL_WRITE
   2541          /*********************************************************************
   2542           * @fn      zclWriteAttrData
   2543           *
   2544           * @brief   Write the received data.
   2545           *
   2546           * @param   endpoint - application's endpoint
   2547           * @param   pAttr - where to write data to
   2548           * @param   pWriteRec - data to be written
   2549           *
   2550           * @return  Successful if data was written
   2551           */
   2552          static ZStatus_t zclWriteAttrData( uint8 endpoint, afAddrType_t *srcAddr,
   2553                                             zclAttrRec_t *pAttr, zclWriteRec_t *pWriteRec )
   2554          {
   2555            uint8 status;
   2556          
   2557            if ( zcl_AccessCtrlWrite( pAttr->attr.accessControl ) )
   2558            {
   2559              status = zclAuthorizeWrite( endpoint, srcAddr, pAttr );
   2560              if ( status == ZCL_STATUS_SUCCESS )
   2561              {
   2562                if ( ( zcl_ValidateAttrDataCB == NULL ) || zcl_ValidateAttrDataCB( pAttr, pWriteRec ) )
   2563                {
   2564                  // Write the attribute value
   2565                  uint16 len = zclGetAttrDataLength( pAttr->attr.dataType, pWriteRec->attrData );
   2566                  osal_memcpy( pAttr->attr.dataPtr, pWriteRec->attrData, len );
   2567          
   2568                  status = ZCL_STATUS_SUCCESS;
   2569                }
   2570                else
   2571                {
   2572                  status = ZCL_STATUS_INVALID_VALUE;
   2573                }
   2574              }
   2575            }
   2576            else
   2577            {
   2578              status = ZCL_STATUS_READ_ONLY;
   2579            }
   2580          
   2581            return ( status );
   2582          }
   2583          
   2584          /*********************************************************************
   2585           * @fn      zclWriteAttrDataUsingCB
   2586           *
   2587           * @brief   Use application's callback to write the attribute's current
   2588           *          value stored in the database.
   2589           *
   2590           * @param   endpoint - application's endpoint
   2591           * @param   pAttr - where to write data to
   2592           * @param   pAttrData - data to be written
   2593           *
   2594           * @return  Successful if data was written
   2595           */
   2596          static ZStatus_t zclWriteAttrDataUsingCB( uint8 endpoint, afAddrType_t *srcAddr,
   2597                                                    zclAttrRec_t *pAttr, uint8 *pAttrData )
   2598          {
   2599            uint8 status;
   2600          
   2601            if ( zcl_AccessCtrlWrite( pAttr->attr.accessControl ) )
   2602            {
   2603              status = zclAuthorizeWrite( endpoint, srcAddr, pAttr );
   2604              if ( status == ZCL_STATUS_SUCCESS )
   2605              {
   2606                zclReadWriteCB_t pfnReadWriteCB = zclGetReadWriteCB( endpoint );
   2607                if ( pfnReadWriteCB != NULL )
   2608                {
   2609                  // Write the attribute value
   2610                  status = (*pfnReadWriteCB)( pAttr->clusterID, pAttr->attr.attrId,
   2611                                              ZCL_OPER_WRITE, pAttrData, NULL );
   2612                }
   2613                else
   2614                {
   2615                  status = ZCL_STATUS_SOFTWARE_FAILURE;
   2616                }
   2617              }
   2618            }
   2619            else
   2620            {
   2621              status = ZCL_STATUS_READ_ONLY;
   2622            }
   2623          
   2624            return ( status );
   2625          }
   2626          
   2627          /*********************************************************************
   2628           * @fn      zclAuthorizeWrite
   2629           *
   2630           * @brief   Use application's callback to authorize a Write operation
   2631           *          on a given attribute.
   2632           *
   2633           * @param   endpoint - application's endpoint
   2634           * @param   srcAddr - source Address
   2635           * @param   pAttr - pointer to attribute
   2636           *
   2637           * @return  ZCL_STATUS_SUCCESS: Operation authorized
   2638           *          ZCL_STATUS_NOT_AUTHORIZED: Operation not authorized
   2639           */
   2640          static ZStatus_t zclAuthorizeWrite( uint8 endpoint, afAddrType_t *srcAddr, zclAttrRec_t *pAttr )
   2641          {
   2642            if ( zcl_AccessCtrlAuthWrite( pAttr->attr.accessControl ) )
   2643            {
   2644              zclAuthorizeCB_t pfnAuthorizeCB = zclGetAuthorizeCB( endpoint );
   2645          
   2646              if ( pfnAuthorizeCB != NULL )
   2647              {
   2648                return ( (*pfnAuthorizeCB)( srcAddr, pAttr, ZCL_OPER_WRITE ) );
   2649              }
   2650            }
   2651          
   2652            return ( ZCL_STATUS_SUCCESS );
   2653          }
   2654          #endif // ZCL_WRITE
   2655          
   2656          #ifdef ZCL_READ
   2657          /*********************************************************************
   2658           * @fn      zclParseInReadCmd
   2659           *
   2660           * @brief   Parse the "Profile" Read Commands
   2661           *
   2662           *      NOTE: THIS FUNCTION ALLOCATES THE RETURN BUFFER, SO THE CALLING
   2663           *            FUNCTION IS RESPONSIBLE TO FREE THE MEMORY.
   2664           *
   2665           * @param   pCmd - pointer to incoming data to parse
   2666           *
   2667           * @return  pointer to the parsed command structure
   2668           */
   2669          void *zclParseInReadCmd( zclParseCmd_t *pCmd )
   2670          {
   2671            zclReadCmd_t *readCmd;
   2672            uint8 *pBuf = pCmd->pData;
   2673          
   2674            readCmd = (zclReadCmd_t *)osal_mem_alloc( sizeof ( zclReadCmd_t ) + pCmd->dataLen );
   2675            if ( readCmd != NULL )
   2676            {
   2677              readCmd->numAttr = pCmd->dataLen / 2; // Atrribute ID
   2678              for ( uint8 i = 0; i < readCmd->numAttr; i++ )
   2679              {
   2680                readCmd->attrID[i] = BUILD_UINT16( pBuf[0], pBuf[1] );
   2681                pBuf += 2;
   2682              }
   2683            }
   2684          
   2685            return ( (void *)readCmd );
   2686          }
   2687          
   2688          /*********************************************************************
   2689           * @fn      zclParseInReadRspCmd
   2690           *
   2691           * @brief   Parse the "Profile" Read Response Commands
   2692           *
   2693           *      NOTE: THIS FUNCTION ALLOCATES THE RETURN BUFFER, SO THE CALLING
   2694           *            FUNCTION IS RESPONSIBLE TO FREE THE MEMORY.
   2695           *
   2696           * @param   pCmd - pointer to incoming data to parse
   2697           *
   2698           * @return  pointer to the parsed command structure
   2699           */
   2700          static void *zclParseInReadRspCmd( zclParseCmd_t *pCmd )
   2701          {
   2702            zclReadRspCmd_t *readRspCmd;
   2703            uint8 *pBuf = pCmd->pData;
   2704            uint8 *dataPtr;
   2705            uint8 numAttr = 0;
   2706            uint8 hdrLen;
   2707            uint16 dataLen = 0;
   2708            uint16 attrDataLen;
   2709          
   2710            // find out the number of attributes and the length of attribute data
   2711            while ( pBuf < ( pCmd->pData + pCmd->dataLen ) )
   2712            {
   2713              uint8 status;
   2714          
   2715              numAttr++;
   2716              pBuf += 2; // move pass attribute id
   2717          
   2718              status = *pBuf++;
   2719              if ( status == ZCL_STATUS_SUCCESS )
   2720              {
   2721                uint8 dataType = *pBuf++;
   2722          
   2723                attrDataLen = zclGetAttrDataLength( dataType, pBuf );
   2724                pBuf += attrDataLen; // move pass attribute data
   2725          
   2726                // add padding if needed
   2727                if ( PADDING_NEEDED( attrDataLen ) )
   2728                {
   2729                  attrDataLen++;
   2730                }
   2731          
   2732                dataLen += attrDataLen;
   2733              }
   2734            }
   2735          
   2736            // calculate the length of the response header
   2737            hdrLen = sizeof( zclReadRspCmd_t ) + ( numAttr * sizeof( zclReadRspStatus_t ) );
   2738          
   2739            readRspCmd = (zclReadRspCmd_t *)osal_mem_alloc( hdrLen + dataLen );
   2740            if ( readRspCmd != NULL )
   2741            {
   2742              pBuf = pCmd->pData;
   2743              dataPtr = (uint8 *)( (uint8 *)readRspCmd + hdrLen );
   2744          
   2745              readRspCmd->numAttr = numAttr;
   2746              for ( uint8 i = 0; i < numAttr; i++ )
   2747              {
   2748                zclReadRspStatus_t *statusRec = &(readRspCmd->attrList[i]);
   2749          
   2750                statusRec->attrID = BUILD_UINT16( pBuf[0], pBuf[1] );
   2751                pBuf += 2;
   2752          
   2753                statusRec->status = *pBuf++;
   2754                if ( statusRec->status == ZCL_STATUS_SUCCESS )
   2755                {
   2756                  statusRec->dataType = *pBuf++;
   2757          
   2758                  attrDataLen = zclGetAttrDataLength( statusRec->dataType, pBuf );
   2759                  osal_memcpy( dataPtr, pBuf, attrDataLen);
   2760                  statusRec->data = dataPtr;
   2761          
   2762                  pBuf += attrDataLen; // move pass attribute data
   2763          
   2764                  // advance attribute data pointer
   2765                  if ( PADDING_NEEDED( attrDataLen ) )
   2766                  {
   2767                    attrDataLen++;
   2768                  }
   2769          
   2770                  dataPtr += attrDataLen;
   2771                }
   2772              }
   2773            }
   2774          
   2775            return ( (void *)readRspCmd );
   2776          }
   2777          #endif // ZCL_READ
   2778          
   2779          #ifdef ZCL_WRITE
   2780          /*********************************************************************
   2781           * @fn      zclParseInWriteCmd
   2782           *
   2783           * @brief   Parse the "Profile" Write, Write Undivided and Write No
   2784           *          Response Commands
   2785           *
   2786           *      NOTE: THIS FUNCTION ALLOCATES THE RETURN BUFFER, SO THE CALLING
   2787           *            FUNCTION IS RESPONSIBLE TO FREE THE MEMORY.
   2788           *
   2789           * @param   pCmd - pointer to incoming data to parse
   2790           *
   2791           * @return  pointer to the parsed command structure
   2792           */
   2793          void *zclParseInWriteCmd( zclParseCmd_t *pCmd )
   2794          {
   2795            zclWriteCmd_t *writeCmd;
   2796            uint8 *pBuf = pCmd->pData;
   2797            uint16 attrDataLen;
   2798            uint8 *dataPtr;
   2799            uint8 numAttr = 0;
   2800            uint8 hdrLen;
   2801            uint16 dataLen = 0;
   2802          
   2803            // find out the number of attributes and the length of attribute data
   2804            while ( pBuf < ( pCmd->pData + pCmd->dataLen ) )
   2805            {
   2806              uint8 dataType;
   2807          
   2808              numAttr++;
   2809              pBuf += 2; // move pass attribute id
   2810          
   2811              dataType = *pBuf++;
   2812          
   2813              attrDataLen = zclGetAttrDataLength( dataType, pBuf );
   2814              pBuf += attrDataLen; // move pass attribute data
   2815          
   2816              // add padding if needed
   2817              if ( PADDING_NEEDED( attrDataLen ) )
   2818              {
   2819                attrDataLen++;
   2820              }
   2821          
   2822              dataLen += attrDataLen;
   2823            }
   2824          
   2825            // calculate the length of the response header
   2826            hdrLen = sizeof( zclWriteCmd_t ) + ( numAttr * sizeof( zclWriteRec_t ) );
   2827          
   2828            writeCmd = (zclWriteCmd_t *)osal_mem_alloc( hdrLen + dataLen );
   2829            if ( writeCmd != NULL )
   2830            {
   2831              pBuf = pCmd->pData;
   2832              dataPtr = (uint8 *)( (uint8 *)writeCmd + hdrLen );
   2833          
   2834              writeCmd->numAttr = numAttr;
   2835              for ( uint8 i = 0; i < numAttr; i++ )
   2836              {
   2837                zclWriteRec_t *statusRec = &(writeCmd->attrList[i]);
   2838          
   2839                statusRec->attrID = BUILD_UINT16( pBuf[0], pBuf[1] );
   2840                pBuf += 2;
   2841                statusRec->dataType = *pBuf++;
   2842          
   2843                attrDataLen = zclGetAttrDataLength( statusRec->dataType, pBuf );
   2844                osal_memcpy( dataPtr, pBuf, attrDataLen);
   2845                statusRec->attrData = dataPtr;
   2846          
   2847                pBuf += attrDataLen; // move pass attribute data
   2848          
   2849                // advance attribute data pointer
   2850                if ( PADDING_NEEDED( attrDataLen ) )
   2851                {
   2852                  attrDataLen++;
   2853                }
   2854          
   2855                dataPtr += attrDataLen;
   2856              }
   2857            }
   2858          
   2859            return ( (void *)writeCmd );
   2860          }
   2861          
   2862          /*********************************************************************
   2863           * @fn      zclParseInWriteRspCmd
   2864           *
   2865           * @brief   Parse the "Profile" Write Response Commands
   2866           *
   2867           *      NOTE: THIS FUNCTION ALLOCATES THE RETURN BUFFER, SO THE CALLING
   2868           *            FUNCTION IS RESPONSIBLE TO FREE THE MEMORY.
   2869           *
   2870           * @param   pCmd - pointer to incoming data to parse
   2871           *
   2872           * @return  pointer to the parsed command structure
   2873           */
   2874          static void *zclParseInWriteRspCmd( zclParseCmd_t *pCmd )
   2875          {
   2876            zclWriteRspCmd_t *writeRspCmd;
   2877            uint8 *pBuf = pCmd->pData;
   2878            uint8 i = 0;
   2879          
   2880            writeRspCmd = (zclWriteRspCmd_t *)osal_mem_alloc( sizeof ( zclWriteRspCmd_t ) + pCmd->dataLen );
   2881            if ( writeRspCmd != NULL )
   2882            {
   2883              if ( pCmd->dataLen == 1 )
   2884              {
   2885                // special case when all writes were successfull
   2886                writeRspCmd->attrList[i++].status = *pBuf;
   2887              }
   2888              else
   2889              {
   2890                while ( pBuf < ( pCmd->pData + pCmd->dataLen ) )
   2891                {
   2892                  writeRspCmd->attrList[i].status = *pBuf++;
   2893                  writeRspCmd->attrList[i++].attrID = BUILD_UINT16( pBuf[0], pBuf[1] );
   2894                  pBuf += 2;
   2895                }
   2896              }
   2897          
   2898              writeRspCmd->numAttr = i;
   2899            }
   2900          
   2901            return ( (void *)writeRspCmd );
   2902          }
   2903          #endif // ZCL_WRITE
   2904          
   2905          #ifdef ZCL_REPORT
   2906          /*********************************************************************
   2907           * @fn      zclParseInConfigReportCmd
   2908           *
   2909           * @brief   Parse the "Profile" Configure Reporting Command
   2910           *
   2911           *      NOTE: THIS FUNCTION ALLOCATES THE RETURN BUFFER, SO THE CALLING
   2912           *            FUNCTION IS RESPONSIBLE TO FREE THE MEMORY.
   2913           *
   2914           * @param   pCmd - pointer to incoming data to parse
   2915           *
   2916           * @return  pointer to the parsed command structure
   2917           */
   2918          void *zclParseInConfigReportCmd( zclParseCmd_t *pCmd )
   2919          {
   2920            zclCfgReportCmd_t *cfgReportCmd;
   2921            uint8 *pBuf = pCmd->pData;
   2922            uint8 *dataPtr;
   2923            uint8 numAttr = 0;
   2924            uint8 dataType;
   2925            uint8 hdrLen;
   2926            uint16 dataLen = 0;
   2927            uint8 reportChangeLen; // length of Reportable Change field
   2928          
   2929            // Calculate the length of the Request command
   2930            while ( pBuf < ( pCmd->pData + pCmd->dataLen ) )
   2931            {
   2932              uint8 direction;
   2933          
   2934              numAttr++;
   2935              direction = *pBuf++;
   2936              pBuf += 2; // move pass the attribute ID
   2937          
   2938              // Is there a Reportable Change field?
   2939              if ( direction == ZCL_SEND_ATTR_REPORTS )
   2940              {
   2941                dataType = *pBuf++;
   2942                pBuf += 4; // move pass the Min and Max Reporting Intervals
   2943          
   2944                // For attributes of 'discrete' data types this field is omitted
   2945                if ( zclAnalogDataType( dataType ) )
   2946                {
   2947                  reportChangeLen = zclGetDataTypeLength( dataType );
   2948                  pBuf += reportChangeLen;
   2949          
   2950                  // add padding if needed
   2951                  if ( PADDING_NEEDED( reportChangeLen ) )
   2952                  {
   2953                    reportChangeLen++;
   2954                  }
   2955          
   2956                  dataLen += reportChangeLen;
   2957                }
   2958              }
   2959              else
   2960              {
   2961                pBuf += 2; // move pass the Timeout Period
   2962              }
   2963            } // while loop
   2964          
   2965            hdrLen = sizeof( zclCfgReportCmd_t ) + ( numAttr * sizeof( zclCfgReportRec_t ) );
   2966          
   2967            cfgReportCmd = (zclCfgReportCmd_t *)osal_mem_alloc( hdrLen + dataLen );
   2968            if ( cfgReportCmd != NULL )
   2969            {
   2970              pBuf = pCmd->pData;
   2971              dataPtr = (uint8 *)( (uint8 *)cfgReportCmd + hdrLen );
   2972          
   2973              cfgReportCmd->numAttr = numAttr;
   2974              for ( uint8 i = 0; i < numAttr; i++ )
   2975              {
   2976                zclCfgReportRec_t *reportRec = &(cfgReportCmd->attrList[i]);
   2977          
   2978                osal_memset( reportRec, 0, sizeof( zclCfgReportRec_t ) );
   2979          
   2980                reportRec->direction = *pBuf++;
   2981                reportRec->attrID = BUILD_UINT16( pBuf[0], pBuf[1] );
   2982                pBuf += 2;
   2983                if ( reportRec->direction == ZCL_SEND_ATTR_REPORTS )
   2984                {
   2985                  // Attribute to be reported
   2986                  reportRec->dataType = *pBuf++;
   2987                  reportRec->minReportInt = BUILD_UINT16( pBuf[0], pBuf[1] );
   2988                  pBuf += 2;
   2989                  reportRec->maxReportInt = BUILD_UINT16( pBuf[0], pBuf[1] );
   2990                  pBuf += 2;
   2991          
   2992                  // For attributes of 'discrete' data types this field is omitted
   2993                  if ( zclAnalogDataType( reportRec->dataType ) )
   2994                  {
   2995                    zcl_BuildAnalogData( reportRec->dataType, dataPtr, pBuf);
   2996                    reportRec->reportableChange = dataPtr;
   2997          
   2998                    reportChangeLen = zclGetDataTypeLength( reportRec->dataType );
   2999                    pBuf += reportChangeLen;
   3000          
   3001                    // advance attribute data pointer
   3002                    if ( PADDING_NEEDED( reportChangeLen ) )
   3003                    {
   3004                      reportChangeLen++;
   3005                    }
   3006          
   3007                    dataPtr += reportChangeLen;
   3008                  }
   3009                }
   3010                else
   3011                {
   3012                  // Attribute reports to be received
   3013                  reportRec->timeoutPeriod = BUILD_UINT16( pBuf[0], pBuf[1] );
   3014                  pBuf += 2;
   3015                }
   3016              } // while loop
   3017            }
   3018          
   3019            return ( (void *)cfgReportCmd );
   3020          }
   3021          
   3022          /*********************************************************************
   3023           * @fn      zclParseInConfigReportRspCmd
   3024           *
   3025           * @brief   Parse the "Profile" Configure Reporting Response Command
   3026           *
   3027           *      NOTE: THIS FUNCTION ALLOCATES THE RETURN BUFFER, SO THE CALLING
   3028           *            FUNCTION IS RESPONSIBLE TO FREE THE MEMORY.
   3029           *
   3030           * @param   pCmd - pointer to incoming data to parse
   3031           *
   3032           * @return  pointer to the parsed command structure
   3033           */
   3034          static void *zclParseInConfigReportRspCmd( zclParseCmd_t *pCmd )
   3035          {
   3036            zclCfgReportRspCmd_t *cfgReportRspCmd;
   3037            uint8 *pBuf = pCmd->pData;
   3038            uint8 numAttr;
   3039          
   3040            numAttr = pCmd->dataLen / ( 1 + 1 + 2 ); // Status + Direction + Attribute ID
   3041          
   3042            cfgReportRspCmd = (zclCfgReportRspCmd_t *)osal_mem_alloc( sizeof( zclCfgReportRspCmd_t )
   3043                                                      + ( numAttr * sizeof( zclCfgReportStatus_t ) ) );
   3044            if ( cfgReportRspCmd != NULL )
   3045            {
   3046              cfgReportRspCmd->numAttr = numAttr;
   3047              for ( uint8 i = 0; i < cfgReportRspCmd->numAttr; i++ )
   3048              {
   3049                cfgReportRspCmd->attrList[i].status = *pBuf++;
   3050                cfgReportRspCmd->attrList[i].direction = *pBuf++;
   3051                cfgReportRspCmd->attrList[i].attrID = BUILD_UINT16( pBuf[0], pBuf[1] );
   3052                pBuf += 2;
   3053              }
   3054            }
   3055          
   3056            return ( (void *)cfgReportRspCmd );
   3057          }
   3058          
   3059          /*********************************************************************
   3060           * @fn      zclParseInReadReportCfgCmd
   3061           *
   3062           * @brief   Parse the "Profile" Read Reporting Configuration Command
   3063           *
   3064           *      NOTE: THIS FUNCTION ALLOCATES THE RETURN BUFFER, SO THE CALLING
   3065           *            FUNCTION IS RESPONSIBLE TO FREE THE MEMORY.
   3066           *
   3067           * @param   pCmd - pointer to incoming data to parse
   3068           *
   3069           * @return  pointer to the parsed command structure
   3070           */
   3071          void *zclParseInReadReportCfgCmd( zclParseCmd_t *pCmd )
   3072          {
   3073            zclReadReportCfgCmd_t *readReportCfgCmd;
   3074            uint8 *pBuf = pCmd->pData;
   3075            uint8 numAttr;
   3076          
   3077            numAttr = pCmd->dataLen / ( 1 + 2 ); // Direction + Attribute ID
   3078          
   3079            readReportCfgCmd = (zclReadReportCfgCmd_t *)osal_mem_alloc( sizeof( zclReadReportCfgCmd_t )
   3080                                                            + ( numAttr * sizeof( zclReadReportCfgRec_t ) ) );
   3081            if ( readReportCfgCmd != NULL )
   3082            {
   3083              readReportCfgCmd->numAttr = numAttr;
   3084              for ( uint8 i = 0; i < readReportCfgCmd->numAttr; i++)
   3085              {
   3086                readReportCfgCmd->attrList[i].direction = *pBuf++;;
   3087                readReportCfgCmd->attrList[i].attrID = BUILD_UINT16( pBuf[0], pBuf[1] );
   3088                pBuf += 2;
   3089              }
   3090            }
   3091          
   3092            return ( (void *)readReportCfgCmd );
   3093          }
   3094          
   3095          /*********************************************************************
   3096           * @fn      zclParseInReadReportCfgRspCmd
   3097           *
   3098           * @brief   Parse the "Profile" Read Reporting Configuration Response Command
   3099           *
   3100           *      NOTE: THIS FUNCTION ALLOCATES THE RETURN BUFFER, SO THE CALLING
   3101           *            FUNCTION IS RESPONSIBLE TO FREE THE MEMORY.
   3102           *
   3103           * @param   pCmd - pointer to incoming data to parse
   3104           *
   3105           * @return  pointer to the parsed command structure
   3106           */
   3107          static void *zclParseInReadReportCfgRspCmd( zclParseCmd_t *pCmd )
   3108          {
   3109            zclReadReportCfgRspCmd_t *readReportCfgRspCmd;
   3110            uint8 reportChangeLen;
   3111            uint8 *pBuf = pCmd->pData;
   3112            uint8 *dataPtr;
   3113            uint8 numAttr = 0;
   3114            uint8 hdrLen;
   3115            uint16 dataLen = 0;
   3116          
   3117            // Calculate the length of the response command
   3118            while ( pBuf < ( pCmd->pData + pCmd->dataLen ) )
   3119            {
   3120              uint8 status;
   3121              uint8 direction;
   3122          
   3123              numAttr++;
   3124              status = *pBuf++;
   3125              direction = *pBuf++;
   3126              pBuf += 2; // move pass the attribute ID
   3127          
   3128              if ( status == ZCL_STATUS_SUCCESS )
   3129              {
   3130                if ( direction == ZCL_SEND_ATTR_REPORTS )
   3131                {
   3132                  uint8 dataType = *pBuf++;
   3133                  pBuf += 4; // move pass the Min and Max Reporting Intervals
   3134          
   3135                  // For attributes of 'discrete' data types this field is omitted
   3136                  if ( zclAnalogDataType( dataType ) )
   3137                  {
   3138                    reportChangeLen = zclGetDataTypeLength( dataType );
   3139                    pBuf += reportChangeLen;
   3140          
   3141                    // add padding if needed
   3142                    if ( PADDING_NEEDED( reportChangeLen ) )
   3143                    {
   3144                      reportChangeLen++;
   3145                    }
   3146          
   3147                    dataLen += reportChangeLen;
   3148                  }
   3149                }
   3150                else
   3151                {
   3152                  pBuf += 2; // move pass the Timeout field
   3153                }
   3154              }
   3155            } // while loop
   3156          
   3157            hdrLen = sizeof( zclReadReportCfgRspCmd_t ) + ( numAttr * sizeof( zclReportCfgRspRec_t ) );
   3158          
   3159            readReportCfgRspCmd = (zclReadReportCfgRspCmd_t *)osal_mem_alloc( hdrLen + dataLen );
   3160            if ( readReportCfgRspCmd != NULL )
   3161            {
   3162              pBuf = pCmd->pData;
   3163              dataPtr = (uint8 *)( (uint8 *)readReportCfgRspCmd + hdrLen );
   3164          
   3165              readReportCfgRspCmd->numAttr = numAttr;
   3166              for ( uint8 i = 0; i < numAttr; i++ )
   3167              {
   3168                zclReportCfgRspRec_t *reportRspRec = &(readReportCfgRspCmd->attrList[i]);
   3169          
   3170                reportRspRec->status = *pBuf++;
   3171                reportRspRec->direction = *pBuf++;
   3172                reportRspRec->attrID = BUILD_UINT16( pBuf[0], pBuf[1] );
   3173                pBuf += 2;
   3174          
   3175                if ( reportRspRec->status == ZCL_STATUS_SUCCESS )
   3176                {
   3177                  if ( reportRspRec->direction == ZCL_SEND_ATTR_REPORTS )
   3178                  {
   3179                    reportRspRec->dataType = *pBuf++;
   3180                    reportRspRec->minReportInt = BUILD_UINT16( pBuf[0], pBuf[1] );
   3181                    pBuf += 2;
   3182                    reportRspRec->maxReportInt = BUILD_UINT16( pBuf[0], pBuf[1] );
   3183                    pBuf += 2;
   3184          
   3185                    if ( zclAnalogDataType( reportRspRec->dataType ) )
   3186                    {
   3187                      zcl_BuildAnalogData( reportRspRec->dataType, dataPtr, pBuf);
   3188                      reportRspRec->reportableChange = dataPtr;
   3189          
   3190                      reportChangeLen = zclGetDataTypeLength( reportRspRec->dataType );
   3191                      pBuf += reportChangeLen;
   3192          
   3193                      // advance attribute data pointer
   3194                      if ( PADDING_NEEDED( reportChangeLen ) )
   3195                      {
   3196                        reportChangeLen++;
   3197                      }
   3198          
   3199                      dataPtr += reportChangeLen;
   3200                    }
   3201                  }
   3202                  else
   3203                  {
   3204                    reportRspRec->timeoutPeriod = BUILD_UINT16( pBuf[0], pBuf[1] );
   3205                    pBuf += 2;
   3206                  }
   3207                }
   3208              }
   3209            }
   3210          
   3211            return ( (void *)readReportCfgRspCmd );
   3212          }
   3213          
   3214          /*********************************************************************
   3215           * @fn      zclParseInReportCmd
   3216           *
   3217           * @brief   Parse the "Profile" Report Command
   3218           *
   3219           *      NOTE: THIS FUNCTION ALLOCATES THE RETURN BUFFER, SO THE CALLING
   3220           *            FUNCTION IS RESPONSIBLE TO FREE THE MEMORY.
   3221           *
   3222           * @param   pCmd - pointer to incoming data to parse
   3223           *
   3224           * @return  pointer to the parsed command structure
   3225           */
   3226          void *zclParseInReportCmd( zclParseCmd_t *pCmd )
   3227          {
   3228            zclReportCmd_t *reportCmd;
   3229            uint8 *pBuf = pCmd->pData;
   3230            uint16 attrDataLen;
   3231            uint8 *dataPtr;
   3232            uint8 numAttr = 0;
   3233            uint8 hdrLen;
   3234            uint16 dataLen = 0;
   3235          
   3236            // find out the number of attributes and the length of attribute data
   3237            while ( pBuf < ( pCmd->pData + pCmd->dataLen ) )
   3238            {
   3239              uint8 dataType;
   3240          
   3241              numAttr++;
   3242              pBuf += 2; // move pass attribute id
   3243          
   3244              dataType = *pBuf++;
   3245          
   3246              attrDataLen = zclGetAttrDataLength( dataType, pBuf );
   3247              pBuf += attrDataLen; // move pass attribute data
   3248          
   3249              // add padding if needed
   3250              if ( PADDING_NEEDED( attrDataLen ) )
   3251              {
   3252                attrDataLen++;
   3253              }
   3254          
   3255              dataLen += attrDataLen;
   3256            }
   3257          
   3258            hdrLen = sizeof( zclReportCmd_t ) + ( numAttr * sizeof( zclReport_t ) );
   3259          
   3260            reportCmd = (zclReportCmd_t *)osal_mem_alloc( hdrLen + dataLen );
   3261            if (reportCmd != NULL )
   3262            {
   3263              pBuf = pCmd->pData;
   3264              dataPtr = (uint8 *)( (uint8 *)reportCmd + hdrLen );
   3265          
   3266              reportCmd->numAttr = numAttr;
   3267              for ( uint8 i = 0; i < numAttr; i++ )
   3268              {
   3269                zclReport_t *reportRec = &(reportCmd->attrList[i]);
   3270          
   3271                reportRec->attrID = BUILD_UINT16( pBuf[0], pBuf[1] );
   3272                pBuf += 2;
   3273                reportRec->dataType = *pBuf++;
   3274          
   3275                attrDataLen = zclGetAttrDataLength( reportRec->dataType, pBuf );
   3276                osal_memcpy( dataPtr, pBuf, attrDataLen );
   3277                reportRec->attrData = dataPtr;
   3278          
   3279                pBuf += attrDataLen; // move pass attribute data
   3280          
   3281                // advance attribute data pointer
   3282                if ( PADDING_NEEDED( attrDataLen ) )
   3283                {
   3284                  attrDataLen++;
   3285                }
   3286          
   3287                dataPtr += attrDataLen;
   3288              }
   3289            }
   3290          
   3291            return ( (void *)reportCmd );
   3292          }
   3293          #endif // ZCL_REPORT
   3294          
   3295          /*********************************************************************
   3296           * @fn      zclParseInDefaultRspCmd
   3297           *
   3298           * @brief   Parse the "Profile" Default Response Command
   3299           *
   3300           *      NOTE: THIS FUNCTION ALLOCATES THE RETURN BUFFER, SO THE CALLING
   3301           *            FUNCTION IS RESPONSIBLE TO FREE THE MEMORY.
   3302           *
   3303           * @param   pCmd - pointer to incoming data to parse
   3304           *
   3305           * @return  pointer to the parsed command structure
   3306           */

   \                                 In  segment BANKED_CODE, align 1, keep-with-next
   3307          static void *zclParseInDefaultRspCmd( zclParseCmd_t *pCmd )
   \                     zclParseInDefaultRspCmd:
   3308          {
   \   000000   74F6         MOV     A,#-0xa
   \   000002   12....       LCALL   ?BANKED_ENTER_XDATA
   \   000005                ; Saved register size: 10
   \   000005                ; Auto size: 0
   3309            zclDefaultRspCmd_t *defaultRspCmd;
   3310            uint8 *pBuf = pCmd->pData;
   \   000005   8A82         MOV     DPL,R2
   \   000007   8B83         MOV     DPH,R3
   \   000009   A3           INC     DPTR
   \   00000A   A3           INC     DPTR
   \   00000B   A3           INC     DPTR
   \   00000C   E0           MOVX    A,@DPTR
   \   00000D   FE           MOV     R6,A
   \   00000E   A3           INC     DPTR
   \   00000F   E0           MOVX    A,@DPTR
   \   000010   FF           MOV     R7,A
   3311          
   3312            defaultRspCmd = (zclDefaultRspCmd_t *)osal_mem_alloc( sizeof ( zclDefaultRspCmd_t ) );
   \   000011                ; Setup parameters for call to function osal_mem_alloc
   \   000011   7A02         MOV     R2,#0x2
   \   000013   7B00         MOV     R3,#0x0
   \   000015   12....       LCALL   ??osal_mem_alloc?relay
   3313            if ( defaultRspCmd != NULL )
   \   000018   EA           MOV     A,R2
   \   000019   4B           ORL     A,R3
   \   00001A   600B         JZ      ??zclParseInDefaultRspCmd_0
   3314            {
   3315              defaultRspCmd->commandID = *pBuf++;
   \   00001C   12....       LCALL   ?Subroutine31 & 0xFFFF
   \                     ??CrossCallReturnLabel_137:
   \   00001F   12....       LCALL   ?Subroutine13 & 0xFFFF
   3316              defaultRspCmd->statusCode = *pBuf;
   \                     ??CrossCallReturnLabel_18:
   \   000022   12....       LCALL   ??Subroutine63_0 & 0xFFFF
   3317            }
   \                     ??CrossCallReturnLabel_134:
   \   000025   A3           INC     DPTR
   \   000026   F0           MOVX    @DPTR,A
   3318          
   3319            return ( (void *)defaultRspCmd );
   \                     ??zclParseInDefaultRspCmd_0:
   \   000027   02....       LJMP    ?Subroutine4 & 0xFFFF
   3320          }
   3321          
   3322          #ifdef ZCL_DISCOVER
   3323          /*********************************************************************
   3324           * @fn      zclParseInDiscCmd
   3325           *
   3326           * @brief   Parse the "Profile" Discovery Commands
   3327           *
   3328           *      NOTE: THIS FUNCTION ALLOCATES THE RETURN BUFFER, SO THE CALLING
   3329           *            FUNCTION IS RESPONSIBLE TO FREE THE MEMORY.
   3330           *
   3331           * @param   pCmd - pointer to incoming data to parse
   3332           *
   3333           * @return  pointer to the parsed command structure
   3334           */
   3335          void *zclParseInDiscCmd( zclParseCmd_t *pCmd )
   3336          {
   3337            zclDiscoverCmd_t *discoverCmd;
   3338            uint8 *pBuf = pCmd->pData;
   3339          
   3340            discoverCmd = (zclDiscoverCmd_t *)osal_mem_alloc( sizeof ( zclDiscoverCmd_t ) );
   3341            if ( discoverCmd != NULL )
   3342            {
   3343              discoverCmd->startAttr = BUILD_UINT16( pBuf[0], pBuf[1] );
   3344              pBuf += 2;
   3345              discoverCmd->maxAttrIDs = *pBuf;
   3346            }
   3347          
   3348            return ( (void *)discoverCmd );
   3349          }
   3350          
   3351          /*********************************************************************
   3352           * @fn      zclParseInDiscRspCmd
   3353           *
   3354           * @brief   Parse the "Profile" Discovery Response Commands
   3355           *
   3356           *      NOTE: THIS FUNCTION ALLOCATES THE RETURN BUFFER, SO THE CALLING
   3357           *            FUNCTION IS RESPONSIBLE TO FREE THE MEMORY.
   3358           *
   3359           * @param   pCmd - pointer to incoming data to parse
   3360           *
   3361           * @return  pointer to the parsed command structure
   3362           */
   3363          #define ZCLDISCRSPCMD_DATALEN(a)  ((a)-1) // data len - Discovery Complete
   3364          static void *zclParseInDiscRspCmd( zclParseCmd_t *pCmd )
   3365          {
   3366            zclDiscoverRspCmd_t *discoverRspCmd;
   3367            uint8 *pBuf = pCmd->pData;
   3368            uint8 numAttr = ZCLDISCRSPCMD_DATALEN(pCmd->dataLen) / ( 2 + 1 ); // Attr ID + Data Type
   3369          
   3370            discoverRspCmd = (zclDiscoverRspCmd_t *)osal_mem_alloc( sizeof ( zclDiscoverRspCmd_t )
   3371                                                           + ( numAttr * sizeof(zclDiscoverInfo_t) ) );
   3372            if ( discoverRspCmd != NULL )
   3373            {
   3374              discoverRspCmd->discComplete = *pBuf++;
   3375              discoverRspCmd->numAttr = numAttr;
   3376          
   3377              for ( uint8 i = 0; i < numAttr; i++ )
   3378              {
   3379                discoverRspCmd->attrList[i].attrID = BUILD_UINT16( pBuf[0], pBuf[1] );
   3380                pBuf += 2;
   3381                discoverRspCmd->attrList[i].dataType = *pBuf++;;
   3382              }
   3383            }
   3384          
   3385            return ( (void *)discoverRspCmd );
   3386          }
   3387          #endif // ZCL_DISCOVER
   3388          
   3389          #ifdef ZCL_READ
   3390          /*********************************************************************
   3391           * @fn      zclProcessInReadCmd
   3392           *
   3393           * @brief   Process the "Profile" Read Command
   3394           *
   3395           * @param   pInMsg - incoming message to process
   3396           *
   3397           * @return  TRUE if command processed. FALSE, otherwise.
   3398           */
   3399          static uint8 zclProcessInReadCmd( zclIncoming_t *pInMsg )
   3400          {
   3401            zclReadCmd_t *readCmd;
   3402            zclReadRspCmd_t *readRspCmd;
   3403            zclAttrRec_t attrRec;
   3404            uint16 len;
   3405          
   3406            readCmd = (zclReadCmd_t *)pInMsg->attrCmd;
   3407          
   3408            // calculate the length of the response status record
   3409            len = sizeof( zclReadRspCmd_t ) + (readCmd->numAttr * sizeof( zclReadRspStatus_t ));
   3410          
   3411            readRspCmd = osal_mem_alloc( len );
   3412            if ( readRspCmd == NULL )
   3413            {
   3414              return FALSE; // EMBEDDED RETURN
   3415            }
   3416          
   3417            readRspCmd->numAttr = readCmd->numAttr;
   3418            for ( uint8 i = 0; i < readCmd->numAttr; i++ )
   3419            {
   3420              zclReadRspStatus_t *statusRec = &(readRspCmd->attrList[i]);
   3421          
   3422              statusRec->attrID = readCmd->attrID[i];
   3423          
   3424              if ( zclFindAttrRec( pInMsg->msg->endPoint, pInMsg->msg->clusterId,
   3425                                   readCmd->attrID[i], &attrRec ) )
   3426              {
   3427                if ( zcl_AccessCtrlRead( attrRec.attr.accessControl ) )
   3428                {
   3429                  statusRec->status = zclAuthorizeRead( pInMsg->msg->endPoint,
   3430                                                        &(pInMsg->msg->srcAddr), &attrRec );
   3431                  if ( statusRec->status == ZCL_STATUS_SUCCESS )
   3432                  {
   3433                    statusRec->data = attrRec.attr.dataPtr;
   3434                    statusRec->dataType = attrRec.attr.dataType;
   3435                  }
   3436                }
   3437                else
   3438                {
   3439                  statusRec->status = ZCL_STATUS_WRITE_ONLY;
   3440                }
   3441              }
   3442              else
   3443              {
   3444                statusRec->status = ZCL_STATUS_UNSUPPORTED_ATTRIBUTE;
   3445              }
   3446            }
   3447          
   3448            // Build and send Read Response command
   3449            zcl_SendReadRsp( pInMsg->msg->endPoint, &(pInMsg->msg->srcAddr), pInMsg->msg->clusterId,
   3450                             readRspCmd, ZCL_FRAME_SERVER_CLIENT_DIR,
   3451                             true, pInMsg->hdr.transSeqNum );
   3452            osal_mem_free( readRspCmd );
   3453          
   3454            return TRUE;
   3455          }
   3456          #endif // ZCL_READ
   3457          
   3458          #ifdef ZCL_WRITE
   3459          /*********************************************************************
   3460           * @fn      processInWriteCmd
   3461           *
   3462           * @brief   Process the "Profile" Write and Write No Response Commands
   3463           *
   3464           * @param   pInMsg - incoming message to process
   3465           *
   3466           * @return  TRUE if command processed. FALSE, otherwise.
   3467           */
   3468          static uint8 zclProcessInWriteCmd( zclIncoming_t *pInMsg )
   3469          {
   3470            zclWriteCmd_t *writeCmd;
   3471            zclWriteRspCmd_t *writeRspCmd;
   3472            uint8 sendRsp = FALSE;
   3473            uint8 j = 0;
   3474          
   3475            writeCmd = (zclWriteCmd_t *)pInMsg->attrCmd;
   3476            if ( pInMsg->hdr.commandID == ZCL_CMD_WRITE )
   3477            {
   3478              // We need to send a response back - allocate space for it
   3479              writeRspCmd = (zclWriteRspCmd_t *)osal_mem_alloc( sizeof( zclWriteRspCmd_t )
   3480                      + sizeof( zclWriteRspStatus_t ) * writeCmd->numAttr );
   3481              if ( writeRspCmd == NULL )
   3482              {
   3483                return FALSE; // EMBEDDED RETURN
   3484              }
   3485          
   3486              sendRsp = TRUE;
   3487            }
   3488          
   3489            for ( uint8 i = 0; i < writeCmd->numAttr; i++ )
   3490            {
   3491              zclAttrRec_t attrRec;
   3492              zclWriteRec_t *statusRec = &(writeCmd->attrList[i]);
   3493          
   3494              if ( zclFindAttrRec( pInMsg->msg->endPoint, pInMsg->msg->clusterId,
   3495                                   statusRec->attrID, &attrRec ) )
   3496              {
   3497                if ( statusRec->dataType == attrRec.attr.dataType )
   3498                {
   3499                  uint8 status;
   3500          
   3501                  // Write the new attribute value
   3502                  if ( attrRec.attr.dataPtr != NULL )
   3503                  {
   3504                    status = zclWriteAttrData( pInMsg->msg->endPoint, &(pInMsg->msg->srcAddr),
   3505                                               &attrRec, statusRec );
   3506                  }
   3507                  else // Use CB
   3508                  {
   3509                    status = zclWriteAttrDataUsingCB( pInMsg->msg->endPoint, &(pInMsg->msg->srcAddr),
   3510                                                      &attrRec, statusRec->attrData );
   3511                  }
   3512          
   3513                  // If successful, a write attribute status record shall NOT be generated
   3514                  if ( sendRsp && status != ZCL_STATUS_SUCCESS )
   3515                  {
   3516                    // Attribute is read only - move on to the next write attribute record
   3517                    writeRspCmd->attrList[j].status = status;
   3518                    writeRspCmd->attrList[j++].attrID = statusRec->attrID;
   3519                  }
   3520                }
   3521                else
   3522                {
   3523                  // Attribute data type is incorrect - move on to the next write attribute record
   3524                  if ( sendRsp )
   3525                  {
   3526                    writeRspCmd->attrList[j].status = ZCL_STATUS_INVALID_DATA_TYPE;
   3527                    writeRspCmd->attrList[j++].attrID = statusRec->attrID;
   3528                  }
   3529                }
   3530              }
   3531              else
   3532              {
   3533                // Attribute is not supported - move on to the next write attribute record
   3534                if ( sendRsp )
   3535                {
   3536                  writeRspCmd->attrList[j].status = ZCL_STATUS_UNSUPPORTED_ATTRIBUTE;
   3537                  writeRspCmd->attrList[j++].attrID = statusRec->attrID;
   3538                }
   3539              }
   3540            } // for loop
   3541          
   3542            if ( sendRsp )
   3543            {
   3544              writeRspCmd->numAttr = j;
   3545              if ( writeRspCmd->numAttr == 0 )
   3546              {
   3547                // Since all records were written successful, include a single status record
   3548                // in the resonse command with the status field set to SUCCESS and the
   3549                // attribute ID field omitted.
   3550                writeRspCmd->attrList[0].status = ZCL_STATUS_SUCCESS;
   3551                writeRspCmd->numAttr = 1;
   3552              }
   3553          
   3554              zcl_SendWriteRsp( pInMsg->msg->endPoint, &(pInMsg->msg->srcAddr),
   3555                                pInMsg->msg->clusterId, writeRspCmd, ZCL_FRAME_SERVER_CLIENT_DIR,
   3556                                true, pInMsg->hdr.transSeqNum );
   3557              osal_mem_free( writeRspCmd );
   3558            }
   3559          
   3560            return TRUE;
   3561          }
   3562          
   3563          /*********************************************************************
   3564           * @fn      zclRevertWriteUndividedCmd
   3565           *
   3566           * @brief   Revert the "Profile" Write Undevided Command
   3567           *
   3568           * @param   pInMsg - incoming message to process
   3569           * @param   curWriteRec - old data
   3570           * @param   numAttr - number of attributes to be reverted
   3571           *
   3572           * @return  none
   3573           */
   3574          static void zclRevertWriteUndividedCmd( zclIncoming_t *pInMsg,
   3575                                              zclWriteRec_t *curWriteRec, uint16 numAttr )
   3576          {
   3577            for ( uint8 i = 0; i < numAttr; i++ )
   3578            {
   3579              zclAttrRec_t attrRec;
   3580              zclWriteRec_t *statusRec = &(curWriteRec[i]);
   3581          
   3582              if ( !zclFindAttrRec( pInMsg->msg->endPoint, pInMsg->msg->clusterId,
   3583                                    statusRec->attrID, &attrRec ) )
   3584              {
   3585                break; // should never happen
   3586              }
   3587          
   3588              if ( attrRec.attr.dataPtr != NULL )
   3589              {
   3590                // Just copy the old data back - no need to validate the data
   3591                uint16 dataLen = zclGetAttrDataLength( attrRec.attr.dataType, statusRec->attrData );
   3592                osal_memcpy( attrRec.attr.dataPtr, statusRec->attrData, dataLen );
   3593              }
   3594              else // Use CB
   3595              {
   3596                // Write the old data back
   3597                zclWriteAttrDataUsingCB( pInMsg->msg->endPoint, &(pInMsg->msg->srcAddr),
   3598                                         &attrRec, statusRec->attrData );
   3599              }
   3600            } // for loop
   3601          }
   3602          
   3603          /*********************************************************************
   3604           * @fn      zclProcessInWriteUndividedCmd
   3605           *
   3606           * @brief   Process the "Profile" Write Undivided Command
   3607           *
   3608           * @param   pInMsg - incoming message to process
   3609           *
   3610           * @return  TRUE if command processed. FALSE, otherwise.
   3611           */
   3612          static uint8 zclProcessInWriteUndividedCmd( zclIncoming_t *pInMsg )
   3613          {
   3614            zclWriteCmd_t *writeCmd;
   3615            zclWriteRspCmd_t *writeRspCmd;
   3616            zclAttrRec_t attrRec;
   3617            uint16 dataLen;
   3618            uint16 curLen = 0;
   3619            uint8 j = 0;
   3620          
   3621            writeCmd = (zclWriteCmd_t *)pInMsg->attrCmd;
   3622          
   3623            // Allocate space for Write Response Command
   3624            writeRspCmd = (zclWriteRspCmd_t *)osal_mem_alloc( sizeof( zclWriteRspCmd_t )
   3625                             + sizeof( zclWriteRspStatus_t )* writeCmd->numAttr );
   3626            if ( writeRspCmd == NULL )
   3627            {
   3628              return FALSE; // EMBEDDED RETURN
   3629            }
   3630          
   3631            // If any attribute cannot be written, no attribute values are changed. Hence,
   3632            // make sure all the attributes are supported and writable
   3633            for ( uint8 i = 0; i < writeCmd->numAttr; i++ )
   3634            {
   3635              zclWriteRec_t *statusRec = &(writeCmd->attrList[i]);
   3636          
   3637              if ( !zclFindAttrRec( pInMsg->msg->endPoint, pInMsg->msg->clusterId,
   3638                                    statusRec->attrID, &attrRec ) )
   3639              {
   3640                // Attribute is not supported - stop here
   3641                writeRspCmd->attrList[j].status = ZCL_STATUS_UNSUPPORTED_ATTRIBUTE;
   3642                writeRspCmd->attrList[j++].attrID = statusRec->attrID;
   3643                break;
   3644              }
   3645          
   3646              if ( statusRec->dataType != attrRec.attr.dataType )
   3647              {
   3648                // Attribute data type is incorrect - stope here
   3649                writeRspCmd->attrList[j].status = ZCL_STATUS_INVALID_DATA_TYPE;
   3650                writeRspCmd->attrList[j++].attrID = statusRec->attrID;
   3651                break;
   3652              }
   3653          
   3654              if ( !zcl_AccessCtrlWrite( attrRec.attr.accessControl ) )
   3655              {
   3656                // Attribute is not writable - stop here
   3657                writeRspCmd->attrList[j].status = ZCL_STATUS_READ_ONLY;
   3658                writeRspCmd->attrList[j++].attrID = statusRec->attrID;
   3659                break;
   3660              }
   3661          
   3662              if ( zcl_AccessCtrlAuthWrite( attrRec.attr.accessControl ) )
   3663              {
   3664                // Not authorized to write - stop here
   3665                writeRspCmd->attrList[j].status = ZCL_STATUS_NOT_AUTHORIZED;
   3666                writeRspCmd->attrList[j++].attrID = statusRec->attrID;
   3667                break;
   3668              }
   3669          
   3670              // Attribute Data length
   3671              if ( attrRec.attr.dataPtr != NULL )
   3672              {
   3673                dataLen = zclGetAttrDataLength( attrRec.attr.dataType, attrRec.attr.dataPtr );
   3674              }
   3675              else // Use CB
   3676              {
   3677                dataLen = zclGetAttrDataLengthUsingCB( pInMsg->msg->endPoint, pInMsg->msg->clusterId,
   3678                                                       statusRec->attrID );
   3679              }
   3680          
   3681              // add padding if needed
   3682              if ( PADDING_NEEDED( dataLen ) )
   3683              {
   3684                dataLen++;
   3685              }
   3686          
   3687              curLen += dataLen;
   3688            } // for loop
   3689          
   3690            writeRspCmd->numAttr = j;
   3691            if ( writeRspCmd->numAttr == 0 ) // All attributes can be written
   3692            {
   3693              uint8 *curDataPtr;
   3694              zclWriteRec_t *curWriteRec;
   3695          
   3696              // calculate the length of the current data header
   3697              uint8 hdrLen = j * sizeof( zclWriteRec_t );
   3698          
   3699              // Allocate space to keep a copy of the current data
   3700              curWriteRec = (zclWriteRec_t *) osal_mem_alloc( hdrLen + curLen );
   3701              if ( curWriteRec == NULL )
   3702              {
   3703                osal_mem_free(writeRspCmd );
   3704                return FALSE; // EMBEDDED RETURN
   3705              }
   3706          
   3707              curDataPtr = (uint8 *)((uint8 *)curWriteRec + hdrLen);
   3708          
   3709              // Write the new data over
   3710              for ( uint8 i = 0; i < writeCmd->numAttr; i++ )
   3711              {
   3712                uint8 status;
   3713                zclWriteRec_t *statusRec = &(writeCmd->attrList[i]);
   3714                zclWriteRec_t *curStatusRec = &(curWriteRec[i]);
   3715          
   3716                if ( !zclFindAttrRec( pInMsg->msg->endPoint, pInMsg->msg->clusterId,
   3717                                      statusRec->attrID, &attrRec ) )
   3718                {
   3719                  break; // should never happen
   3720                }
   3721          
   3722                // Keep a copy of the current data before before writing the new data over
   3723                curStatusRec->attrID = statusRec->attrID;
   3724                curStatusRec->attrData = curDataPtr;
   3725          
   3726                if ( attrRec.attr.dataPtr != NULL )
   3727                {
   3728                  // Read the current value
   3729                  zclReadAttrData( curDataPtr, &attrRec, &dataLen );
   3730          
   3731                  // Write the new attribute value
   3732                  status = zclWriteAttrData( pInMsg->msg->endPoint, &(pInMsg->msg->srcAddr),
   3733                                             &attrRec, statusRec );
   3734                }
   3735                else // Use CBs
   3736                {
   3737                  // Read the current value
   3738                  zclReadAttrDataUsingCB( pInMsg->msg->endPoint, pInMsg->msg->clusterId,
   3739                                          statusRec->attrID, curDataPtr, &dataLen );
   3740                  // Write the new attribute value
   3741                  status = zclWriteAttrDataUsingCB( pInMsg->msg->endPoint, &(pInMsg->msg->srcAddr),
   3742                                                    &attrRec, statusRec->attrData );
   3743                }
   3744          
   3745                // If successful, a write attribute status record shall NOT be generated
   3746                if ( status != ZCL_STATUS_SUCCESS )
   3747                {
   3748                  writeRspCmd->attrList[j].status = status;
   3749                  writeRspCmd->attrList[j++].attrID = statusRec->attrID;
   3750          
   3751                  // Since this write failed, we need to revert all the pervious writes
   3752                  zclRevertWriteUndividedCmd( pInMsg, curWriteRec, i);
   3753                  break;
   3754                }
   3755          
   3756                // add padding if needed
   3757                if ( PADDING_NEEDED( dataLen ) )
   3758                {
   3759                  dataLen++;
   3760                }
   3761          
   3762                curDataPtr += dataLen;
   3763              } // for loop
   3764          
   3765              writeRspCmd->numAttr = j;
   3766              if ( writeRspCmd->numAttr  == 0 )
   3767              {
   3768                // Since all records were written successful, include a single status record
   3769                // in the resonse command with the status field set to SUCCESS and the
   3770                // attribute ID field omitted.
   3771                writeRspCmd->attrList[0].status = ZCL_STATUS_SUCCESS;
   3772                writeRspCmd->numAttr = 1;
   3773              }
   3774          
   3775              osal_mem_free( curWriteRec );
   3776            }
   3777          
   3778            zcl_SendWriteRsp( pInMsg->msg->endPoint, &(pInMsg->msg->srcAddr),
   3779                              pInMsg->msg->clusterId, writeRspCmd, ZCL_FRAME_SERVER_CLIENT_DIR,
   3780                              true, pInMsg->hdr.transSeqNum );
   3781            osal_mem_free( writeRspCmd );
   3782          
   3783            return TRUE;
   3784          }
   3785          #endif // ZCL_WRITE
   3786          
   3787          #ifdef ZCL_DISCOVER
   3788          /*********************************************************************
   3789           * @fn      zclProcessInDiscCmd
   3790           *
   3791           * @brief   Process the "Profile" Discover Command
   3792           *
   3793           * @param   pInMsg - incoming message to process
   3794           *
   3795           * @return  TRUE if command processed. FALSE, otherwise.
   3796           */
   3797          static uint8 zclProcessInDiscCmd( zclIncoming_t *pInMsg )
   3798          {
   3799            zclDiscoverCmd_t *discoverCmd;
   3800            zclDiscoverRspCmd_t *discoverRspCmd;
   3801            uint8 discComplete = TRUE;
   3802            zclAttrRec_t attrRec;
   3803            uint16 attrID;
   3804            uint8 i;
   3805          
   3806            discoverCmd = (zclDiscoverCmd_t *)pInMsg->attrCmd;
   3807          
   3808            // Find out the number of attributes supported within the specified range
   3809            for ( i = 0, attrID = discoverCmd->startAttr; i < discoverCmd->maxAttrIDs; i++, attrID++ )
   3810            {
   3811              if ( !zclFindNextAttrRec( pInMsg->msg->endPoint, pInMsg->msg->clusterId, &attrID, &attrRec ) )
   3812              {
   3813                break;
   3814              }
   3815            }
   3816          
   3817            // Allocate space for the response command
   3818            discoverRspCmd = (zclDiscoverRspCmd_t *)osal_mem_alloc( sizeof (zclDiscoverRspCmd_t)
   3819                                                                   + sizeof ( zclDiscoverInfo_t ) * i );
   3820            if ( discoverRspCmd == NULL )
   3821            {
   3822              return FALSE; // EMEDDED RETURN
   3823            }
   3824          
   3825            discoverRspCmd->numAttr = i;
   3826            if ( discoverRspCmd->numAttr != 0 )
   3827            {
   3828              for ( i = 0, attrID = discoverCmd->startAttr; i < discoverRspCmd->numAttr; i++, attrID++ )
   3829              {
   3830                if ( !zclFindNextAttrRec( pInMsg->msg->endPoint, pInMsg->msg->clusterId, &attrID, &attrRec ) )
   3831                {
   3832                  break; // Attribute not supported
   3833                }
   3834          
   3835                discoverRspCmd->attrList[i].attrID = attrRec.attr.attrId;
   3836                discoverRspCmd->attrList[i].dataType = attrRec.attr.dataType;
   3837              }
   3838          
   3839              // Are there more attributes to be discovered?
   3840              if ( zclFindNextAttrRec( pInMsg->msg->endPoint, pInMsg->msg->clusterId, &attrID, &attrRec ) )
   3841              {
   3842                discComplete = FALSE;
   3843              }
   3844            }
   3845          
   3846            discoverRspCmd->discComplete = discComplete;
   3847            zcl_SendDiscoverRspCmd( pInMsg->msg->endPoint, &pInMsg->msg->srcAddr,
   3848                                    pInMsg->msg->clusterId, discoverRspCmd, ZCL_FRAME_SERVER_CLIENT_DIR,
   3849                                    true, pInMsg->hdr.transSeqNum );
   3850            osal_mem_free( discoverRspCmd );
   3851          
   3852            return TRUE;
   3853          }
   3854          #endif // ZCL_DISCOVER
   3855          
   3856          /*********************************************************************
   3857           * @fn      zclSendMsg
   3858           *
   3859           * @brief   Send an incoming message to the Application
   3860           *
   3861           * @param   pInMsg - incoming message to process
   3862           *
   3863           * @return  TRUE
   3864           */

   \                                 In  segment BANKED_CODE, align 1, keep-with-next
   3865          static uint8 zclSendMsg( zclIncoming_t *pInMsg )
   \                     zclSendMsg:
   3866          {
   \   000000   74F6         MOV     A,#-0xa
   \   000002   12....       LCALL   ?BANKED_ENTER_XDATA
   \   000005                ; Saved register size: 10
   \   000005                ; Auto size: 0
   \   000005   EA           MOV     A,R2
   \   000006   FE           MOV     R6,A
   \   000007   EB           MOV     A,R3
   \   000008   FF           MOV     R7,A
   3867            zclIncomingMsg_t *pCmd;
   3868          
   3869            if ( zcl_RegisteredMsgTaskID == TASK_NO_TASK )
   \   000009   90....       MOV     DPTR,#zcl_RegisteredMsgTaskID
   \   00000C   E0           MOVX    A,@DPTR
   \   00000D   F4           CPL     A
   \   00000E   7005         JNZ     ??zclSendMsg_0
   3870            {
   3871              return ( TRUE );
   \                     ??zclSendMsg_1:
   \   000010   7901         MOV     R1,#0x1
   \   000012   02....       LJMP    ?Subroutine4 & 0xFFFF
   3872            }
   3873          
   3874            pCmd = (zclIncomingMsg_t *)osal_msg_allocate( sizeof ( zclIncomingMsg_t ) );
   \                     ??zclSendMsg_0:
   \   000015                ; Setup parameters for call to function osal_msg_allocate
   \   000015   7A19         MOV     R2,#0x19
   \   000017   7B00         MOV     R3,#0x0
   \   000019   12....       LCALL   ??osal_msg_allocate?relay
   3875            if ( pCmd != NULL )
   \   00001C   EA           MOV     A,R2
   \   00001D   4B           ORL     A,R3
   \   00001E   60F0         JZ      ??zclSendMsg_1
   3876            {
   3877              // fill in the message
   3878              pCmd->hdr.event = ZCL_INCOMING_MSG;
   \   000020   8A82         MOV     DPL,R2
   \   000022   8B83         MOV     DPH,R3
   \   000024   7434         MOV     A,#0x34
   \   000026   12....       LCALL   ?Subroutine13 & 0xFFFF
   3879              pCmd->zclHdr    = pInMsg->hdr;
   \                     ??CrossCallReturnLabel_16:
   \   000029   A3           INC     DPTR
   \   00002A   EA           MOV     A,R2
   \   00002B   2402         ADD     A,#0x2
   \   00002D   FC           MOV     R4,A
   \   00002E   EB           MOV     A,R3
   \   00002F   3400         ADDC    A,#0x0
   \   000031   FD           MOV     R5,A
   \   000032   7406         MOV     A,#0x6
   \   000034   12....       LCALL   ?MOVE_LONG8_XDATA_XDATA
   3880              pCmd->clusterId = pInMsg->msg->clusterId;
   \   000037   8E82         MOV     DPL,R6
   \   000039   8F83         MOV     DPH,R7
   \   00003B   E0           MOVX    A,@DPTR
   \   00003C   12....       LCALL   ?Subroutine33 & 0xFFFF
   \                     ??CrossCallReturnLabel_54:
   \   00003F   12....       LCALL   ?Subroutine28 & 0xFFFF
   \                     ??CrossCallReturnLabel_47:
   \   000042   8A82         MOV     DPL,R2
   \   000044   8B83         MOV     DPH,R3
   \   000046   A3           INC     DPTR
   \   000047   A3           INC     DPTR
   \   000048   A3           INC     DPTR
   \   000049   A3           INC     DPTR
   \   00004A   A3           INC     DPTR
   \   00004B   A3           INC     DPTR
   \   00004C   A3           INC     DPTR
   \   00004D   A3           INC     DPTR
   \   00004E   E8           MOV     A,R0
   \   00004F   12....       LCALL   ?Subroutine6 & 0xFFFF
   3881              pCmd->srcAddr   = pInMsg->msg->srcAddr;
   \                     ??CrossCallReturnLabel_4:
   \   000052   12....       LCALL   ?Subroutine33 & 0xFFFF
   \                     ??CrossCallReturnLabel_55:
   \   000055   A3           INC     DPTR
   \   000056   A3           INC     DPTR
   \   000057   EA           MOV     A,R2
   \   000058   240A         ADD     A,#0xa
   \   00005A   FC           MOV     R4,A
   \   00005B   EB           MOV     A,R3
   \   00005C   3400         ADDC    A,#0x0
   \   00005E   FD           MOV     R5,A
   \   00005F   740C         MOV     A,#0xc
   \   000061   12....       LCALL   ?MOVE_LONG8_XDATA_XDATA
   3882              pCmd->endPoint  = pInMsg->msg->endPoint;
   \   000064   8E82         MOV     DPL,R6
   \   000066   8F83         MOV     DPH,R7
   \   000068   E0           MOVX    A,@DPTR
   \   000069   2414         ADD     A,#0x14
   \   00006B   12....       LCALL   ??Subroutine57_0 & 0xFFFF
   \                     ??CrossCallReturnLabel_101:
   \   00006E   C0E0         PUSH    A
   \   000070   EA           MOV     A,R2
   \   000071   2416         ADD     A,#0x16
   \   000073   F582         MOV     DPL,A
   \   000075   EB           MOV     A,R3
   \   000076   12....       LCALL   ??Subroutine56_0 & 0xFFFF
   \                     ??CrossCallReturnLabel_95:
   \   000079   D0E0         POP     A
   \   00007B   F0           MOVX    @DPTR,A
   3883              pCmd->attrCmd   = pInMsg->attrCmd;
   \   00007C   EE           MOV     A,R6
   \   00007D   240C         ADD     A,#0xc
   \   00007F   F8           MOV     R0,A
   \   000080   EF           MOV     A,R7
   \   000081   12....       LCALL   ?Subroutine51 & 0xFFFF
   \                     ??CrossCallReturnLabel_107:
   \   000084   12....       LCALL   ??Subroutine64_0 & 0xFFFF
   \                     ??CrossCallReturnLabel_139:
   \   000087   EA           MOV     A,R2
   \   000088   2417         ADD     A,#0x17
   \   00008A   F582         MOV     DPL,A
   \   00008C   EB           MOV     A,R3
   \   00008D   12....       LCALL   ??Subroutine56_0 & 0xFFFF
   \                     ??CrossCallReturnLabel_96:
   \   000090   EC           MOV     A,R4
   \   000091   F0           MOVX    @DPTR,A
   \   000092   A3           INC     DPTR
   \   000093   ED           MOV     A,R5
   \   000094   F0           MOVX    @DPTR,A
   3884          
   3885              // Application will free the attrCmd buffer
   3886              pInMsg->attrCmd = NULL;
   \   000095   8882         MOV     DPL,R0
   \   000097   8983         MOV     DPH,R1
   \   000099   E4           CLR     A
   \   00009A   F0           MOVX    @DPTR,A
   \   00009B   A3           INC     DPTR
   \   00009C   F0           MOVX    @DPTR,A
   3887          
   3888              /* send message through task message */
   3889              osal_msg_send( zcl_RegisteredMsgTaskID, (uint8 *)pCmd );
   \   00009D                ; Setup parameters for call to function osal_msg_send
   \   00009D   90....       MOV     DPTR,#zcl_RegisteredMsgTaskID
   \   0000A0   E0           MOVX    A,@DPTR
   \   0000A1   F9           MOV     R1,A
   \   0000A2   12....       LCALL   ??osal_msg_send?relay
   \   0000A5   02....       LJMP    ??zclSendMsg_1 & 0xFFFF
   3890            }
   3891          
   3892            return ( TRUE );
   3893          }

   \                                 In  segment BANKED_CODE, align 1, keep-with-next
   \                     ?Subroutine33:
   \   000000   F8           MOV     R0,A
   \   000001   12....       LCALL   ??Subroutine54_0 & 0xFFFF
   \                     ??CrossCallReturnLabel_92:
   \   000004   A3           INC     DPTR
   \   000005   A3           INC     DPTR
   \   000006   A3           INC     DPTR
   \   000007   22           RET

   \                                 In  segment XDATA_ID, align 1, keep-with-next
   \                     `?<Initializer for zcl_RegisteredMsgTaskID>`:
   \   000000   FF           DB 255

   \                                 In  segment BANK_RELAYS, align 1
   \                     ??zcl_Init?relay:
   \   000000   12....       LCALL   ?BDISPATCH
   \   000003   ......       DC24    zcl_Init

   \                                 In  segment BANK_RELAYS, align 1
   \                     ??zcl_event_loop?relay:
   \   000000   12....       LCALL   ?BDISPATCH
   \   000003   ......       DC24    zcl_event_loop

   \                                 In  segment BANK_RELAYS, align 1
   \                     ??zcl_getRawAFMsg?relay:
   \   000000   12....       LCALL   ?BDISPATCH
   \   000003   ......       DC24    zcl_getRawAFMsg

   \                                 In  segment BANK_RELAYS, align 1
   \                     ??zcl_registerPlugin?relay:
   \   000000   12....       LCALL   ?BDISPATCH
   \   000003   ......       DC24    zcl_registerPlugin

   \                                 In  segment BANK_RELAYS, align 1
   \                     ??zcl_registerAttrList?relay:
   \   000000   12....       LCALL   ?BDISPATCH
   \   000003   ......       DC24    zcl_registerAttrList

   \                                 In  segment BANK_RELAYS, align 1
   \                     ??zcl_registerClusterOptionList?relay:
   \   000000   12....       LCALL   ?BDISPATCH
   \   000003   ......       DC24    zcl_registerClusterOptionList

   \                                 In  segment BANK_RELAYS, align 1
   \                     ??zcl_registerValidateAttrData?relay:
   \   000000   12....       LCALL   ?BDISPATCH
   \   000003   ......       DC24    zcl_registerValidateAttrData

   \                                 In  segment BANK_RELAYS, align 1
   \                     ??zcl_registerReadWriteCB?relay:
   \   000000   12....       LCALL   ?BDISPATCH
   \   000003   ......       DC24    zcl_registerReadWriteCB

   \                                 In  segment BANK_RELAYS, align 1
   \                     ??zcl_registerForMsg?relay:
   \   000000   12....       LCALL   ?BDISPATCH
   \   000003   ......       DC24    zcl_registerForMsg

   \                                 In  segment BANK_RELAYS, align 1
   \                     ??zcl_DeviceOperational?relay:
   \   000000   12....       LCALL   ?BDISPATCH
   \   000003   ......       DC24    zcl_DeviceOperational

   \                                 In  segment BANK_RELAYS, align 1
   \                     ??zcl_SendCommand?relay:
   \   000000   12....       LCALL   ?BDISPATCH
   \   000003   ......       DC24    zcl_SendCommand

   \                                 In  segment BANK_RELAYS, align 1
   \                     ??zcl_SendDefaultRspCmd?relay:
   \   000000   12....       LCALL   ?BDISPATCH
   \   000003   ......       DC24    zcl_SendDefaultRspCmd

   \                                 In  segment BANK_RELAYS, align 1
   \                     ??zclProcessMessageMSG?relay:
   \   000000   12....       LCALL   ?BDISPATCH
   \   000003   ......       DC24    zclProcessMessageMSG

   \                                 In  segment BANK_RELAYS, align 1
   \                     ??zclParseHdr?relay:
   \   000000   12....       LCALL   ?BDISPATCH
   \   000003   ......       DC24    zclParseHdr

   \                                 In  segment BANK_RELAYS, align 1
   \                     ??zclBuildHdr?relay:
   \   000000   12....       LCALL   ?BDISPATCH
   \   000003   ......       DC24    zclBuildHdr

   \                                 In  segment BANK_RELAYS, align 1
   \                     ??zclFindAttrRecsList?relay:
   \   000000   12....       LCALL   ?BDISPATCH
   \   000003   ......       DC24    zclFindAttrRecsList

   \                                 In  segment BANK_RELAYS, align 1
   \                     ??zclFindAttrRec?relay:
   \   000000   12....       LCALL   ?BDISPATCH
   \   000003   ......       DC24    zclFindAttrRec

   \                                 In  segment BANK_RELAYS, align 1
   \                     ??zclFindClusterOption?relay:
   \   000000   12....       LCALL   ?BDISPATCH
   \   000003   ......       DC24    zclFindClusterOption

   \                                 In  segment BANK_RELAYS, align 1
   \                     ??zclGetClusterOption?relay:
   \   000000   12....       LCALL   ?BDISPATCH
   \   000003   ......       DC24    zclGetClusterOption

   \                                 In  segment BANK_RELAYS, align 1
   \                     ??zclSetSecurityOption?relay:
   \   000000   12....       LCALL   ?BDISPATCH
   \   000003   ......       DC24    zclSetSecurityOption

   \                                 In  segment BANK_RELAYS, align 1
   \                     ??zclSerializeData?relay:
   \   000000   12....       LCALL   ?BDISPATCH
   \   000003   ......       DC24    zclSerializeData

   \                                 In  segment BANK_RELAYS, align 1
   \                     ??zclGetDataTypeLength?relay:
   \   000000   12....       LCALL   ?BDISPATCH
   \   000003   ......       DC24    zclGetDataTypeLength

   \                                 In  segment BANK_RELAYS, align 1
   \                     ??zclGetAttrDataLength?relay:
   \   000000   12....       LCALL   ?BDISPATCH
   \   000003   ......       DC24    zclGetAttrDataLength

   \                                 In  segment BANK_RELAYS, align 1
   \                     ??zclReadAttrData?relay:
   \   000000   12....       LCALL   ?BDISPATCH
   \   000003   ......       DC24    zclReadAttrData

   \                                 In  segment BANK_RELAYS, align 1
   \                     ??zclParseInDefaultRspCmd?relay:
   \   000000   12....       LCALL   ?BDISPATCH
   \   000003   ......       DC24    zclParseInDefaultRspCmd

   \                                 In  segment BANK_RELAYS, align 1
   \                     ??zclSendMsg?relay:
   \   000000   12....       LCALL   ?BDISPATCH
   \   000003   ......       DC24    zclSendMsg
   3894          
   3895          /*********************************************************************
   3896          *********************************************************************/

   Maximum stack usage in bytes:

     Function                      ISTACK PSTACK XSTACK
     --------                      ------ ------ ------
     zclBuildHdr                       1      0     44
     zclFindAttrRec                    0      0     40
       -> zclFindAttrRecsList          0      0     36
     zclFindAttrRecsList               2      0     18
     zclFindClusterOption              0      0     19
     zclGetAttrDataLength              0      0     28
       -> zclGetDataTypeLength         0      0     18
     zclGetClusterOption               0      0     43
       -> zclFindClusterOption         0      0     20
     zclGetDataTypeLength              2      0      9
     zclParseHdr                       1      0     45
       -> osal_memset                  0      0     24
     zclParseInDefaultRspCmd           1      0     10
       -> osal_mem_alloc               0      0     20
     zclProcessMessageMSG              1      0     52
       -> zclParseHdr                  0      0     66
       -> afFindEndPointDesc           0      0     66
       -> zcl_DeviceOperational        0      0     70
       -> zclGetClusterOption          0      0     66
       -> zclSetSecurityOption         0      0     66
       -> zcl_SendDefaultRspCmd        0      0     80
       -> zclSetSecurityOption         0      0     66
       -> osal_mem_free                0      0     66
       -> zcl_SendDefaultRspCmd        0      0     80
     zclReadAttrData                   0      0     44
       -> zclGetAttrDataLength         0      0     38
       -> osal_memcpy                  0      0     44
     zclSendMsg                        1      0     10
       -> osal_msg_allocate            0      0     20
       -> osal_msg_send                0      0     20
     zclSerializeData                  1      0     20
       -> osal_buffer_uint32           0      0     40
       -> osal_memcpy                  0      0     38
       -> osal_memcpy                  0      0     38
       -> osal_memcpy                  0      0     38
       -> osal_memcpy                  0      0     38
       -> osal_memcpy                  0      0     38
       -> osal_memcpy                  0      0     38
     zclSetSecurityOption              0      0     43
       -> zclFindClusterOption         0      0     20
     zcl_DeviceOperational             0      0     57
       -> zclFindAttrRec               0      0     44
       -> zclReadAttrData              0      0     44
     zcl_Init                          2      0      0
     zcl_SendCommand                   1      0     68
       -> afFindEndPointDesc           0      0     64
       -> zclGetClusterOption          0      0     64
       -> osal_memset                  0      0     64
       -> zcl_DeviceOperational        0      0     68
       -> osal_mem_alloc               0      0     64
       -> zclBuildHdr                  0      0     70
       -> osal_memcpy                  0      0     70
       -> AF_DataRequest               0      0     82
       -> osal_mem_free                0      0     64
     zcl_SendDefaultRspCmd             1      0     67
       -> zcl_SendCommand              0      0     54
     zcl_event_loop                    0      0     12
       -> osal_msg_receive             0      0     24
       -> zclProcessMessageMSG         0      0     24
       -> osal_msg_deallocate          0      0     24
       -> osal_msg_receive             0      0     24
       -> osal_msg_send                0      0     24
     zcl_getRawAFMsg                   2      0      0
     zcl_registerAttrList              1      0     12
       -> osal_mem_alloc               0      0     24
     zcl_registerClusterOptionList     1      0     12
       -> osal_mem_alloc               0      0     24
     zcl_registerForMsg                2      0      0
     zcl_registerPlugin                0      0     16
       -> osal_mem_alloc               0      0     28
     zcl_registerReadWriteCB           0      0     14
       -> zclFindAttrRecsList          0      0     28
     zcl_registerValidateAttrData      2      0      0


   Segment part sizes:

     Function/Label                             Bytes
     --------------                             -----
     zcl_TaskID                                    1
     zcl_RegisteredMsgTaskID                       1
     zcl_ValidateAttrDataCB                        2
     zcl_SeqNum                                    1
     plugins                                       2
     attrList                                      2
     clusterOptionList                             2
     zcl_TransID                                   1
     rawAFMsg                                      2
     zclCmdTable                                  56
     zcl_Init                                     31
     ?Subroutine0                                  7
     zcl_event_loop                              107
     ?Subroutine1                                  5
     ?Subroutine24                                 3
     ??Subroutine62_0                              6
     zcl_getRawAFMsg                              10
     zcl_registerPlugin                          103
     ?Subroutine2                                  5
     ?Subroutine8                                  2
     ??Subroutine53_0                              4
     ?Subroutine42                                 7
     ?Subroutine16                                16
     ?Subroutine12                                 8
     ?Subroutine21                                 8
     ?Subroutine41                                15
     ?Subroutine50                                 7
     ??Subroutine64_0                              6
     zcl_registerAttrList                         70
     ?Subroutine7                                  7
     ?Subroutine35                                16
     ?Subroutine5                                 11
     zcl_registerClusterOptionList                59
     zcl_registerValidateAttrData                 16
     zcl_registerReadWriteCB                      59
     zcl_registerForMsg                           21
     zcl_DeviceOperational                       136
     zcl_SendCommand                             465
     ?Subroutine47                                 3
     ??Subroutine54_0                              8
     ??Subroutine60_0                              2
     ??Subroutine61_0                              8
     ?Subroutine26                                13
     zcl_SendDefaultRspCmd                       173
     ?Subroutine28                                 6
     zclProcessMessageMSG                       1011
     ?Subroutine40                                 5
     ?Subroutine38                                14
     ?Subroutine37                                11
     ?Subroutine49                                 7
     ?Subroutine36                                 7
     ?Subroutine52                                 3
     ??Subroutine55_0                              3
     ??Subroutine56_0                              5
     ?Subroutine29                                12
     ?Subroutine25                                 9
     ??Subroutine57_0                              4
     ?Subroutine48                                 8
     ?Subroutine23                                 4
     ?Subroutine44                                11
     ?Subroutine22                                11
     ?Subroutine45                                 9
     ?Subroutine20                                13
     ?Subroutine19                                15
     ?Subroutine18                                11
     ?Subroutine15                                 1
     ??Subroutine58_0                              5
     ?Subroutine51                                 8
     ?Subroutine17                                 9
     ?Subroutine46                                 2
     zclParseHdr                                 227
     ?Subroutine30                                12
     ?Subroutine11                                 9
     ?Subroutine13                                 5
     ?Subroutine43                                 6
     ?Subroutine6                                  8
     zclBuildHdr                                  97
     ?Subroutine3                                  5
     ?Subroutine32                                11
     ?Subroutine14                                 7
     ??Subroutine59_0                              7
     ?Subroutine9                                 11
     zclFindAttrRecsList                          37
     zclFindAttrRec                              181
     ?Subroutine27                                25
     zclFindClusterOption                        122
     zclGetClusterOption                          20
     ?Subroutine4                                  5
     ?Subroutine39                                12
     zclSetSecurityOption                         28
     zclSerializeData                            344
     ?Subroutine10                                11
     ?Subroutine34                                 9
     ?Subroutine31                                 4
     ??Subroutine63_0                              6
     zclGetDataTypeLength                        160
     zclGetAttrDataLength                         62
     zclReadAttrData                             111
     zclParseInDefaultRspCmd                      42
     zclSendMsg                                  168
     ?Subroutine33                                 8
     ?<Initializer for zcl_RegisteredMsgTaskID>    1
     ??zcl_Init?relay                              6
     ??zcl_event_loop?relay                        6
     ??zcl_getRawAFMsg?relay                       6
     ??zcl_registerPlugin?relay                    6
     ??zcl_registerAttrList?relay                  6
     ??zcl_registerClusterOptionList?relay         6
     ??zcl_registerValidateAttrData?relay          6
     ??zcl_registerReadWriteCB?relay               6
     ??zcl_registerForMsg?relay                    6
     ??zcl_DeviceOperational?relay                 6
     ??zcl_SendCommand?relay                       6
     ??zcl_SendDefaultRspCmd?relay                 6
     ??zclProcessMessageMSG?relay                  6
     ??zclParseHdr?relay                           6
     ??zclBuildHdr?relay                           6
     ??zclFindAttrRecsList?relay                   6
     ??zclFindAttrRec?relay                        6
     ??zclFindClusterOption?relay                  6
     ??zclGetClusterOption?relay                   6
     ??zclSetSecurityOption?relay                  6
     ??zclSerializeData?relay                      6
     ??zclGetDataTypeLength?relay                  6
     ??zclGetAttrDataLength?relay                  6
     ??zclReadAttrData?relay                       6
     ??zclParseInDefaultRspCmd?relay               6
     ??zclSendMsg?relay                            6

 
 4 381 bytes in segment BANKED_CODE
   156 bytes in segment BANK_RELAYS
    56 bytes in segment CODE_C
     1 byte  in segment XDATA_I
     1 byte  in segment XDATA_ID
    13 bytes in segment XDATA_Z
 
 4 594 bytes of CODE  memory
    14 bytes of XDATA memory

Errors: none
Warnings: none
