///////////////////////////////////////////////////////////////////////////////
//                                                                            /
// IAR C/C++ Compiler V8.10.1.10194/W32 for 8051        17/Jan/2014  09:29:24 /
// Copyright 2004-2011 IAR Systems AB.                                        /
//                                                                            /
//    Core               =  plain                                             /
//    Code model         =  banked                                            /
//    Data model         =  large                                             /
//    Calling convention =  xdata reentrant                                   /
//    Constant location  =  data_rom                                          /
//    Dptr setup         =  1,16                                              /
//    Source file        =  Z:\Designs\ZigbeeTI\CODE\work\Components\stack\zc /
//                          l\zcl.c                                           /
//    Command line       =  -f Z:\Designs\ZigbeeTI\CODE\work\Projects\zstack\ /
//                          ZNP\CC253x\..\Source\znp.cfg                      /
//                          (-DMAC_CFG_APP_PENDING_QUEUE=TRUE                 /
//                          "-DZSTACK_DEVICE_BUILD=(DEVICE_BUILD_COORDINATOR  /
//                          | DEVICE_BUILD_ROUTER | DEVICE_BUILD_ENDDEVICE)"  /
//                          -DNWK_AUTO_POLL -DZNP_RUN_WDOG=FALSE              /
//                          -DZNP_UART_BAUD=HAL_UART_BR_115200 -DZIGBEEPRO    /
//                          -DZIGBEE_FRAGMENTATION -DOSAL_CLOCK               /
//                          -DOSAL_SAPI=FALSE -DSAPI_CB_FUNC=FALSE -DNV_INIT  /
//                          -DNUM_DISC_ATTEMPTS=0) -f                         /
//                          Z:\Designs\ZigbeeTI\CODE\work\Projects\zstack\ZNP /
//                          \CC253x\..\..\Tools\CC2530DB\f8wConfig.cfg        /
//                          (-DZIGBEEPRO -DSECURE=0 -DZG_SECURE_DYNAMIC=0     /
//                          -DREFLECTOR -DDEFAULT_CHANLIST=0x00002000         /
//                          -DZDAPP_CONFIG_PAN_ID=0xFFFF                      /
//                          -DNWK_START_DELAY=100 -DEXTENDED_JOINING_RANDOM_M /
//                          ASK=0x007F -DBEACON_REQUEST_DELAY=100             /
//                          -DBEACON_REQ_DELAY_MASK=0x00FF                    /
//                          -DLINK_STATUS_JITTER_MASK=0x007F                  /
//                          -DROUTE_EXPIRY_TIME=30 -DAPSC_ACK_WAIT_DURATION_P /
//                          OLLED=3000 -DNWK_INDIRECT_MSG_TIMEOUT=7           /
//                          -DMAX_RREQ_ENTRIES=8 -DAPSC_MAX_FRAME_RETRIES=3   /
//                          -DNWK_MAX_DATA_RETRIES=2                          /
//                          -DMAX_POLL_FAILURE_RETRIES=2 -DMAX_BCAST=9        /
//                          -DAPS_MAX_GROUPS=16 -DMAX_RTG_ENTRIES=40          /
//                          -DNWK_MAX_BINDING_ENTRIES=4                       /
//                          -DMAX_BINDING_CLUSTER_IDS=4                       /
//                          "-DDEFAULT_KEY={0x01, 0x03, 0x05, 0x07, 0x09,     /
//                          0x0B, 0x0D, 0x0F, 0x00, 0x02, 0x04, 0x06, 0x08,   /
//                          0x0A, 0x0C, 0x0D}" -DMAC_MAX_FRAME_SIZE=116       /
//                          -DZDNWKMGR_MIN_TRANSMISSIONS=20 "-DCONST=const    /
//                          __code" -DGENERIC=__generic                       /
//                          -DRFD_RCVC_ALWAYS_ON=FALSE -DPOLL_RATE=1000       /
//                          -DQUEUED_POLL_RATE=100 -DRESPONSE_POLL_RATE=100   /
//                          -DREJOIN_POLL_RATE=440) -f                        /
//                          Z:\Designs\ZigbeeTI\CODE\work\Projects\zstack\ZNP /
//                          \CC253x\..\..\Tools\CC2530DB\f8wZCL.cfg           /
//                          Z:\Designs\ZigbeeTI\CODE\work\Components\stack\zc /
//                          l\zcl.c -D POWER_SAVING -lC                       /
//                          Z:\Designs\ZigbeeTI\CODE\work\Projects\zstack\ZNP /
//                          \CC253x\CC2530-Debug\List\ -lA                    /
//                          Z:\Designs\ZigbeeTI\CODE\work\Projects\zstack\ZNP /
//                          \CC253x\CC2530-Debug\List\ --diag_suppress        /
//                          Pe001,Pa010 -o Z:\Designs\ZigbeeTI\CODE\work\Proj /
//                          ects\zstack\ZNP\CC253x\CC2530-Debug\Obj\ -e       /
//                          --no_code_motion --debug --core=plain             /
//                          --dptr=16,1 --data_model=large                    /
//                          --code_model=banked --calling_convention=xdata_re /
//                          entrant --place_constants=data_rom                /
//                          --nr_virtual_regs 16 -I                           /
//                          Z:\Designs\ZigbeeTI\CODE\work\Projects\zstack\ZNP /
//                          \CC253x\ -I Z:\Designs\ZigbeeTI\CODE\work\Project /
//                          s\zstack\ZNP\CC253x\Source\ -I                    /
//                          Z:\Designs\ZigbeeTI\CODE\work\Projects\zstack\ZNP /
//                          \CC253x\..\Source\ -I Z:\Designs\ZigbeeTI\CODE\wo /
//                          rk\Projects\zstack\ZNP\CC253x\..\..\SE\Source\    /
//                          -I Z:\Designs\ZigbeeTI\CODE\work\Projects\zstack\ /
//                          ZNP\CC253x\..\..\ZMain\TI2530ZNP\ -I              /
//                          Z:\Designs\ZigbeeTI\CODE\work\Projects\zstack\ZNP /
//                          \CC253x\..\..\..\..\Components\hal\include\ -I    /
//                          Z:\Designs\ZigbeeTI\CODE\work\Projects\zstack\ZNP /
//                          \CC253x\..\..\..\..\Components\hal\target\CC2530Z /
//                          NP\ -I Z:\Designs\ZigbeeTI\CODE\work\Projects\zst /
//                          ack\ZNP\CC253x\..\..\..\..\Components\mac\include /
//                          \ -I Z:\Designs\ZigbeeTI\CODE\work\Projects\zstac /
//                          k\ZNP\CC253x\..\..\..\..\Components\mac\high_leve /
//                          l\ -I Z:\Designs\ZigbeeTI\CODE\work\Projects\zsta /
//                          ck\ZNP\CC253x\..\..\..\..\Components\mac\low_leve /
//                          l\srf04\ -I Z:\Designs\ZigbeeTI\CODE\work\Project /
//                          s\zstack\ZNP\CC253x\..\..\..\..\Components\mac\lo /
//                          w_level\srf04\single_chip\ -I                     /
//                          Z:\Designs\ZigbeeTI\CODE\work\Projects\zstack\ZNP /
//                          \CC253x\..\..\..\..\Components\mt\ -I             /
//                          Z:\Designs\ZigbeeTI\CODE\work\Projects\zstack\ZNP /
//                          \CC253x\..\..\..\..\Components\osal\include\ -I   /
//                          Z:\Designs\ZigbeeTI\CODE\work\Projects\zstack\ZNP /
//                          \CC253x\..\..\..\..\Components\services\saddr\    /
//                          -I Z:\Designs\ZigbeeTI\CODE\work\Projects\zstack\ /
//                          ZNP\CC253x\..\..\..\..\Components\services\sdata\ /
//                           -I Z:\Designs\ZigbeeTI\CODE\work\Projects\zstack /
//                          \ZNP\CC253x\..\..\..\..\Components\stack\af\ -I   /
//                          Z:\Designs\ZigbeeTI\CODE\work\Projects\zstack\ZNP /
//                          \CC253x\..\..\..\..\Components\stack\nwk\ -I      /
//                          Z:\Designs\ZigbeeTI\CODE\work\Projects\zstack\ZNP /
//                          \CC253x\..\..\..\..\Components\stack\sapi\ -I     /
//                          Z:\Designs\ZigbeeTI\CODE\work\Projects\zstack\ZNP /
//                          \CC253x\..\..\..\..\Components\stack\sec\ -I      /
//                          Z:\Designs\ZigbeeTI\CODE\work\Projects\zstack\ZNP /
//                          \CC253x\..\..\..\..\Components\stack\sys\ -I      /
//                          Z:\Designs\ZigbeeTI\CODE\work\Projects\zstack\ZNP /
//                          \CC253x\..\..\..\..\Components\stack\zcl\ -I      /
//                          Z:\Designs\ZigbeeTI\CODE\work\Projects\zstack\ZNP /
//                          \CC253x\..\..\..\..\Components\stack\zdo\ -I      /
//                          Z:\Designs\ZigbeeTI\CODE\work\Projects\zstack\ZNP /
//                          \CC253x\..\..\..\..\Components\zmac\ -I           /
//                          Z:\Designs\ZigbeeTI\CODE\work\Projects\zstack\ZNP /
//                          \CC253x\..\..\..\..\Components\zmac\f8w\ -Ohz     /
//                          --require_prototypes                              /
//    List file          =  Z:\Designs\ZigbeeTI\CODE\work\Projects\zstack\ZNP /
//                          \CC253x\CC2530-Debug\List\zcl.s51                 /
//                                                                            /
//                                                                            /
///////////////////////////////////////////////////////////////////////////////

        NAME zcl

        RTMODEL "__SystemLibrary", "CLib"
        RTMODEL "__calling_convention", "xdata_reentrant"
        RTMODEL "__code_model", "banked"
        RTMODEL "__core", "plain"
        RTMODEL "__data_model", "large"
        RTMODEL "__dptr_size", "16"
        RTMODEL "__extended_stack", "disabled"
        RTMODEL "__location_for_constants", "data"
        RTMODEL "__number_of_dptrs", "1"
        RTMODEL "__rt_version", "1"

        RSEG DOVERLAY:DATA:NOROOT(0)
        RSEG IOVERLAY:IDATA:NOROOT(0)
        RSEG ISTACK:IDATA:NOROOT(0)
        RSEG PSTACK:XDATA:NOROOT(0)
        RSEG XSTACK:XDATA:NOROOT(0)

        EXTERN ?ALLOC_XSTACK8
        EXTERN ?BANKED_ENTER_XDATA
        EXTERN ?BANKED_LEAVE_XDATA
        EXTERN ?BDISPATCH
        EXTERN ?BRET
        EXTERN ?CALL_IND
        EXTERN ?DEALLOC_XSTACK8
        EXTERN ?L_MOV_X
        EXTERN ?MOVE_LONG8_XDATA_CODE
        EXTERN ?MOVE_LONG8_XDATA_XDATA
        EXTERN ?PUSH_XSTACK8_X_FOUR
        EXTERN ?PUSH_XSTACK8_X_TWO
        EXTERN ?PUSH_XSTACK_I_ONE
        EXTERN ?PUSH_XSTACK_I_THREE
        EXTERN ?PUSH_XSTACK_I_TWO
        EXTERN ?S_SHL
        EXTERN ?UC_SWITCH_SPARSE
        EXTERN ?UL_SHR
        EXTERN ?V0
        EXTERN ?XSP
        EXTERN ?XSTACK_DISP0_8
        EXTERN __INIT_XDATA_I
        EXTERN __INIT_XDATA_Z

        FUNCTION ??zclBuildHdr?relay,0203H
        PUBLIC ??zclFindAttrRec?relay
        FUNCTION ??zclFindAttrRec?relay,0203H
        FUNCTION ??zclFindAttrRecsList?relay,0203H
        FUNCTION ??zclFindClusterOption?relay,0203H
        PUBLIC ??zclGetAttrDataLength?relay
        FUNCTION ??zclGetAttrDataLength?relay,0203H
        FUNCTION ??zclGetClusterOption?relay,0203H
        PUBLIC ??zclGetDataTypeLength?relay
        FUNCTION ??zclGetDataTypeLength?relay,0203H
        PUBLIC ??zclParseHdr?relay
        FUNCTION ??zclParseHdr?relay,0203H
        FUNCTION ??zclParseInDefaultRspCmd?relay,0203H
        PUBLIC ??zclProcessMessageMSG?relay
        FUNCTION ??zclProcessMessageMSG?relay,0203H
        PUBLIC ??zclReadAttrData?relay
        FUNCTION ??zclReadAttrData?relay,0203H
        FUNCTION ??zclSendMsg?relay,0203H
        PUBLIC ??zclSerializeData?relay
        FUNCTION ??zclSerializeData?relay,0203H
        FUNCTION ??zclSetSecurityOption?relay,0203H
        FUNCTION ??zcl_DeviceOperational?relay,0203H
        PUBLIC ??zcl_Init?relay
        FUNCTION ??zcl_Init?relay,0203H
        PUBLIC ??zcl_SendCommand?relay
        FUNCTION ??zcl_SendCommand?relay,0203H
        PUBLIC ??zcl_SendDefaultRspCmd?relay
        FUNCTION ??zcl_SendDefaultRspCmd?relay,0203H
        PUBLIC ??zcl_event_loop?relay
        FUNCTION ??zcl_event_loop?relay,0203H
        PUBLIC ??zcl_getRawAFMsg?relay
        FUNCTION ??zcl_getRawAFMsg?relay,0203H
        PUBLIC ??zcl_registerAttrList?relay
        FUNCTION ??zcl_registerAttrList?relay,0203H
        PUBLIC ??zcl_registerClusterOptionList?relay
        FUNCTION ??zcl_registerClusterOptionList?relay,0203H
        PUBLIC ??zcl_registerForMsg?relay
        FUNCTION ??zcl_registerForMsg?relay,0203H
        PUBLIC ??zcl_registerPlugin?relay
        FUNCTION ??zcl_registerPlugin?relay,0203H
        PUBLIC ??zcl_registerReadWriteCB?relay
        FUNCTION ??zcl_registerReadWriteCB?relay,0203H
        PUBLIC ??zcl_registerValidateAttrData?relay
        FUNCTION ??zcl_registerValidateAttrData?relay,0203H
        FUNCTION zclBuildHdr,0203H
        ARGFRAME XSTACK, 35, STACK
        ARGFRAME IOVERLAY, 0, STATIC
        ARGFRAME DOVERLAY, 0, STATIC
        LOCFRAME ISTACK, 1, STACK
        LOCFRAME XSTACK, 9, STACK
        PUBLIC zclFindAttrRec
        FUNCTION zclFindAttrRec,021203H
        ARGFRAME XSTACK, 22, STACK
        ARGFRAME IOVERLAY, 0, STATIC
        ARGFRAME DOVERLAY, 0, STATIC
        LOCFRAME XSTACK, 18, STACK
        FUNCTION zclFindAttrRecsList,0203H
        ARGFRAME XSTACK, 18, STACK
        ARGFRAME IOVERLAY, 0, STATIC
        ARGFRAME DOVERLAY, 0, STATIC
        LOCFRAME ISTACK, 2, STACK
        FUNCTION zclFindClusterOption,0203H
        ARGFRAME XSTACK, 10, STACK
        ARGFRAME IOVERLAY, 0, STATIC
        ARGFRAME DOVERLAY, 0, STATIC
        LOCFRAME XSTACK, 9, STACK
        PUBLIC zclGetAttrDataLength
        FUNCTION zclGetAttrDataLength,021203H
        ARGFRAME XSTACK, 19, STACK
        ARGFRAME IOVERLAY, 0, STATIC
        ARGFRAME DOVERLAY, 0, STATIC
        LOCFRAME XSTACK, 9, STACK
        FUNCTION zclGetClusterOption,021203H
        ARGFRAME XSTACK, 33, STACK
        ARGFRAME IOVERLAY, 0, STATIC
        ARGFRAME DOVERLAY, 0, STATIC
        LOCFRAME XSTACK, 10, STACK
        PUBLIC zclGetDataTypeLength
        FUNCTION zclGetDataTypeLength,080203H
        ARGFRAME XSTACK, 9, STACK
        ARGFRAME IOVERLAY, 0, STATIC
        ARGFRAME DOVERLAY, 0, STATIC
        LOCFRAME ISTACK, 2, STACK
        PUBLIC zclParseHdr
        FUNCTION zclParseHdr,021203H
        ARGFRAME XSTACK, 33, STACK
        ARGFRAME IOVERLAY, 0, STATIC
        ARGFRAME DOVERLAY, 0, STATIC
        LOCFRAME ISTACK, 1, STACK
        LOCFRAME XSTACK, 12, STACK
        FUNCTION zclParseInDefaultRspCmd,021603H
        ARGFRAME XSTACK, 0, STACK
        LOCFRAME ISTACK, 1, STACK
        LOCFRAME XSTACK, 10, STACK
        PUBLIC zclProcessMessageMSG
        FUNCTION zclProcessMessageMSG,021203H
        ARGFRAME XSTACK, 12, STACK
        ARGFRAME IOVERLAY, 0, STATIC
        ARGFRAME DOVERLAY, 0, STATIC
        LOCFRAME ISTACK, 1, STACK
        LOCFRAME XSTACK, 40, STACK
        PUBLIC zclReadAttrData
        FUNCTION zclReadAttrData,021203H
        ARGFRAME XSTACK, 22, STACK
        ARGFRAME IOVERLAY, 0, STATIC
        ARGFRAME DOVERLAY, 0, STATIC
        LOCFRAME XSTACK, 22, STACK
        FUNCTION zclSendMsg,021603H
        ARGFRAME XSTACK, 0, STACK
        LOCFRAME ISTACK, 1, STACK
        LOCFRAME XSTACK, 10, STACK
        PUBLIC zclSerializeData
        FUNCTION zclSerializeData,0a1203H
        ARGFRAME XSTACK, 0, STACK
        LOCFRAME ISTACK, 1, STACK
        LOCFRAME XSTACK, 20, STACK
        FUNCTION zclSetSecurityOption,021203H
        ARGFRAME XSTACK, 33, STACK
        ARGFRAME IOVERLAY, 0, STATIC
        ARGFRAME DOVERLAY, 0, STATIC
        LOCFRAME XSTACK, 10, STACK
        FUNCTION zcl_DeviceOperational,021203H
        ARGFRAME XSTACK, 35, STACK
        ARGFRAME IOVERLAY, 0, STATIC
        ARGFRAME DOVERLAY, 0, STATIC
        LOCFRAME XSTACK, 22, STACK
        PUBLIC zcl_Init
        FUNCTION zcl_Init,0203H
        ARGFRAME XSTACK, 0, STACK
        LOCFRAME ISTACK, 2, STACK
        PUBLIC zcl_RegisteredMsgTaskID
        PUBLIC zcl_SendCommand
        FUNCTION zcl_SendCommand,021203H
        ARGFRAME XSTACK, 27, STACK
        ARGFRAME IOVERLAY, 0, STATIC
        ARGFRAME DOVERLAY, 0, STATIC
        LOCFRAME ISTACK, 1, STACK
        LOCFRAME XSTACK, 41, STACK
        PUBLIC zcl_SendDefaultRspCmd
        FUNCTION zcl_SendDefaultRspCmd,021203H
        ARGFRAME XSTACK, 40, STACK
        ARGFRAME IOVERLAY, 0, STATIC
        ARGFRAME DOVERLAY, 0, STATIC
        LOCFRAME ISTACK, 1, STACK
        LOCFRAME XSTACK, 27, STACK
        PUBLIC zcl_SeqNum
        PUBLIC zcl_TaskID
        PUBLIC zcl_ValidateAttrDataCB
        PUBLIC zcl_event_loop
        FUNCTION zcl_event_loop,021203H
        ARGFRAME XSTACK, 0, STACK
        LOCFRAME XSTACK, 12, STACK
        PUBLIC zcl_getRawAFMsg
        FUNCTION zcl_getRawAFMsg,0203H
        ARGFRAME XSTACK, 0, STACK
        LOCFRAME ISTACK, 2, STACK
        PUBLIC zcl_registerAttrList
        FUNCTION zcl_registerAttrList,021203H
        ARGFRAME XSTACK, 0, STACK
        LOCFRAME ISTACK, 1, STACK
        LOCFRAME XSTACK, 12, STACK
        PUBLIC zcl_registerClusterOptionList
        FUNCTION zcl_registerClusterOptionList,021203H
        ARGFRAME XSTACK, 0, STACK
        LOCFRAME ISTACK, 1, STACK
        LOCFRAME XSTACK, 12, STACK
        PUBLIC zcl_registerForMsg
        FUNCTION zcl_registerForMsg,0203H
        ARGFRAME XSTACK, 0, STACK
        LOCFRAME ISTACK, 2, STACK
        PUBLIC zcl_registerPlugin
        FUNCTION zcl_registerPlugin,021203H
        ARGFRAME XSTACK, 2, STACK
        LOCFRAME XSTACK, 14, STACK
        PUBLIC zcl_registerReadWriteCB
        FUNCTION zcl_registerReadWriteCB,021203H
        ARGFRAME XSTACK, 0, STACK
        LOCFRAME XSTACK, 14, STACK
        PUBLIC zcl_registerValidateAttrData
        FUNCTION zcl_registerValidateAttrData,0203H
        ARGFRAME XSTACK, 0, STACK
        LOCFRAME ISTACK, 2, STACK
        
        CFI Names cfiNames0
        CFI StackFrame CFA_SP SP IDATA
        CFI StackFrame CFA_PSP16 PSP16 XDATA
        CFI StackFrame CFA_XSP16 XSP16 XDATA
        CFI StaticOverlayFrame CFA_IOVERLAY IOVERLAY
        CFI StaticOverlayFrame CFA_DOVERLAY DOVERLAY
        CFI Resource `PSW.CY`:1, `B.BR0`:1, `B.BR1`:1, `B.BR2`:1, `B.BR3`:1
        CFI Resource `B.BR4`:1, `B.BR5`:1, `B.BR6`:1, `B.BR7`:1, `VB.BR8`:1
        CFI Resource `VB.BR9`:1, `VB.BR10`:1, `VB.BR11`:1, `VB.BR12`:1
        CFI Resource `VB.BR13`:1, `VB.BR14`:1, `VB.BR15`:1, VB:8, B:8, A:8
        CFI Resource PSW:8, DPL0:8, DPH0:8, R0:8, R1:8, R2:8, R3:8, R4:8, R5:8
        CFI Resource R6:8, R7:8, V0:8, V1:8, V2:8, V3:8, V4:8, V5:8, V6:8, V7:8
        CFI Resource V8:8, V9:8, V10:8, V11:8, V12:8, V13:8, V14:8, V15:8, SP:8
        CFI Resource PSPH:8, PSPL:8, PSP16:16, XSPH:8, XSPL:8, XSP16:16
        CFI VirtualResource ?RET:24
        CFI Resource ?BRET_EXT:8
        CFI VirtualResource ?RET_HIGH:8, ?RET_LOW:8
        CFI ResourceParts PSP16 PSPH, PSPL
        CFI ResourceParts XSP16 XSPH, XSPL
        CFI ResourceParts ?RET ?BRET_EXT, ?RET_HIGH, ?RET_LOW
        CFI EndNames cfiNames0
        
        CFI Common cfiCommon0 Using cfiNames0
        CFI CodeAlign 1
        CFI DataAlign -1
        CFI ReturnAddress ?RET CODE
        CFI CFA_DOVERLAY Used
        CFI CFA_IOVERLAY Used
        CFI CFA_SP SP+-3
        CFI CFA_PSP16 PSP16+0
        CFI CFA_XSP16 XSP16+0
        CFI `PSW.CY` SameValue
        CFI `B.BR0` SameValue
        CFI `B.BR1` SameValue
        CFI `B.BR2` SameValue
        CFI `B.BR3` SameValue
        CFI `B.BR4` SameValue
        CFI `B.BR5` SameValue
        CFI `B.BR6` SameValue
        CFI `B.BR7` SameValue
        CFI `VB.BR8` SameValue
        CFI `VB.BR9` SameValue
        CFI `VB.BR10` SameValue
        CFI `VB.BR11` SameValue
        CFI `VB.BR12` SameValue
        CFI `VB.BR13` SameValue
        CFI `VB.BR14` SameValue
        CFI `VB.BR15` SameValue
        CFI VB SameValue
        CFI B Undefined
        CFI A Undefined
        CFI PSW SameValue
        CFI DPL0 SameValue
        CFI DPH0 SameValue
        CFI R0 Undefined
        CFI R1 Undefined
        CFI R2 Undefined
        CFI R3 Undefined
        CFI R4 Undefined
        CFI R5 Undefined
        CFI R6 SameValue
        CFI R7 SameValue
        CFI V0 SameValue
        CFI V1 SameValue
        CFI V2 SameValue
        CFI V3 SameValue
        CFI V4 SameValue
        CFI V5 SameValue
        CFI V6 SameValue
        CFI V7 SameValue
        CFI V8 SameValue
        CFI V9 SameValue
        CFI V10 SameValue
        CFI V11 SameValue
        CFI V12 SameValue
        CFI V13 SameValue
        CFI V14 SameValue
        CFI V15 SameValue
        CFI PSPH Undefined
        CFI PSPL Undefined
        CFI XSPH Undefined
        CFI XSPL Undefined
        CFI ?RET Concat
        CFI ?BRET_EXT Frame(CFA_SP, 3)
        CFI ?RET_HIGH Frame(CFA_SP, 2)
        CFI ?RET_LOW Frame(CFA_SP, 1)
        CFI EndCommon cfiCommon0
        
        
        CFI Common cfiCommon1 Using cfiNames0
        CFI CodeAlign 1
        CFI DataAlign -1
        CFI ReturnAddress ?RET CODE
        CFI CFA_DOVERLAY Used
        CFI CFA_IOVERLAY Used
        CFI CFA_SP SP+-2
        CFI CFA_PSP16 PSP16+0
        CFI CFA_XSP16 XSP16+0
        CFI `PSW.CY` SameValue
        CFI `B.BR0` SameValue
        CFI `B.BR1` SameValue
        CFI `B.BR2` SameValue
        CFI `B.BR3` SameValue
        CFI `B.BR4` SameValue
        CFI `B.BR5` SameValue
        CFI `B.BR6` SameValue
        CFI `B.BR7` SameValue
        CFI `VB.BR8` SameValue
        CFI `VB.BR9` SameValue
        CFI `VB.BR10` SameValue
        CFI `VB.BR11` SameValue
        CFI `VB.BR12` SameValue
        CFI `VB.BR13` SameValue
        CFI `VB.BR14` SameValue
        CFI `VB.BR15` SameValue
        CFI VB SameValue
        CFI B SameValue
        CFI A SameValue
        CFI PSW SameValue
        CFI DPL0 SameValue
        CFI DPH0 SameValue
        CFI R0 SameValue
        CFI R1 SameValue
        CFI R2 SameValue
        CFI R3 SameValue
        CFI R4 SameValue
        CFI R5 SameValue
        CFI R6 SameValue
        CFI R7 SameValue
        CFI V0 SameValue
        CFI V1 SameValue
        CFI V2 SameValue
        CFI V3 SameValue
        CFI V4 SameValue
        CFI V5 SameValue
        CFI V6 SameValue
        CFI V7 SameValue
        CFI V8 SameValue
        CFI V9 SameValue
        CFI V10 SameValue
        CFI V11 SameValue
        CFI V12 SameValue
        CFI V13 SameValue
        CFI V14 SameValue
        CFI V15 SameValue
        CFI PSPH Undefined
        CFI PSPL Undefined
        CFI XSPH Undefined
        CFI XSPL Undefined
        CFI ?RET Concat
        CFI ?BRET_EXT SameValue
        CFI ?RET_HIGH Frame(CFA_SP, 2)
        CFI ?RET_LOW Frame(CFA_SP, 1)
        CFI EndCommon cfiCommon1
        
osal_msg_receive    SYMBOL "osal_msg_receive"
osal_msg_deallocate SYMBOL "osal_msg_deallocate"
osal_msg_send       SYMBOL "osal_msg_send"
osal_mem_alloc      SYMBOL "osal_mem_alloc"
afFindEndPointDesc  SYMBOL "afFindEndPointDesc"
osal_memset         SYMBOL "osal_memset"
osal_memcpy         SYMBOL "osal_memcpy"
AF_DataRequest      SYMBOL "AF_DataRequest"
osal_mem_free       SYMBOL "osal_mem_free"
osal_buffer_uint32  SYMBOL "osal_buffer_uint32"
osal_msg_allocate   SYMBOL "osal_msg_allocate"
??AF_DataRequest?relay SYMBOL "?relay", AF_DataRequest
??afFindEndPointDesc?relay SYMBOL "?relay", afFindEndPointDesc
??osal_buffer_uint32?relay SYMBOL "?relay", osal_buffer_uint32
??osal_mem_alloc?relay SYMBOL "?relay", osal_mem_alloc
??osal_mem_free?relay SYMBOL "?relay", osal_mem_free
??osal_memcpy?relay SYMBOL "?relay", osal_memcpy
??osal_memset?relay SYMBOL "?relay", osal_memset
??osal_msg_allocate?relay SYMBOL "?relay", osal_msg_allocate
??osal_msg_deallocate?relay SYMBOL "?relay", osal_msg_deallocate
??osal_msg_receive?relay SYMBOL "?relay", osal_msg_receive
??osal_msg_send?relay SYMBOL "?relay", osal_msg_send
zclFindAttrRec      SYMBOL "zclFindAttrRec"
??zclFindAttrRec?relay SYMBOL "?relay", zclFindAttrRec
zclGetAttrDataLength SYMBOL "zclGetAttrDataLength"
??zclGetAttrDataLength?relay SYMBOL "?relay", zclGetAttrDataLength
zclGetDataTypeLength SYMBOL "zclGetDataTypeLength"
??zclGetDataTypeLength?relay SYMBOL "?relay", zclGetDataTypeLength
zclParseHdr         SYMBOL "zclParseHdr"
??zclParseHdr?relay SYMBOL "?relay", zclParseHdr
zclProcessMessageMSG SYMBOL "zclProcessMessageMSG"
??zclProcessMessageMSG?relay SYMBOL "?relay", zclProcessMessageMSG
zclReadAttrData     SYMBOL "zclReadAttrData"
??zclReadAttrData?relay SYMBOL "?relay", zclReadAttrData
zclSerializeData    SYMBOL "zclSerializeData"
??zclSerializeData?relay SYMBOL "?relay", zclSerializeData
zcl_Init            SYMBOL "zcl_Init"
??zcl_Init?relay    SYMBOL "?relay", zcl_Init
zcl_SendCommand     SYMBOL "zcl_SendCommand"
??zcl_SendCommand?relay SYMBOL "?relay", zcl_SendCommand
zcl_SendDefaultRspCmd SYMBOL "zcl_SendDefaultRspCmd"
??zcl_SendDefaultRspCmd?relay SYMBOL "?relay", zcl_SendDefaultRspCmd
zcl_event_loop      SYMBOL "zcl_event_loop"
??zcl_event_loop?relay SYMBOL "?relay", zcl_event_loop
zcl_getRawAFMsg     SYMBOL "zcl_getRawAFMsg"
??zcl_getRawAFMsg?relay SYMBOL "?relay", zcl_getRawAFMsg
zcl_registerAttrList SYMBOL "zcl_registerAttrList"
??zcl_registerAttrList?relay SYMBOL "?relay", zcl_registerAttrList
zcl_registerClusterOptionList SYMBOL "zcl_registerClusterOptionList"
??zcl_registerClusterOptionList?relay SYMBOL "?relay", zcl_registerClusterOptionList
zcl_registerForMsg  SYMBOL "zcl_registerForMsg"
??zcl_registerForMsg?relay SYMBOL "?relay", zcl_registerForMsg
zcl_registerPlugin  SYMBOL "zcl_registerPlugin"
??zcl_registerPlugin?relay SYMBOL "?relay", zcl_registerPlugin
zcl_registerReadWriteCB SYMBOL "zcl_registerReadWriteCB"
??zcl_registerReadWriteCB?relay SYMBOL "?relay", zcl_registerReadWriteCB
zcl_registerValidateAttrData SYMBOL "zcl_registerValidateAttrData"
??zcl_registerValidateAttrData?relay SYMBOL "?relay", zcl_registerValidateAttrData

        EXTERN osal_msg_receive
        FUNCTION osal_msg_receive,0202H
        ARGFRAME ISTACK, 0, STACK
        ARGFRAME PSTACK, 0, STACK
        ARGFRAME XSTACK, 12, STACK
        ARGFRAME IOVERLAY, 0, STATIC
        ARGFRAME DOVERLAY, 0, STATIC
        EXTERN osal_msg_deallocate
        FUNCTION osal_msg_deallocate,0202H
        ARGFRAME ISTACK, 0, STACK
        ARGFRAME PSTACK, 0, STACK
        ARGFRAME XSTACK, 12, STACK
        ARGFRAME IOVERLAY, 0, STATIC
        ARGFRAME DOVERLAY, 0, STATIC
        EXTERN osal_msg_send
        FUNCTION osal_msg_send,0202H
        ARGFRAME ISTACK, 0, STACK
        ARGFRAME PSTACK, 0, STACK
        ARGFRAME XSTACK, 12, STACK
        ARGFRAME IOVERLAY, 0, STATIC
        ARGFRAME DOVERLAY, 0, STATIC
        EXTERN osal_mem_alloc
        FUNCTION osal_mem_alloc,0202H
        ARGFRAME ISTACK, 0, STACK
        ARGFRAME PSTACK, 0, STACK
        ARGFRAME XSTACK, 32, STACK
        ARGFRAME IOVERLAY, 0, STATIC
        ARGFRAME DOVERLAY, 0, STATIC
        EXTERN afFindEndPointDesc
        FUNCTION afFindEndPointDesc,0202H
        ARGFRAME ISTACK, 0, STACK
        ARGFRAME PSTACK, 0, STACK
        ARGFRAME XSTACK, 33, STACK
        ARGFRAME IOVERLAY, 0, STATIC
        ARGFRAME DOVERLAY, 0, STATIC
        EXTERN osal_memset
        FUNCTION osal_memset,0202H
        ARGFRAME ISTACK, 0, STACK
        ARGFRAME PSTACK, 0, STACK
        ARGFRAME XSTACK, 32, STACK
        ARGFRAME IOVERLAY, 0, STATIC
        ARGFRAME DOVERLAY, 0, STATIC
        EXTERN osal_memcpy
        FUNCTION osal_memcpy,0202H
        ARGFRAME ISTACK, 0, STACK
        ARGFRAME PSTACK, 0, STACK
        ARGFRAME XSTACK, 35, STACK
        ARGFRAME IOVERLAY, 0, STATIC
        ARGFRAME DOVERLAY, 0, STATIC
        EXTERN AF_DataRequest
        FUNCTION AF_DataRequest,0202H
        ARGFRAME ISTACK, 0, STACK
        ARGFRAME PSTACK, 0, STACK
        ARGFRAME XSTACK, 41, STACK
        ARGFRAME IOVERLAY, 0, STATIC
        ARGFRAME DOVERLAY, 0, STATIC
        EXTERN osal_mem_free
        FUNCTION osal_mem_free,0202H
        ARGFRAME ISTACK, 0, STACK
        ARGFRAME PSTACK, 0, STACK
        ARGFRAME XSTACK, 33, STACK
        ARGFRAME IOVERLAY, 0, STATIC
        ARGFRAME DOVERLAY, 0, STATIC
        EXTERN osal_buffer_uint32
        FUNCTION osal_buffer_uint32,0202H
        ARGFRAME ISTACK, 0, STACK
        ARGFRAME PSTACK, 0, STACK
        ARGFRAME XSTACK, 20, STACK
        ARGFRAME IOVERLAY, 0, STATIC
        ARGFRAME DOVERLAY, 0, STATIC
        EXTERN osal_msg_allocate
        FUNCTION osal_msg_allocate,0202H
        ARGFRAME ISTACK, 0, STACK
        ARGFRAME PSTACK, 0, STACK
        ARGFRAME XSTACK, 10, STACK
        ARGFRAME IOVERLAY, 0, STATIC
        ARGFRAME DOVERLAY, 0, STATIC
        EXTERN ??AF_DataRequest?relay
        FUNCTION ??AF_DataRequest?relay,00H
        EXTERN ??afFindEndPointDesc?relay
        FUNCTION ??afFindEndPointDesc?relay,00H
        EXTERN ??osal_buffer_uint32?relay
        FUNCTION ??osal_buffer_uint32?relay,00H
        EXTERN ??osal_mem_alloc?relay
        FUNCTION ??osal_mem_alloc?relay,00H
        EXTERN ??osal_mem_free?relay
        FUNCTION ??osal_mem_free?relay,00H
        EXTERN ??osal_memcpy?relay
        FUNCTION ??osal_memcpy?relay,00H
        EXTERN ??osal_memset?relay
        FUNCTION ??osal_memset?relay,00H
        EXTERN ??osal_msg_allocate?relay
        FUNCTION ??osal_msg_allocate?relay,00H
        EXTERN ??osal_msg_deallocate?relay
        FUNCTION ??osal_msg_deallocate?relay,00H
        EXTERN ??osal_msg_receive?relay
        FUNCTION ??osal_msg_receive?relay,00H
        EXTERN ??osal_msg_send?relay
        FUNCTION ??osal_msg_send?relay,00H

// Z:\Designs\ZigbeeTI\CODE\work\Components\stack\zcl\zcl.c
//    1 /**************************************************************************************************
//    2   Filename:       zcl.c
//    3   Revised:        $Date: 2012-01-30 10:40:08 -0800 (Mon, 30 Jan 2012) $
//    4   Revision:       $Revision: 29096 $
//    5 
//    6   Description:    This file contains the Zigbee Cluster Library Foundation functions.
//    7 
//    8 
//    9   Copyright 2006-2012 Texas Instruments Incorporated. All rights reserved.
//   10 
//   11   IMPORTANT: Your use of this Software is limited to those specific rights
//   12   granted under the terms of a software license agreement between the user
//   13   who downloaded the software, his/her employer (which must be your employer)
//   14   and Texas Instruments Incorporated (the "License").  You may not use this
//   15   Software unless you agree to abide by the terms of the License. The License
//   16   limits your use, and you acknowledge, that the Software may not be modified,
//   17   copied or distributed unless embedded on a Texas Instruments microcontroller
//   18   or used solely and exclusively in conjunction with a Texas Instruments radio
//   19   frequency transceiver, which is integrated into your product.  Other than for
//   20   the foregoing purpose, you may not use, reproduce, copy, prepare derivative
//   21   works of, modify, distribute, perform, display or sell this Software and/or
//   22   its documentation for any purpose.
//   23 
//   24   YOU FURTHER ACKNOWLEDGE AND AGREE THAT THE SOFTWARE AND DOCUMENTATION ARE
//   25   PROVIDED “AS IS” WITHOUT WARRANTY OF ANY KIND, EITHER EXPRESS OR IMPLIED,
//   26   INCLUDING WITHOUT LIMITATION, ANY WARRANTY OF MERCHANTABILITY, TITLE,
//   27   NON-INFRINGEMENT AND FITNESS FOR A PARTICULAR PURPOSE. IN NO EVENT SHALL
//   28   TEXAS INSTRUMENTS OR ITS LICENSORS BE LIABLE OR OBLIGATED UNDER CONTRACT,
//   29   NEGLIGENCE, STRICT LIABILITY, CONTRIBUTION, BREACH OF WARRANTY, OR OTHER
//   30   LEGAL EQUITABLE THEORY ANY DIRECT OR INDIRECT DAMAGES OR EXPENSES
//   31   INCLUDING BUT NOT LIMITED TO ANY INCIDENTAL, SPECIAL, INDIRECT, PUNITIVE
//   32   OR CONSEQUENTIAL DAMAGES, LOST PROFITS OR LOST DATA, COST OF PROCUREMENT
//   33   OF SUBSTITUTE GOODS, TECHNOLOGY, SERVICES, OR ANY CLAIMS BY THIRD PARTIES
//   34   (INCLUDING BUT NOT LIMITED TO ANY DEFENSE THEREOF), OR OTHER SIMILAR COSTS.
//   35 
//   36   Should you have any questions regarding your right to use this Software,
//   37   contact Texas Instruments Incorporated at www.TI.com.
//   38 **************************************************************************************************/
//   39 
//   40 /*********************************************************************
//   41  * INCLUDES
//   42  */
//   43 #include "ZComDef.h"
//   44 #include "OSAL.h"
//   45 #include "OSAL_Tasks.h"
//   46 #include "AF.h"
//   47 #include "ZDConfig.h"
//   48 
//   49 #include "zcl.h"
//   50 #include "zcl_general.h"
//   51 
//   52 #if defined ( INTER_PAN )
//   53   #include "stub_aps.h"
//   54 #endif
//   55 
//   56 /*********************************************************************
//   57  * MACROS
//   58  */
//   59 /*** Frame Control ***/
//   60 #define zcl_FCType( a )               ( (a) & ZCL_FRAME_CONTROL_TYPE )
//   61 #define zcl_FCManuSpecific( a )       ( (a) & ZCL_FRAME_CONTROL_MANU_SPECIFIC )
//   62 #define zcl_FCDirection( a )          ( (a) & ZCL_FRAME_CONTROL_DIRECTION )
//   63 #define zcl_FCDisableDefaultRsp( a )  ( (a) & ZCL_FRAME_CONTROL_DISABLE_DEFAULT_RSP )
//   64 
//   65 /*** Attribute Access Control ***/
//   66 #define zcl_AccessCtrlRead( a )       ( (a) & ACCESS_CONTROL_READ )
//   67 #define zcl_AccessCtrlWrite( a )      ( (a) & ACCESS_CONTROL_WRITE )
//   68 #define zcl_AccessCtrlCmd( a )        ( (a) & ACCESS_CONTROL_CMD )
//   69 #define zcl_AccessCtrlAuthRead( a )   ( (a) & ACCESS_CONTROL_AUTH_READ )
//   70 #define zcl_AccessCtrlAuthWrite( a )  ( (a) & ACCESS_CONTROL_AUTH_WRITE )
//   71 
//   72 #define zclParseCmd( a, b )           zclCmdTable[(a)].pfnParseInProfile( (b) )
//   73 #define zclProcessCmd( a, b )         zclCmdTable[(a)].pfnProcessInProfile( (b) )
//   74 
//   75 #define zcl_DefaultRspCmd( zclHdr )   ( zcl_ProfileCmd( (zclHdr).fc.type )     && \ 
//   76                                         (zclHdr).fc.manuSpecific == 0          && \ 
//   77                                         (zclHdr).commandID == ZCL_CMD_DEFAULT_RSP )
//   78 
//   79 // Commands that have corresponding responses
//   80 #define CMD_HAS_RSP( cmd )            ( (cmd) == ZCL_CMD_READ            || \ 
//   81                                         (cmd) == ZCL_CMD_WRITE           || \ 
//   82                                         (cmd) == ZCL_CMD_WRITE_UNDIVIDED || \ 
//   83                                         (cmd) == ZCL_CMD_CONFIG_REPORT   || \ 
//   84                                         (cmd) == ZCL_CMD_READ_REPORT_CFG || \ 
//   85                                         (cmd) == ZCL_CMD_DISCOVER        || \ 
//   86                                         (cmd) == ZCL_CMD_DEFAULT_RSP ) // exception
//   87 
//   88 /*********************************************************************
//   89  * CONSTANTS
//   90  */
//   91 
//   92 /*********************************************************************
//   93  * TYPEDEFS
//   94  */
//   95 typedef struct zclLibPlugin
//   96 {
//   97   struct zclLibPlugin *next;
//   98   uint16              startClusterID;    // starting cluster ID
//   99   uint16              endClusterID;      // ending cluster ID
//  100   zclInHdlr_t         pfnIncomingHdlr;    // function to handle incoming message
//  101 } zclLibPlugin_t;
//  102 
//  103 // Attribute record list item
//  104 typedef struct zclAttrRecsList
//  105 {
//  106   struct zclAttrRecsList *next;
//  107   uint8                  endpoint;      // Used to link it into the endpoint descriptor
//  108   zclReadWriteCB_t       pfnReadWriteCB;// Read or Write attribute value callback function
//  109   zclAuthorizeCB_t       pfnAuthorizeCB;// Authorize Read or Write operation
//  110   uint8                  numAttributes; // Number of the following records
//  111   CONST zclAttrRec_t     *attrs;        // attribute records
//  112 } zclAttrRecsList;
//  113 
//  114 // Cluster option list item
//  115 typedef struct zclClusterOptionList
//  116 {
//  117   struct zclClusterOptionList *next;
//  118   uint8                       endpoint;   // Used to link it into the endpoint descriptor
//  119   uint8                       numOptions; // Number of the following records
//  120   zclOptionRec_t              *options;   // option records
//  121 } zclClusterOptionList;
//  122 
//  123 typedef void *(*zclParseInProfileCmd_t)( zclParseCmd_t *pCmd );
//  124 typedef uint8 (*zclProcessInProfileCmd_t)( zclIncoming_t *pInMsg );
//  125 
//  126 typedef struct
//  127 {
//  128   zclParseInProfileCmd_t   pfnParseInProfile;
//  129   zclProcessInProfileCmd_t pfnProcessInProfile;
//  130 } zclCmdItems_t;
//  131 
//  132 
//  133 /*********************************************************************
//  134  * GLOBAL VARIABLES
//  135  */

        RSEG XDATA_Z:XDATA:NOROOT(0)
        DATA8
//  136 uint8 zcl_TaskID;
zcl_TaskID:
        DS 1
        REQUIRE __INIT_XDATA_Z
//  137 
//  138 // The task Id of the Application where the unprocessed Foundation
//  139 // Command/Response messages will be sent to.

        RSEG XDATA_I:XDATA:NOROOT(0)
//  140 uint8 zcl_RegisteredMsgTaskID = TASK_NO_TASK;
zcl_RegisteredMsgTaskID:
        DATA8
        DS 1
        REQUIRE `?<Initializer for zcl_RegisteredMsgTaskID>`
        REQUIRE __INIT_XDATA_I
//  141 
//  142 // The Application should register its attribute data validation function

        RSEG XDATA_Z:XDATA:NOROOT(0)
        DATA16
//  143 zclValidateAttrData_t zcl_ValidateAttrDataCB = NULL;
zcl_ValidateAttrDataCB:
        DS 2
        REQUIRE __INIT_XDATA_Z
//  144 
//  145 // ZCL Sequence number

        RSEG XDATA_Z:XDATA:NOROOT(0)
        DATA8
//  146 uint8 zcl_SeqNum = 0x00;
zcl_SeqNum:
        DS 1
        REQUIRE __INIT_XDATA_Z
//  147 
//  148 /*********************************************************************
//  149  * EXTERNAL VARIABLES
//  150  */
//  151 
//  152 /*********************************************************************
//  153  * EXTERNAL FUNCTIONS
//  154  */
//  155 
//  156 /*********************************************************************
//  157  * LOCAL VARIABLES
//  158  */

        RSEG XDATA_Z:XDATA:NOROOT(0)
        DATA16
//  159 static zclLibPlugin_t *plugins;
plugins:
        DS 2
        REQUIRE __INIT_XDATA_Z

        RSEG XDATA_Z:XDATA:NOROOT(0)
        DATA16
//  160 static zclAttrRecsList *attrList;
attrList:
        DS 2
        REQUIRE __INIT_XDATA_Z

        RSEG XDATA_Z:XDATA:NOROOT(0)
        DATA16
//  161 static zclClusterOptionList *clusterOptionList;
clusterOptionList:
        DS 2
        REQUIRE __INIT_XDATA_Z

        RSEG XDATA_Z:XDATA:NOROOT(0)
        DATA8
//  162 static uint8 zcl_TransID = 0;  // This is the unique message ID (counter)
zcl_TransID:
        DS 1
        REQUIRE __INIT_XDATA_Z
//  163 

        RSEG XDATA_Z:XDATA:NOROOT(0)
        DATA16
//  164 static afIncomingMSGPacket_t *rawAFMsg = NULL;
rawAFMsg:
        DS 2
        REQUIRE __INIT_XDATA_Z
//  165 
//  166 /*********************************************************************
//  167  * LOCAL FUNCTIONS
//  168  */
//  169 void zclProcessMessageMSG( afIncomingMSGPacket_t *pkt );  // Not static for ZNP build.
//  170 static uint8 *zclBuildHdr( zclFrameHdr_t *hdr, uint8 *pData );
//  171 static uint8 zclCalcHdrSize( zclFrameHdr_t *hdr );
//  172 static zclLibPlugin_t *zclFindPlugin( uint16 clusterID, uint16 profileID );
//  173 static zclAttrRecsList *zclFindAttrRecsList( uint8 endpoint );
//  174 static zclOptionRec_t *zclFindClusterOption( uint8 endpoint, uint16 clusterID );
//  175 static uint8 zclGetClusterOption( uint8 endpoint, uint16 clusterID );
//  176 static void zclSetSecurityOption( uint8 endpoint, uint16 clusterID, uint8 enable );
//  177 
//  178 static uint8 zcl_DeviceOperational( uint8 srcEP, uint16 clusterID, uint8 frameType, uint8 cmd, uint16 profileID );
//  179 
//  180 #if defined ( ZCL_READ ) || defined ( ZCL_WRITE )
//  181 static zclReadWriteCB_t zclGetReadWriteCB( uint8 endpoint );
//  182 static zclAuthorizeCB_t zclGetAuthorizeCB( uint8 endpoint );
//  183 #endif // ZCL_READ || ZCL_WRITE
//  184 
//  185 #ifdef ZCL_READ
//  186 static uint16 zclGetAttrDataLengthUsingCB( uint8 endpoint, uint16 clusterID, uint16 attrId );
//  187 static ZStatus_t zclReadAttrDataUsingCB( uint8 endpoint, uint16 clusterId, uint16 attrId,
//  188                                          uint8 *pAttrData, uint16 *pDataLen );
//  189 static ZStatus_t zclAuthorizeRead( uint8 endpoint, afAddrType_t *srcAddr, zclAttrRec_t *pAttr );
//  190 static void *zclParseInReadRspCmd( zclParseCmd_t *pCmd );
//  191 static uint8 zclProcessInReadCmd( zclIncoming_t *pInMsg );
//  192 #endif // ZCL_READ
//  193 
//  194 #ifdef ZCL_WRITE
//  195 static ZStatus_t zclWriteAttrData( uint8 endpoint, afAddrType_t *srcAddr,
//  196                                    zclAttrRec_t *pAttr, zclWriteRec_t *pWriteRec );
//  197 static ZStatus_t zclWriteAttrDataUsingCB( uint8 endpoint, afAddrType_t *srcAddr,
//  198                                           zclAttrRec_t *pAttr, uint8 *pAttrData );
//  199 static ZStatus_t zclAuthorizeWrite( uint8 endpoint, afAddrType_t *srcAddr, zclAttrRec_t *pAttr );
//  200 static void *zclParseInWriteRspCmd( zclParseCmd_t *pCmd );
//  201 static uint8 zclProcessInWriteCmd( zclIncoming_t *pInMsg );
//  202 static uint8 zclProcessInWriteUndividedCmd( zclIncoming_t *pInMsg );
//  203 #endif // ZCL_WRITE
//  204 
//  205 #ifdef ZCL_REPORT
//  206 static void *zclParseInConfigReportRspCmd( zclParseCmd_t *pCmd );
//  207 static void *zclParseInReadReportCfgRspCmd( zclParseCmd_t *pCmd );
//  208 #endif // ZCL_REPORT
//  209 
//  210 static void *zclParseInDefaultRspCmd( zclParseCmd_t *pCmd );
//  211 
//  212 #ifdef ZCL_DISCOVER
//  213 static uint8 zclFindNextAttrRec( uint8 endpoint, uint16 clusterID, uint16 *attrId, zclAttrRec_t *pAttr );
//  214 static void *zclParseInDiscRspCmd( zclParseCmd_t *pCmd );
//  215 static uint8 zclProcessInDiscCmd( zclIncoming_t *pInMsg );
//  216 #endif // ZCL_DISCOVER
//  217 
//  218 static uint8 zclSendMsg( zclIncoming_t *pInMsg );
//  219 
//  220 /*********************************************************************
//  221  * Parse Profile Command Function Table
//  222  */

        RSEG CODE_C:CODE:REORDER:NOROOT(0)
        DATA8
//  223 static CONST zclCmdItems_t zclCmdTable[] =
zclCmdTable:
        DATA16
        DW 0H
        DW 0H
        DW 0H
        DW 0H
        DW 0H
        DW 0H
        DW 0H
        DW 0H
        DW 0H
        DW 0H
        DW 0H
        DW 0H
        DW 0H
        DW 0H
        DW 0H
        DW 0H
        DW 0H
        DW 0H
        DW 0H
        DW 0H
        DW 0H
        DW 0H
        DW ??zclParseInDefaultRspCmd?relay
        DW ??zclSendMsg?relay
        DW 0H
        DW 0H
        DW 0H
        DW 0H
//  224 {
//  225 #ifdef ZCL_READ
//  226   /* ZCL_CMD_READ */                { zclParseInReadCmd,             zclProcessInReadCmd             },
//  227   /* ZCL_CMD_READ_RSP */            { zclParseInReadRspCmd,          zclSendMsg                      },
//  228 #else
//  229   /* ZCL_CMD_READ */                { NULL,                          NULL                            },
//  230   /* ZCL_CMD_READ_RSP */            { NULL,                          NULL                            },
//  231 #endif // ZCL_READ
//  232 
//  233 #ifdef ZCL_WRITE
//  234   /* ZCL_CMD_WRITE */               { zclParseInWriteCmd,            zclProcessInWriteCmd            },
//  235   /* ZCL_CMD_WRITE_UNDIVIDED */     { zclParseInWriteCmd,            zclProcessInWriteUndividedCmd   },
//  236   /* ZCL_CMD_WRITE_RSP */           { zclParseInWriteRspCmd,         zclSendMsg                      },
//  237   /* ZCL_CMD_WRITE_NO_RSP */        { zclParseInWriteCmd,            zclProcessInWriteCmd            },
//  238 #else
//  239   /* ZCL_CMD_WRITE */               { NULL,                          NULL                            },
//  240   /* ZCL_CMD_WRITE_UNDIVIDED */     { NULL,                          NULL                            },
//  241   /* ZCL_CMD_WRITE_RSP */           { NULL,                          NULL                            },
//  242   /* ZCL_CMD_WRITE_NO_RSP */        { NULL,                          NULL                            },
//  243 #endif // ZCL_WRITE
//  244 
//  245 #ifdef ZCL_REPORT
//  246   /* ZCL_CMD_CONFIG_REPORT */       { zclParseInConfigReportCmd,     zclSendMsg                      },
//  247   /* ZCL_CMD_CONFIG_REPORT_RSP */   { zclParseInConfigReportRspCmd,  zclSendMsg                      },
//  248   /* ZCL_CMD_READ_REPORT_CFG */     { zclParseInReadReportCfgCmd,    zclSendMsg                      },
//  249   /* ZCL_CMD_READ_REPORT_CFG_RSP */ { zclParseInReadReportCfgRspCmd, zclSendMsg                      },
//  250   /* ZCL_CMD_REPORT */              { zclParseInReportCmd,           zclSendMsg                      },
//  251 #else
//  252   /* ZCL_CMD_CONFIG_REPORT */       { NULL,                          NULL                            },
//  253   /* ZCL_CMD_CONFIG_REPORT_RSP */   { NULL,                          NULL                            },
//  254   /* ZCL_CMD_READ_REPORT_CFG */     { NULL,                          NULL                            },
//  255   /* ZCL_CMD_READ_REPORT_CFG_RSP */ { NULL,                          NULL                            },
//  256   /* ZCL_CMD_REPORT */              { NULL,                          NULL                            },
//  257 #endif // ZCL_REPORT
//  258 
//  259   /* ZCL_CMD_DEFAULT_RSP */         { zclParseInDefaultRspCmd,       zclSendMsg                      },
//  260 
//  261 #ifdef ZCL_DISCOVER
//  262   /* ZCL_CMD_DISCOVER */            { zclParseInDiscCmd,             zclProcessInDiscCmd             },
//  263   /* ZCL_CMD_DISCOVER_RSP */        { zclParseInDiscRspCmd,          zclSendMsg                      }
//  264 #else
//  265   /* ZCL_CMD_DISCOVER */            { NULL,                          NULL                            },
//  266   /* ZCL_CMD_DISCOVER_RSP */        { NULL,                          NULL                            }
//  267 #endif // ZCL_DISCOVER
//  268 };
//  269 
//  270 /*********************************************************************
//  271  * PUBLIC FUNCTIONS
//  272  *********************************************************************/
//  273 
//  274 /*********************************************************************
//  275  * @fn          zcl_Init
//  276  *
//  277  * @brief       Initialization function for the zcl layer.
//  278  *
//  279  * @param       task_id - ZCL task id
//  280  *
//  281  * @return      none
//  282  */

        RSEG BANKED_CODE:CODE:NOROOT(0)
//  283 void zcl_Init( uint8 task_id )
zcl_Init:
        CFI Block cfiBlock0 Using cfiCommon0
        CFI Function zcl_Init
        CODE
//  284 {
        PUSH    DPL
        CFI DPL0 Frame(CFA_SP, 4)
        CFI CFA_SP SP+-4
        PUSH    DPH
        CFI DPH0 Frame(CFA_SP, 5)
        CFI CFA_SP SP+-5
        ; Saved register size: 2
        ; Auto size: 0
//  285   zcl_TaskID = task_id;
        MOV     A,R1
        MOV     DPTR,#zcl_TaskID
        MOVX    @DPTR,A
//  286 
//  287   plugins = (zclLibPlugin_t  *)NULL;
        MOV     DPTR,#plugins
        CLR     A
        MOVX    @DPTR,A
        INC     DPTR
        MOVX    @DPTR,A
//  288   attrList = (zclAttrRecsList *)NULL;
        MOV     DPTR,#attrList
        MOVX    @DPTR,A
        INC     DPTR
        MOVX    @DPTR,A
//  289   clusterOptionList = (zclClusterOptionList *)NULL;
        MOV     DPTR,#clusterOptionList
        MOVX    @DPTR,A
        INC     DPTR
        MOVX    @DPTR,A
//  290 }
        LJMP    ?Subroutine0 & 0xFFFF
        CFI EndBlock cfiBlock0
//  291 
//  292 /*********************************************************************
//  293  * @fn          zcl_event_loop
//  294  *
//  295  * @brief       Event Loop Processor for zcl.
//  296  *
//  297  * @param       task_id - task id
//  298  * @param       events - event bitmap
//  299  *
//  300  * @return      unprocessed events
//  301  */

        RSEG BANKED_CODE:CODE:NOROOT(0)
//  302 uint16 zcl_event_loop( uint8 task_id, uint16 events )
zcl_event_loop:
        CFI Block cfiBlock1 Using cfiCommon0
        CFI Function zcl_event_loop
        CODE
//  303 {
        FUNCALL zcl_event_loop, osal_msg_receive
        LOCFRAME ISTACK, 0, STACK
        LOCFRAME PSTACK, 0, STACK
        LOCFRAME XSTACK, 12, STACK
        LOCFRAME IOVERLAY, 0, STATIC
        LOCFRAME DOVERLAY, 0, STATIC
        ARGFRAME ISTACK, 0, STACK
        ARGFRAME PSTACK, 0, STACK
        ARGFRAME XSTACK, 12, STACK
        ARGFRAME IOVERLAY, 0, STATIC
        ARGFRAME DOVERLAY, 0, STATIC
        FUNCALL zcl_event_loop, zclProcessMessageMSG
        LOCFRAME ISTACK, 0, STACK
        LOCFRAME PSTACK, 0, STACK
        LOCFRAME XSTACK, 12, STACK
        LOCFRAME IOVERLAY, 0, STATIC
        LOCFRAME DOVERLAY, 0, STATIC
        ARGFRAME ISTACK, 0, STACK
        ARGFRAME PSTACK, 0, STACK
        ARGFRAME XSTACK, 12, STACK
        ARGFRAME IOVERLAY, 0, STATIC
        ARGFRAME DOVERLAY, 0, STATIC
        FUNCALL zcl_event_loop, osal_msg_deallocate
        LOCFRAME ISTACK, 0, STACK
        LOCFRAME PSTACK, 0, STACK
        LOCFRAME XSTACK, 12, STACK
        LOCFRAME IOVERLAY, 0, STATIC
        LOCFRAME DOVERLAY, 0, STATIC
        ARGFRAME ISTACK, 0, STACK
        ARGFRAME PSTACK, 0, STACK
        ARGFRAME XSTACK, 12, STACK
        ARGFRAME IOVERLAY, 0, STATIC
        ARGFRAME DOVERLAY, 0, STATIC
        FUNCALL zcl_event_loop, osal_msg_receive
        LOCFRAME ISTACK, 0, STACK
        LOCFRAME PSTACK, 0, STACK
        LOCFRAME XSTACK, 12, STACK
        LOCFRAME IOVERLAY, 0, STATIC
        LOCFRAME DOVERLAY, 0, STATIC
        ARGFRAME ISTACK, 0, STACK
        ARGFRAME PSTACK, 0, STACK
        ARGFRAME XSTACK, 12, STACK
        ARGFRAME IOVERLAY, 0, STATIC
        ARGFRAME DOVERLAY, 0, STATIC
        FUNCALL zcl_event_loop, osal_msg_send
        LOCFRAME ISTACK, 0, STACK
        LOCFRAME PSTACK, 0, STACK
        LOCFRAME XSTACK, 12, STACK
        LOCFRAME IOVERLAY, 0, STATIC
        LOCFRAME DOVERLAY, 0, STATIC
        ARGFRAME ISTACK, 0, STACK
        ARGFRAME PSTACK, 0, STACK
        ARGFRAME XSTACK, 12, STACK
        ARGFRAME IOVERLAY, 0, STATIC
        ARGFRAME DOVERLAY, 0, STATIC
        MOV     A,#-0xc
        LCALL   ?BANKED_ENTER_XDATA
        CFI DPH0 load(1, XDATA, add(CFA_XSP16, literal(-1)))
        CFI DPL0 load(1, XDATA, add(CFA_XSP16, literal(-2)))
        CFI ?BRET_EXT load(1, XDATA, add(CFA_XSP16, literal(-3)))
        CFI ?RET_HIGH load(1, XDATA, add(CFA_XSP16, literal(-4)))
        CFI ?RET_LOW load(1, XDATA, add(CFA_XSP16, literal(-5)))
        CFI R7 load(1, XDATA, add(CFA_XSP16, literal(-6)))
        CFI V3 load(1, XDATA, add(CFA_XSP16, literal(-7)))
        CFI V2 load(1, XDATA, add(CFA_XSP16, literal(-8)))
        CFI V1 load(1, XDATA, add(CFA_XSP16, literal(-9)))
        CFI V0 load(1, XDATA, add(CFA_XSP16, literal(-10)))
        CFI VB load(1, XDATA, add(CFA_XSP16, literal(-11)))
        CFI R6 load(1, XDATA, add(CFA_XSP16, literal(-12)))
        CFI CFA_SP SP+0
        CFI CFA_XSP16 add(XSP16, 12)
        ; Saved register size: 12
        ; Auto size: 0
        MOV     ?V0 + 0,R2
        MOV     ?V0 + 1,R3
//  304   uint8 *msgPtr;
//  305 
//  306   (void)task_id;  // Intentionally unreferenced parameter
//  307 
//  308   if ( events & SYS_EVENT_MSG )
        MOV     A,R3
        ANL     A,#0x80
        JZ      ??zcl_event_loop_0
//  309   {
//  310     msgPtr = osal_msg_receive( zcl_TaskID );
        ; Setup parameters for call to function osal_msg_receive
        SJMP    ??zcl_event_loop_1
//  311     while ( msgPtr != NULL )
//  312     {
//  313       uint8 dealloc = TRUE;
//  314 
//  315       if ( *msgPtr == AF_INCOMING_MSG_CMD )
//  316       {
//  317         rawAFMsg = (afIncomingMSGPacket_t *)msgPtr;
??zcl_event_loop_2:
        MOV     DPTR,#rawAFMsg
        MOV     A,R6
        MOVX    @DPTR,A
        INC     DPTR
        MOV     A,R7
        MOVX    @DPTR,A
//  318         zclProcessMessageMSG( rawAFMsg );
        ; Setup parameters for call to function zclProcessMessageMSG
        LCALL   ?Subroutine24 & 0xFFFF
??CrossCallReturnLabel_131:
        LCALL   ??zclProcessMessageMSG?relay
//  319         rawAFMsg = NULL;
        MOV     DPTR,#rawAFMsg
        CLR     A
        MOVX    @DPTR,A
        INC     DPTR
        MOVX    @DPTR,A
//  320       }
//  321       else if ( zcl_RegisteredMsgTaskID != TASK_NO_TASK )
//  322       {
//  323         // send it to another task to process.
//  324         osal_msg_send( zcl_RegisteredMsgTaskID, msgPtr );
//  325         dealloc = FALSE;
//  326       }
//  327 
//  328       // Release the memory
//  329       if ( dealloc )
//  330       {
//  331         osal_msg_deallocate( msgPtr );
??zcl_event_loop_3:
        ; Setup parameters for call to function osal_msg_deallocate
        MOV     A,R6
        MOV     R2,A
        MOV     A,R7
        MOV     R3,A
        LCALL   ??osal_msg_deallocate?relay
//  332       }
//  333 
//  334       // Next
//  335       msgPtr = osal_msg_receive( zcl_TaskID );
??zcl_event_loop_1:
        ; Setup parameters for call to function osal_msg_receive
        MOV     DPTR,#zcl_TaskID
        MOVX    A,@DPTR
        MOV     R1,A
        LCALL   ??osal_msg_receive?relay
        MOV     ?V0 + 2,R2
        MOV     ?V0 + 3,R3
        MOV     R6,?V0 + 2
        MOV     R7,?V0 + 3
        MOV     A,R6
        ORL     A,R7
        JZ      ??zcl_event_loop_4
        MOV     DPL,R6
        MOV     DPH,R7
        MOVX    A,@DPTR
        XRL     A,#0x1a
        JZ      ??zcl_event_loop_2
        MOV     DPTR,#zcl_RegisteredMsgTaskID
        MOVX    A,@DPTR
        CPL     A
        JZ      ??zcl_event_loop_3
        ; Setup parameters for call to function osal_msg_send
        MOV     A,R6
        MOV     R2,A
        MOV     A,R7
        MOV     R3,A
        MOVX    A,@DPTR
        MOV     R1,A
        LCALL   ??osal_msg_send?relay
        SJMP    ??zcl_event_loop_1
//  336     }
//  337 
//  338     // return unprocessed events
//  339     return (events ^ SYS_EVENT_MSG);
??zcl_event_loop_4:
        MOV     R2,?V0 + 0
        MOV     A,?V0 + 1
        XRL     A,#0x80
        MOV     R3,A
        SJMP    ??zcl_event_loop_5
//  340   }
//  341 
//  342   // Discard unknown events
//  343   return 0;
??zcl_event_loop_0:
        MOV     R2,#0x0
        MOV     R3,#0x0
??zcl_event_loop_5:
        LJMP    ?Subroutine1 & 0xFFFF
        CFI EndBlock cfiBlock1
//  344 }
//  345 
//  346 /*********************************************************************
//  347  * @fn          zcl_getRawAFMsg
//  348  *
//  349  * @brief       Call to get original unprocessed AF message
//  350  *              (not parsed by ZCL).
//  351  *
//  352  *   NOTE:  This function can only be called during a ZCL callback function
//  353  *          and the calling function must NOT change any data in the message.
//  354  *
//  355  * @param       none
//  356  *
//  357  * @return      pointer to original AF message, NULL if not processing
//  358  *              AF message.
//  359  */

        RSEG BANKED_CODE:CODE:NOROOT(0)
//  360 afIncomingMSGPacket_t *zcl_getRawAFMsg( void )
zcl_getRawAFMsg:
        CFI Block cfiBlock2 Using cfiCommon0
        CFI Function zcl_getRawAFMsg
        CODE
//  361 {
        PUSH    DPL
        CFI DPL0 Frame(CFA_SP, 4)
        CFI CFA_SP SP+-4
        PUSH    DPH
        CFI DPH0 Frame(CFA_SP, 5)
        CFI CFA_SP SP+-5
        ; Saved register size: 2
        ; Auto size: 0
//  362   return ( rawAFMsg );
        LCALL   ?Subroutine24 & 0xFFFF
??CrossCallReturnLabel_132:
        LJMP    ?Subroutine0 & 0xFFFF
        CFI EndBlock cfiBlock2
//  363 }
//  364 
//  365 /*********************************************************************
//  366  * @fn          zcl_registerPlugin
//  367  *
//  368  * @brief       Add a Cluster Library handler
//  369  *
//  370  * @param       startClusterID - starting cluster ID
//  371  * @param       endClusterID - ending cluster ID
//  372  * @param       pfnHdlr - function pointer to incoming message handler
//  373  *
//  374  * @return      ZSuccess if OK
//  375  */

        RSEG BANKED_CODE:CODE:NOROOT(0)
//  376 ZStatus_t zcl_registerPlugin( uint16 startClusterID,
zcl_registerPlugin:
        CFI Block cfiBlock3 Using cfiCommon0
        CFI Function zcl_registerPlugin
        CODE
//  377           uint16 endClusterID, zclInHdlr_t pfnIncomingHdlr )
//  378 {
        FUNCALL zcl_registerPlugin, osal_mem_alloc
        LOCFRAME ISTACK, 0, STACK
        LOCFRAME PSTACK, 0, STACK
        LOCFRAME XSTACK, 14, STACK
        LOCFRAME IOVERLAY, 0, STATIC
        LOCFRAME DOVERLAY, 0, STATIC
        ARGFRAME ISTACK, 0, STACK
        ARGFRAME PSTACK, 0, STACK
        ARGFRAME XSTACK, 14, STACK
        ARGFRAME IOVERLAY, 0, STATIC
        ARGFRAME DOVERLAY, 0, STATIC
        MOV     A,#-0xe
        LCALL   ?BANKED_ENTER_XDATA
        CFI DPH0 load(1, XDATA, add(CFA_XSP16, literal(-1)))
        CFI DPL0 load(1, XDATA, add(CFA_XSP16, literal(-2)))
        CFI ?BRET_EXT load(1, XDATA, add(CFA_XSP16, literal(-3)))
        CFI ?RET_HIGH load(1, XDATA, add(CFA_XSP16, literal(-4)))
        CFI ?RET_LOW load(1, XDATA, add(CFA_XSP16, literal(-5)))
        CFI R7 load(1, XDATA, add(CFA_XSP16, literal(-6)))
        CFI V5 load(1, XDATA, add(CFA_XSP16, literal(-7)))
        CFI V4 load(1, XDATA, add(CFA_XSP16, literal(-8)))
        CFI V3 load(1, XDATA, add(CFA_XSP16, literal(-9)))
        CFI V2 load(1, XDATA, add(CFA_XSP16, literal(-10)))
        CFI V1 load(1, XDATA, add(CFA_XSP16, literal(-11)))
        CFI V0 load(1, XDATA, add(CFA_XSP16, literal(-12)))
        CFI VB load(1, XDATA, add(CFA_XSP16, literal(-13)))
        CFI R6 load(1, XDATA, add(CFA_XSP16, literal(-14)))
        CFI CFA_SP SP+0
        CFI CFA_XSP16 add(XSP16, 14)
        ; Saved register size: 14
        ; Auto size: 0
        MOV     ?V0 + 0,R2
        MOV     ?V0 + 1,R3
        MOV     ?V0 + 2,R4
        MOV     ?V0 + 3,R5
        MOV     A,#0xe
        LCALL   ?XSTACK_DISP0_8
        MOVX    A,@DPTR
        MOV     R6,A
        INC     DPTR
        MOVX    A,@DPTR
        MOV     R7,A
//  379   zclLibPlugin_t *pNewItem;
//  380   zclLibPlugin_t *pLoop;
//  381 
//  382   // Fill in the new profile list
//  383   pNewItem = osal_mem_alloc( sizeof( zclLibPlugin_t ) );
        ; Setup parameters for call to function osal_mem_alloc
        MOV     R2,#0x8
        MOV     R3,#0x0
        LCALL   ??osal_mem_alloc?relay
        MOV     ?V0 + 4,R2
        MOV     ?V0 + 5,R3
        MOV     R0,?V0 + 4
        MOV     R1,?V0 + 5
//  384   if ( pNewItem == NULL )
        MOV     A,R0
        ORL     A,R1
        JNZ     ??zcl_registerPlugin_0
//  385   {
//  386     return (ZMemError);
        MOV     R1,#0x10
        SJMP    ??CrossCallReturnLabel_13
//  387   }
//  388 
//  389   // Fill in the plugin record.
//  390   pNewItem->next = (zclLibPlugin_t *)NULL;
??zcl_registerPlugin_0:
        LCALL   ?Subroutine41 & 0xFFFF
//  391   pNewItem->startClusterID = startClusterID;
??CrossCallReturnLabel_70:
        INC     DPTR
        LCALL   ?Subroutine8 & 0xFFFF
//  392   pNewItem->endClusterID = endClusterID;
??CrossCallReturnLabel_84:
        MOV     A,?V0 + 2
        MOVX    @DPTR,A
        INC     DPTR
        MOV     A,?V0 + 3
        MOVX    @DPTR,A
//  393   pNewItem->pfnIncomingHdlr = pfnIncomingHdlr;
        MOV     A,R6
        MOV     R2,A
        MOV     A,R7
        MOV     R3,A
        MOV     DPL,R0
        MOV     DPH,R1
        INC     DPTR
        INC     DPTR
        INC     DPTR
        INC     DPTR
        INC     DPTR
        INC     DPTR
        MOV     A,R2
        MOVX    @DPTR,A
        INC     DPTR
        MOV     A,R3
        MOVX    @DPTR,A
//  394 
//  395   // Find spot in list
//  396   if (  plugins == NULL )
        MOV     DPTR,#plugins
        LCALL   ?Subroutine21 & 0xFFFF
??CrossCallReturnLabel_31:
        JNZ     ??zcl_registerPlugin_1
//  397   {
//  398     plugins = pNewItem;
        MOV     DPTR,#plugins
        SJMP    ??zcl_registerPlugin_2
//  399   }
//  400   else
//  401   {
//  402     // Look for end of list
//  403     pLoop = plugins;
//  404     while ( pLoop->next != NULL )
//  405     {
//  406       pLoop = pLoop->next;
??zcl_registerPlugin_3:
        MOVX    A,@DPTR
        MOV     R2,A
        INC     DPTR
//  407     }
??zcl_registerPlugin_1:
        LCALL   ?Subroutine16 & 0xFFFF
??CrossCallReturnLabel_19:
        JNZ     ??zcl_registerPlugin_3
//  408 
//  409     // Put new item at end of list
//  410     pLoop->next = pNewItem;
//  411   }
??zcl_registerPlugin_2:
        LCALL   ?Subroutine12 & 0xFFFF
        CFI EndBlock cfiBlock3
//  412 
//  413   return ( ZSuccess );
??CrossCallReturnLabel_13:
        REQUIRE ?Subroutine2
        ; // Fall through to label ?Subroutine2
//  414 }

        RSEG BANKED_CODE:CODE:NOROOT(0)
?Subroutine2:
        CFI Block cfiBlock4 Using cfiCommon0
        CFI NoFunction
        CFI CFA_SP SP+0
        CFI CFA_XSP16 add(XSP16, 14)
        CFI VB load(1, XDATA, add(CFA_XSP16, literal(-13)))
        CFI DPL0 load(1, XDATA, add(CFA_XSP16, literal(-2)))
        CFI DPH0 load(1, XDATA, add(CFA_XSP16, literal(-1)))
        CFI R6 load(1, XDATA, add(CFA_XSP16, literal(-14)))
        CFI R7 load(1, XDATA, add(CFA_XSP16, literal(-6)))
        CFI V0 load(1, XDATA, add(CFA_XSP16, literal(-12)))
        CFI V1 load(1, XDATA, add(CFA_XSP16, literal(-11)))
        CFI V2 load(1, XDATA, add(CFA_XSP16, literal(-10)))
        CFI V3 load(1, XDATA, add(CFA_XSP16, literal(-9)))
        CFI V4 load(1, XDATA, add(CFA_XSP16, literal(-8)))
        CFI V5 load(1, XDATA, add(CFA_XSP16, literal(-7)))
        CFI ?BRET_EXT load(1, XDATA, add(CFA_XSP16, literal(-3)))
        CFI ?RET_HIGH load(1, XDATA, add(CFA_XSP16, literal(-4)))
        CFI ?RET_LOW load(1, XDATA, add(CFA_XSP16, literal(-5)))
        MOV     R7,#0x6
        LJMP    ?BANKED_LEAVE_XDATA
        CFI EndBlock cfiBlock4

        RSEG BANKED_CODE:CODE:NOROOT(0)
?Subroutine8:
        CFI Block cfiCond5 Using cfiCommon0
        CFI NoFunction
        CFI Conditional ??CrossCallReturnLabel_84
        CFI R6 load(1, XDATA, add(CFA_XSP16, literal(-14)))
        CFI VB load(1, XDATA, add(CFA_XSP16, literal(-13)))
        CFI V0 load(1, XDATA, add(CFA_XSP16, literal(-12)))
        CFI V1 load(1, XDATA, add(CFA_XSP16, literal(-11)))
        CFI V2 load(1, XDATA, add(CFA_XSP16, literal(-10)))
        CFI V3 load(1, XDATA, add(CFA_XSP16, literal(-9)))
        CFI V4 load(1, XDATA, add(CFA_XSP16, literal(-8)))
        CFI V5 load(1, XDATA, add(CFA_XSP16, literal(-7)))
        CFI R7 load(1, XDATA, add(CFA_XSP16, literal(-6)))
        CFI ?RET_LOW load(1, XDATA, add(CFA_XSP16, literal(-5)))
        CFI ?RET_HIGH load(1, XDATA, add(CFA_XSP16, literal(-4)))
        CFI ?BRET_EXT load(1, XDATA, add(CFA_XSP16, literal(-3)))
        CFI DPL0 load(1, XDATA, add(CFA_XSP16, literal(-2)))
        CFI DPH0 load(1, XDATA, add(CFA_XSP16, literal(-1)))
        CFI CFA_SP SP+0
        CFI CFA_XSP16 add(XSP16, 14)
        CFI Block cfiCond6 Using cfiCommon0
        CFI (cfiCond6) NoFunction
        CFI (cfiCond6) Conditional ??CrossCallReturnLabel_85
        CFI (cfiCond6) R6 load(1, XDATA, add(CFA_XSP16, literal(-12)))
        CFI (cfiCond6) VB load(1, XDATA, add(CFA_XSP16, literal(-11)))
        CFI (cfiCond6) V0 load(1, XDATA, add(CFA_XSP16, literal(-10)))
        CFI (cfiCond6) V1 load(1, XDATA, add(CFA_XSP16, literal(-9)))
        CFI (cfiCond6) V2 load(1, XDATA, add(CFA_XSP16, literal(-8)))
        CFI (cfiCond6) V3 load(1, XDATA, add(CFA_XSP16, literal(-7)))
        CFI (cfiCond6) R7 load(1, XDATA, add(CFA_XSP16, literal(-6)))
        CFI (cfiCond6) ?RET_LOW load(1, XDATA, add(CFA_XSP16, literal(-5)))
        CFI (cfiCond6) ?RET_HIGH load(1, XDATA, add(CFA_XSP16, literal(-4)))
        CFI (cfiCond6) ?BRET_EXT load(1, XDATA, add(CFA_XSP16, literal(-3)))
        CFI (cfiCond6) DPL0 load(1, XDATA, add(CFA_XSP16, literal(-2)))
        CFI (cfiCond6) DPH0 load(1, XDATA, add(CFA_XSP16, literal(-1)))
        CFI (cfiCond6) CFA_SP SP+0
        CFI (cfiCond6) CFA_XSP16 add(XSP16, 12)
        CFI Block cfiPicker7 Using cfiCommon1
        CFI (cfiPicker7) NoFunction
        CFI (cfiPicker7) Picker
        MOV     A,?V0 + 1
        CFI EndBlock cfiCond5
        CFI EndBlock cfiCond6
        CFI EndBlock cfiPicker7
        REQUIRE ??Subroutine53_0
        ; // Fall through to label ??Subroutine53_0

        RSEG BANKED_CODE:CODE:NOROOT(0)
??Subroutine53_0:
        CFI Block cfiCond8 Using cfiCommon0
        CFI NoFunction
        CFI Conditional ??CrossCallReturnLabel_86
        CFI R6 load(1, XDATA, add(CFA_XSP16, literal(-14)))
        CFI VB load(1, XDATA, add(CFA_XSP16, literal(-13)))
        CFI V0 load(1, XDATA, add(CFA_XSP16, literal(-12)))
        CFI V1 load(1, XDATA, add(CFA_XSP16, literal(-11)))
        CFI V2 load(1, XDATA, add(CFA_XSP16, literal(-10)))
        CFI V3 load(1, XDATA, add(CFA_XSP16, literal(-9)))
        CFI V4 load(1, XDATA, add(CFA_XSP16, literal(-8)))
        CFI V5 load(1, XDATA, add(CFA_XSP16, literal(-7)))
        CFI R7 load(1, XDATA, add(CFA_XSP16, literal(-6)))
        CFI ?RET_LOW load(1, XDATA, add(CFA_XSP16, literal(-5)))
        CFI ?RET_HIGH load(1, XDATA, add(CFA_XSP16, literal(-4)))
        CFI ?BRET_EXT load(1, XDATA, add(CFA_XSP16, literal(-3)))
        CFI DPL0 load(1, XDATA, add(CFA_XSP16, literal(-2)))
        CFI DPH0 load(1, XDATA, add(CFA_XSP16, literal(-1)))
        CFI CFA_SP SP+0
        CFI CFA_XSP16 add(XSP16, 14)
        CFI Block cfiCond9 Using cfiCommon0
        CFI (cfiCond9) NoFunction
        CFI (cfiCond9) Conditional ??CrossCallReturnLabel_84
        CFI (cfiCond9) R6 load(1, XDATA, add(CFA_XSP16, literal(-14)))
        CFI (cfiCond9) VB load(1, XDATA, add(CFA_XSP16, literal(-13)))
        CFI (cfiCond9) V0 load(1, XDATA, add(CFA_XSP16, literal(-12)))
        CFI (cfiCond9) V1 load(1, XDATA, add(CFA_XSP16, literal(-11)))
        CFI (cfiCond9) V2 load(1, XDATA, add(CFA_XSP16, literal(-10)))
        CFI (cfiCond9) V3 load(1, XDATA, add(CFA_XSP16, literal(-9)))
        CFI (cfiCond9) V4 load(1, XDATA, add(CFA_XSP16, literal(-8)))
        CFI (cfiCond9) V5 load(1, XDATA, add(CFA_XSP16, literal(-7)))
        CFI (cfiCond9) R7 load(1, XDATA, add(CFA_XSP16, literal(-6)))
        CFI (cfiCond9) ?RET_LOW load(1, XDATA, add(CFA_XSP16, literal(-5)))
        CFI (cfiCond9) ?RET_HIGH load(1, XDATA, add(CFA_XSP16, literal(-4)))
        CFI (cfiCond9) ?BRET_EXT load(1, XDATA, add(CFA_XSP16, literal(-3)))
        CFI (cfiCond9) DPL0 load(1, XDATA, add(CFA_XSP16, literal(-2)))
        CFI (cfiCond9) DPH0 load(1, XDATA, add(CFA_XSP16, literal(-1)))
        CFI (cfiCond9) CFA_SP SP+0
        CFI (cfiCond9) CFA_XSP16 add(XSP16, 14)
        CFI Block cfiCond10 Using cfiCommon0
        CFI (cfiCond10) NoFunction
        CFI (cfiCond10) Conditional ??CrossCallReturnLabel_85
        CFI (cfiCond10) R6 load(1, XDATA, add(CFA_XSP16, literal(-12)))
        CFI (cfiCond10) VB load(1, XDATA, add(CFA_XSP16, literal(-11)))
        CFI (cfiCond10) V0 load(1, XDATA, add(CFA_XSP16, literal(-10)))
        CFI (cfiCond10) V1 load(1, XDATA, add(CFA_XSP16, literal(-9)))
        CFI (cfiCond10) V2 load(1, XDATA, add(CFA_XSP16, literal(-8)))
        CFI (cfiCond10) V3 load(1, XDATA, add(CFA_XSP16, literal(-7)))
        CFI (cfiCond10) R7 load(1, XDATA, add(CFA_XSP16, literal(-6)))
        CFI (cfiCond10) ?RET_LOW load(1, XDATA, add(CFA_XSP16, literal(-5)))
        CFI (cfiCond10) ?RET_HIGH load(1, XDATA, add(CFA_XSP16, literal(-4)))
        CFI (cfiCond10) ?BRET_EXT load(1, XDATA, add(CFA_XSP16, literal(-3)))
        CFI (cfiCond10) DPL0 load(1, XDATA, add(CFA_XSP16, literal(-2)))
        CFI (cfiCond10) DPH0 load(1, XDATA, add(CFA_XSP16, literal(-1)))
        CFI (cfiCond10) CFA_SP SP+0
        CFI (cfiCond10) CFA_XSP16 add(XSP16, 12)
        CFI Block cfiPicker11 Using cfiCommon1
        CFI (cfiPicker11) NoFunction
        CFI (cfiPicker11) Picker
        LCALL   ?Subroutine42 & 0xFFFF
??CrossCallReturnLabel_87:
        RET
        CFI EndBlock cfiCond8
        CFI EndBlock cfiCond9
        CFI EndBlock cfiCond10
        CFI EndBlock cfiPicker11

        RSEG BANKED_CODE:CODE:NOROOT(0)
?Subroutine42:
        CFI Block cfiCond12 Using cfiCommon0
        CFI NoFunction
        CFI Conditional ??CrossCallReturnLabel_87, ??CrossCallReturnLabel_84
        CFI R6 load(1, XDATA, add(CFA_XSP16, literal(-14)))
        CFI VB load(1, XDATA, add(CFA_XSP16, literal(-13)))
        CFI V0 load(1, XDATA, add(CFA_XSP16, literal(-12)))
        CFI V1 load(1, XDATA, add(CFA_XSP16, literal(-11)))
        CFI V2 load(1, XDATA, add(CFA_XSP16, literal(-10)))
        CFI V3 load(1, XDATA, add(CFA_XSP16, literal(-9)))
        CFI V4 load(1, XDATA, add(CFA_XSP16, literal(-8)))
        CFI V5 load(1, XDATA, add(CFA_XSP16, literal(-7)))
        CFI R7 load(1, XDATA, add(CFA_XSP16, literal(-6)))
        CFI ?RET_LOW load(1, XDATA, add(CFA_XSP16, literal(-5)))
        CFI ?RET_HIGH load(1, XDATA, add(CFA_XSP16, literal(-4)))
        CFI ?BRET_EXT load(1, XDATA, add(CFA_XSP16, literal(-3)))
        CFI DPL0 load(1, XDATA, add(CFA_XSP16, literal(-2)))
        CFI DPH0 load(1, XDATA, add(CFA_XSP16, literal(-1)))
        CFI CFA_SP SP+0
        CFI CFA_XSP16 add(XSP16, 14)
        CFI Block cfiCond13 Using cfiCommon0
        CFI (cfiCond13) NoFunction
        CFI (cfiCond13) Conditional ??CrossCallReturnLabel_87, ??CrossCallReturnLabel_85
        CFI (cfiCond13) R6 load(1, XDATA, add(CFA_XSP16, literal(-12)))
        CFI (cfiCond13) VB load(1, XDATA, add(CFA_XSP16, literal(-11)))
        CFI (cfiCond13) V0 load(1, XDATA, add(CFA_XSP16, literal(-10)))
        CFI (cfiCond13) V1 load(1, XDATA, add(CFA_XSP16, literal(-9)))
        CFI (cfiCond13) V2 load(1, XDATA, add(CFA_XSP16, literal(-8)))
        CFI (cfiCond13) V3 load(1, XDATA, add(CFA_XSP16, literal(-7)))
        CFI (cfiCond13) R7 load(1, XDATA, add(CFA_XSP16, literal(-6)))
        CFI (cfiCond13) ?RET_LOW load(1, XDATA, add(CFA_XSP16, literal(-5)))
        CFI (cfiCond13) ?RET_HIGH load(1, XDATA, add(CFA_XSP16, literal(-4)))
        CFI (cfiCond13) ?BRET_EXT load(1, XDATA, add(CFA_XSP16, literal(-3)))
        CFI (cfiCond13) DPL0 load(1, XDATA, add(CFA_XSP16, literal(-2)))
        CFI (cfiCond13) DPH0 load(1, XDATA, add(CFA_XSP16, literal(-1)))
        CFI (cfiCond13) CFA_SP SP+0
        CFI (cfiCond13) CFA_XSP16 add(XSP16, 12)
        CFI Block cfiCond14 Using cfiCommon0
        CFI (cfiCond14) NoFunction
        CFI (cfiCond14) Conditional ??CrossCallReturnLabel_87, ??CrossCallReturnLabel_86
        CFI (cfiCond14) R6 load(1, XDATA, add(CFA_XSP16, literal(-14)))
        CFI (cfiCond14) VB load(1, XDATA, add(CFA_XSP16, literal(-13)))
        CFI (cfiCond14) V0 load(1, XDATA, add(CFA_XSP16, literal(-12)))
        CFI (cfiCond14) V1 load(1, XDATA, add(CFA_XSP16, literal(-11)))
        CFI (cfiCond14) V2 load(1, XDATA, add(CFA_XSP16, literal(-10)))
        CFI (cfiCond14) V3 load(1, XDATA, add(CFA_XSP16, literal(-9)))
        CFI (cfiCond14) V4 load(1, XDATA, add(CFA_XSP16, literal(-8)))
        CFI (cfiCond14) V5 load(1, XDATA, add(CFA_XSP16, literal(-7)))
        CFI (cfiCond14) R7 load(1, XDATA, add(CFA_XSP16, literal(-6)))
        CFI (cfiCond14) ?RET_LOW load(1, XDATA, add(CFA_XSP16, literal(-5)))
        CFI (cfiCond14) ?RET_HIGH load(1, XDATA, add(CFA_XSP16, literal(-4)))
        CFI (cfiCond14) ?BRET_EXT load(1, XDATA, add(CFA_XSP16, literal(-3)))
        CFI (cfiCond14) DPL0 load(1, XDATA, add(CFA_XSP16, literal(-2)))
        CFI (cfiCond14) DPH0 load(1, XDATA, add(CFA_XSP16, literal(-1)))
        CFI (cfiCond14) CFA_SP SP+0
        CFI (cfiCond14) CFA_XSP16 add(XSP16, 14)
        CFI Block cfiCond15 Using cfiCommon0
        CFI (cfiCond15) NoFunction
        CFI (cfiCond15) Conditional ??CrossCallReturnLabel_88, ??CrossCallReturnLabel_5
        CFI (cfiCond15) R6 load(1, XDATA, add(CFA_XSP16, literal(-12)))
        CFI (cfiCond15) VB load(1, XDATA, add(CFA_XSP16, literal(-11)))
        CFI (cfiCond15) V0 load(1, XDATA, add(CFA_XSP16, literal(-10)))
        CFI (cfiCond15) V1 load(1, XDATA, add(CFA_XSP16, literal(-9)))
        CFI (cfiCond15) V2 load(1, XDATA, add(CFA_XSP16, literal(-8)))
        CFI (cfiCond15) V3 load(1, XDATA, add(CFA_XSP16, literal(-7)))
        CFI (cfiCond15) R7 load(1, XDATA, add(CFA_XSP16, literal(-6)))
        CFI (cfiCond15) ?RET_LOW load(1, XDATA, add(CFA_XSP16, literal(-5)))
        CFI (cfiCond15) ?RET_HIGH load(1, XDATA, add(CFA_XSP16, literal(-4)))
        CFI (cfiCond15) ?BRET_EXT load(1, XDATA, add(CFA_XSP16, literal(-3)))
        CFI (cfiCond15) DPL0 load(1, XDATA, add(CFA_XSP16, literal(-2)))
        CFI (cfiCond15) DPH0 load(1, XDATA, add(CFA_XSP16, literal(-1)))
        CFI (cfiCond15) CFA_SP SP+0
        CFI (cfiCond15) CFA_XSP16 add(XSP16, 12)
        CFI Block cfiCond16 Using cfiCommon0
        CFI (cfiCond16) NoFunction
        CFI (cfiCond16) Conditional ??CrossCallReturnLabel_88, ??CrossCallReturnLabel_6
        CFI (cfiCond16) R6 load(1, XDATA, add(CFA_XSP16, literal(-12)))
        CFI (cfiCond16) VB load(1, XDATA, add(CFA_XSP16, literal(-11)))
        CFI (cfiCond16) V0 load(1, XDATA, add(CFA_XSP16, literal(-10)))
        CFI (cfiCond16) V1 load(1, XDATA, add(CFA_XSP16, literal(-9)))
        CFI (cfiCond16) V2 load(1, XDATA, add(CFA_XSP16, literal(-8)))
        CFI (cfiCond16) V3 load(1, XDATA, add(CFA_XSP16, literal(-7)))
        CFI (cfiCond16) R7 load(1, XDATA, add(CFA_XSP16, literal(-6)))
        CFI (cfiCond16) ?RET_LOW load(1, XDATA, add(CFA_XSP16, literal(-5)))
        CFI (cfiCond16) ?RET_HIGH load(1, XDATA, add(CFA_XSP16, literal(-4)))
        CFI (cfiCond16) ?BRET_EXT load(1, XDATA, add(CFA_XSP16, literal(-3)))
        CFI (cfiCond16) DPL0 load(1, XDATA, add(CFA_XSP16, literal(-2)))
        CFI (cfiCond16) DPH0 load(1, XDATA, add(CFA_XSP16, literal(-1)))
        CFI (cfiCond16) CFA_SP SP+0
        CFI (cfiCond16) CFA_XSP16 add(XSP16, 12)
        CFI Block cfiPicker17 Using cfiCommon1
        CFI (cfiPicker17) NoFunction
        CFI (cfiPicker17) Picker
        LCALL   ?Subroutine50 & 0xFFFF
??CrossCallReturnLabel_89:
        INC     DPTR
        INC     DPTR
        INC     DPTR
        RET
        CFI EndBlock cfiCond12
        CFI EndBlock cfiCond13
        CFI EndBlock cfiCond14
        CFI EndBlock cfiCond15
        CFI EndBlock cfiCond16
        CFI EndBlock cfiPicker17
//  415 
//  416 /*********************************************************************
//  417  * @fn          zcl_registerAttrList
//  418  *
//  419  * @brief       Register an Attribute List with ZCL Foundation
//  420  *
//  421  * @param       endpoint - endpoint the attribute list belongs to
//  422  * @param       numAttr - number of attributes in list
//  423  * @param       newAttrList - array of Attribute records.
//  424  *                            NOTE: THE ATTRIBUTE IDs (FOR A CLUSTER) MUST BE IN
//  425  *                            ASCENDING ORDER. OTHERWISE, THE DISCOVERY RESPONSE
//  426  *                            COMMAND WILL NOT HAVE THE RIGHT ATTRIBUTE INFO
//  427  *
//  428  * @return      ZSuccess if OK
//  429  */

        RSEG BANKED_CODE:CODE:NOROOT(0)
//  430 ZStatus_t zcl_registerAttrList( uint8 endpoint, uint8 numAttr, CONST zclAttrRec_t newAttrList[] )
zcl_registerAttrList:
        CFI Block cfiBlock18 Using cfiCommon0
        CFI Function zcl_registerAttrList
        CODE
//  431 {
        FUNCALL zcl_registerAttrList, osal_mem_alloc
        LOCFRAME ISTACK, 0, STACK
        LOCFRAME PSTACK, 0, STACK
        LOCFRAME XSTACK, 12, STACK
        LOCFRAME IOVERLAY, 0, STATIC
        LOCFRAME DOVERLAY, 0, STATIC
        ARGFRAME ISTACK, 0, STACK
        ARGFRAME PSTACK, 0, STACK
        ARGFRAME XSTACK, 12, STACK
        ARGFRAME IOVERLAY, 0, STATIC
        ARGFRAME DOVERLAY, 0, STATIC
        MOV     A,#-0xc
        LCALL   ?BANKED_ENTER_XDATA
        CFI DPH0 load(1, XDATA, add(CFA_XSP16, literal(-1)))
        CFI DPL0 load(1, XDATA, add(CFA_XSP16, literal(-2)))
        CFI ?BRET_EXT load(1, XDATA, add(CFA_XSP16, literal(-3)))
        CFI ?RET_HIGH load(1, XDATA, add(CFA_XSP16, literal(-4)))
        CFI ?RET_LOW load(1, XDATA, add(CFA_XSP16, literal(-5)))
        CFI R7 load(1, XDATA, add(CFA_XSP16, literal(-6)))
        CFI V3 load(1, XDATA, add(CFA_XSP16, literal(-7)))
        CFI V2 load(1, XDATA, add(CFA_XSP16, literal(-8)))
        CFI V1 load(1, XDATA, add(CFA_XSP16, literal(-9)))
        CFI V0 load(1, XDATA, add(CFA_XSP16, literal(-10)))
        CFI VB load(1, XDATA, add(CFA_XSP16, literal(-11)))
        CFI R6 load(1, XDATA, add(CFA_XSP16, literal(-12)))
        CFI CFA_SP SP+0
        CFI CFA_XSP16 add(XSP16, 12)
        ; Saved register size: 12
        ; Auto size: 0
        MOV     ?V0 + 0,R1
        MOV     ?V0 + 1,R2
        MOV     A,R4
        MOV     R6,A
        MOV     A,R5
        MOV     R7,A
//  432   zclAttrRecsList *pNewItem;
//  433   zclAttrRecsList *pLoop;
//  434 
//  435   // Fill in the new profile list
//  436   pNewItem = osal_mem_alloc( sizeof( zclAttrRecsList ) );
        ; Setup parameters for call to function osal_mem_alloc
        MOV     R2,#0xa
        LCALL   ?Subroutine35 & 0xFFFF
//  437   if ( pNewItem == NULL )
??CrossCallReturnLabel_58:
        JNZ     ??zcl_registerAttrList_0
//  438   {
//  439     return (ZMemError);
        MOV     R1,#0x10
        SJMP    ??CrossCallReturnLabel_14
//  440   }
//  441 
//  442   pNewItem->next = (zclAttrRecsList *)NULL;
??zcl_registerAttrList_0:
        LCALL   ?Subroutine5 & 0xFFFF
//  443   pNewItem->endpoint = endpoint;
//  444   pNewItem->pfnReadWriteCB = NULL;
??CrossCallReturnLabel_0:
        CLR     A
        MOVX    @DPTR,A
        INC     DPTR
        LCALL   ?Subroutine7 & 0xFFFF
//  445   pNewItem->numAttributes = numAttr;
??CrossCallReturnLabel_5:
        MOV     A,?V0 + 1
        LCALL   ?Subroutine7 & 0xFFFF
//  446   pNewItem->attrs = newAttrList;
??CrossCallReturnLabel_6:
        INC     DPTR
        MOV     A,R6
        MOVX    @DPTR,A
        INC     DPTR
        MOV     A,R7
        MOVX    @DPTR,A
//  447 
//  448   // Find spot in list
//  449   if ( attrList == NULL )
        MOV     DPTR,#attrList
        LCALL   ?Subroutine21 & 0xFFFF
??CrossCallReturnLabel_32:
        JNZ     ??zcl_registerAttrList_1
//  450   {
//  451     attrList = pNewItem;
        MOV     DPTR,#attrList
        SJMP    ??zcl_registerAttrList_2
//  452   }
//  453   else
//  454   {
//  455     // Look for end of list
//  456     pLoop = attrList;
//  457     while ( pLoop->next != NULL )
//  458     {
//  459       pLoop = pLoop->next;
??zcl_registerAttrList_3:
        MOVX    A,@DPTR
        MOV     R2,A
        INC     DPTR
//  460     }
??zcl_registerAttrList_1:
        LCALL   ?Subroutine16 & 0xFFFF
??CrossCallReturnLabel_20:
        JNZ     ??zcl_registerAttrList_3
//  461 
//  462     // Put new item at end of list
//  463     pLoop->next = pNewItem;
//  464   }
??zcl_registerAttrList_2:
        LCALL   ?Subroutine12 & 0xFFFF
//  465 
//  466   return ( ZSuccess );
??CrossCallReturnLabel_14:
        SJMP    ?Subroutine1
        CFI EndBlock cfiBlock18
//  467 }

        RSEG BANKED_CODE:CODE:NOROOT(0)
?Subroutine16:
        CFI Block cfiCond19 Using cfiCommon0
        CFI NoFunction
        CFI Conditional ??CrossCallReturnLabel_19
        CFI R6 load(1, XDATA, add(CFA_XSP16, literal(-14)))
        CFI VB load(1, XDATA, add(CFA_XSP16, literal(-13)))
        CFI V0 load(1, XDATA, add(CFA_XSP16, literal(-12)))
        CFI V1 load(1, XDATA, add(CFA_XSP16, literal(-11)))
        CFI V2 load(1, XDATA, add(CFA_XSP16, literal(-10)))
        CFI V3 load(1, XDATA, add(CFA_XSP16, literal(-9)))
        CFI V4 load(1, XDATA, add(CFA_XSP16, literal(-8)))
        CFI V5 load(1, XDATA, add(CFA_XSP16, literal(-7)))
        CFI R7 load(1, XDATA, add(CFA_XSP16, literal(-6)))
        CFI ?RET_LOW load(1, XDATA, add(CFA_XSP16, literal(-5)))
        CFI ?RET_HIGH load(1, XDATA, add(CFA_XSP16, literal(-4)))
        CFI ?BRET_EXT load(1, XDATA, add(CFA_XSP16, literal(-3)))
        CFI DPL0 load(1, XDATA, add(CFA_XSP16, literal(-2)))
        CFI DPH0 load(1, XDATA, add(CFA_XSP16, literal(-1)))
        CFI CFA_SP SP+0
        CFI CFA_XSP16 add(XSP16, 14)
        CFI Block cfiCond20 Using cfiCommon0
        CFI (cfiCond20) NoFunction
        CFI (cfiCond20) Conditional ??CrossCallReturnLabel_20
        CFI (cfiCond20) R6 load(1, XDATA, add(CFA_XSP16, literal(-12)))
        CFI (cfiCond20) VB load(1, XDATA, add(CFA_XSP16, literal(-11)))
        CFI (cfiCond20) V0 load(1, XDATA, add(CFA_XSP16, literal(-10)))
        CFI (cfiCond20) V1 load(1, XDATA, add(CFA_XSP16, literal(-9)))
        CFI (cfiCond20) V2 load(1, XDATA, add(CFA_XSP16, literal(-8)))
        CFI (cfiCond20) V3 load(1, XDATA, add(CFA_XSP16, literal(-7)))
        CFI (cfiCond20) R7 load(1, XDATA, add(CFA_XSP16, literal(-6)))
        CFI (cfiCond20) ?RET_LOW load(1, XDATA, add(CFA_XSP16, literal(-5)))
        CFI (cfiCond20) ?RET_HIGH load(1, XDATA, add(CFA_XSP16, literal(-4)))
        CFI (cfiCond20) ?BRET_EXT load(1, XDATA, add(CFA_XSP16, literal(-3)))
        CFI (cfiCond20) DPL0 load(1, XDATA, add(CFA_XSP16, literal(-2)))
        CFI (cfiCond20) DPH0 load(1, XDATA, add(CFA_XSP16, literal(-1)))
        CFI (cfiCond20) CFA_SP SP+0
        CFI (cfiCond20) CFA_XSP16 add(XSP16, 12)
        CFI Block cfiCond21 Using cfiCommon0
        CFI (cfiCond21) NoFunction
        CFI (cfiCond21) Conditional ??CrossCallReturnLabel_21
        CFI (cfiCond21) R6 load(1, XDATA, add(CFA_XSP16, literal(-12)))
        CFI (cfiCond21) VB load(1, XDATA, add(CFA_XSP16, literal(-11)))
        CFI (cfiCond21) V0 load(1, XDATA, add(CFA_XSP16, literal(-10)))
        CFI (cfiCond21) V1 load(1, XDATA, add(CFA_XSP16, literal(-9)))
        CFI (cfiCond21) V2 load(1, XDATA, add(CFA_XSP16, literal(-8)))
        CFI (cfiCond21) V3 load(1, XDATA, add(CFA_XSP16, literal(-7)))
        CFI (cfiCond21) R7 load(1, XDATA, add(CFA_XSP16, literal(-6)))
        CFI (cfiCond21) ?RET_LOW load(1, XDATA, add(CFA_XSP16, literal(-5)))
        CFI (cfiCond21) ?RET_HIGH load(1, XDATA, add(CFA_XSP16, literal(-4)))
        CFI (cfiCond21) ?BRET_EXT load(1, XDATA, add(CFA_XSP16, literal(-3)))
        CFI (cfiCond21) DPL0 load(1, XDATA, add(CFA_XSP16, literal(-2)))
        CFI (cfiCond21) DPH0 load(1, XDATA, add(CFA_XSP16, literal(-1)))
        CFI (cfiCond21) CFA_SP SP+0
        CFI (cfiCond21) CFA_XSP16 add(XSP16, 12)
        CFI Block cfiPicker22 Using cfiCommon1
        CFI (cfiPicker22) NoFunction
        CFI (cfiPicker22) Picker
        MOVX    A,@DPTR
        MOV     R3,A
        MOV     DPL,R2
        MOV     DPH,R3
        LCALL   ??Subroutine64_0 & 0xFFFF
??CrossCallReturnLabel_140:
        MOV     A,R4
        ORL     A,R5
        MOV     DPL,R2
        MOV     DPH,R3
        RET
        CFI EndBlock cfiCond19
        CFI EndBlock cfiCond20
        CFI EndBlock cfiCond21
        CFI EndBlock cfiPicker22

        RSEG BANKED_CODE:CODE:NOROOT(0)
?Subroutine12:
        CFI Block cfiCond23 Using cfiCommon0
        CFI NoFunction
        CFI Conditional ??CrossCallReturnLabel_13
        CFI R6 load(1, XDATA, add(CFA_XSP16, literal(-14)))
        CFI VB load(1, XDATA, add(CFA_XSP16, literal(-13)))
        CFI V0 load(1, XDATA, add(CFA_XSP16, literal(-12)))
        CFI V1 load(1, XDATA, add(CFA_XSP16, literal(-11)))
        CFI V2 load(1, XDATA, add(CFA_XSP16, literal(-10)))
        CFI V3 load(1, XDATA, add(CFA_XSP16, literal(-9)))
        CFI V4 load(1, XDATA, add(CFA_XSP16, literal(-8)))
        CFI V5 load(1, XDATA, add(CFA_XSP16, literal(-7)))
        CFI R7 load(1, XDATA, add(CFA_XSP16, literal(-6)))
        CFI ?RET_LOW load(1, XDATA, add(CFA_XSP16, literal(-5)))
        CFI ?RET_HIGH load(1, XDATA, add(CFA_XSP16, literal(-4)))
        CFI ?BRET_EXT load(1, XDATA, add(CFA_XSP16, literal(-3)))
        CFI DPL0 load(1, XDATA, add(CFA_XSP16, literal(-2)))
        CFI DPH0 load(1, XDATA, add(CFA_XSP16, literal(-1)))
        CFI CFA_SP SP+0
        CFI CFA_XSP16 add(XSP16, 14)
        CFI Block cfiCond24 Using cfiCommon0
        CFI (cfiCond24) NoFunction
        CFI (cfiCond24) Conditional ??CrossCallReturnLabel_14
        CFI (cfiCond24) R6 load(1, XDATA, add(CFA_XSP16, literal(-12)))
        CFI (cfiCond24) VB load(1, XDATA, add(CFA_XSP16, literal(-11)))
        CFI (cfiCond24) V0 load(1, XDATA, add(CFA_XSP16, literal(-10)))
        CFI (cfiCond24) V1 load(1, XDATA, add(CFA_XSP16, literal(-9)))
        CFI (cfiCond24) V2 load(1, XDATA, add(CFA_XSP16, literal(-8)))
        CFI (cfiCond24) V3 load(1, XDATA, add(CFA_XSP16, literal(-7)))
        CFI (cfiCond24) R7 load(1, XDATA, add(CFA_XSP16, literal(-6)))
        CFI (cfiCond24) ?RET_LOW load(1, XDATA, add(CFA_XSP16, literal(-5)))
        CFI (cfiCond24) ?RET_HIGH load(1, XDATA, add(CFA_XSP16, literal(-4)))
        CFI (cfiCond24) ?BRET_EXT load(1, XDATA, add(CFA_XSP16, literal(-3)))
        CFI (cfiCond24) DPL0 load(1, XDATA, add(CFA_XSP16, literal(-2)))
        CFI (cfiCond24) DPH0 load(1, XDATA, add(CFA_XSP16, literal(-1)))
        CFI (cfiCond24) CFA_SP SP+0
        CFI (cfiCond24) CFA_XSP16 add(XSP16, 12)
        CFI Block cfiCond25 Using cfiCommon0
        CFI (cfiCond25) NoFunction
        CFI (cfiCond25) Conditional ??CrossCallReturnLabel_15
        CFI (cfiCond25) R6 load(1, XDATA, add(CFA_XSP16, literal(-12)))
        CFI (cfiCond25) VB load(1, XDATA, add(CFA_XSP16, literal(-11)))
        CFI (cfiCond25) V0 load(1, XDATA, add(CFA_XSP16, literal(-10)))
        CFI (cfiCond25) V1 load(1, XDATA, add(CFA_XSP16, literal(-9)))
        CFI (cfiCond25) V2 load(1, XDATA, add(CFA_XSP16, literal(-8)))
        CFI (cfiCond25) V3 load(1, XDATA, add(CFA_XSP16, literal(-7)))
        CFI (cfiCond25) R7 load(1, XDATA, add(CFA_XSP16, literal(-6)))
        CFI (cfiCond25) ?RET_LOW load(1, XDATA, add(CFA_XSP16, literal(-5)))
        CFI (cfiCond25) ?RET_HIGH load(1, XDATA, add(CFA_XSP16, literal(-4)))
        CFI (cfiCond25) ?BRET_EXT load(1, XDATA, add(CFA_XSP16, literal(-3)))
        CFI (cfiCond25) DPL0 load(1, XDATA, add(CFA_XSP16, literal(-2)))
        CFI (cfiCond25) DPH0 load(1, XDATA, add(CFA_XSP16, literal(-1)))
        CFI (cfiCond25) CFA_SP SP+0
        CFI (cfiCond25) CFA_XSP16 add(XSP16, 12)
        CFI Block cfiPicker26 Using cfiCommon1
        CFI (cfiPicker26) NoFunction
        CFI (cfiPicker26) Picker
        MOV     A,R0
        MOVX    @DPTR,A
        INC     DPTR
        MOV     A,R1
        MOVX    @DPTR,A
        MOV     R1,#0x0
        RET
        CFI EndBlock cfiCond23
        CFI EndBlock cfiCond24
        CFI EndBlock cfiCond25
        CFI EndBlock cfiPicker26

        RSEG BANKED_CODE:CODE:NOROOT(0)
?Subroutine7:
        CFI Block cfiCond27 Using cfiCommon0
        CFI NoFunction
        CFI Conditional ??CrossCallReturnLabel_5
        CFI R6 load(1, XDATA, add(CFA_XSP16, literal(-12)))
        CFI VB load(1, XDATA, add(CFA_XSP16, literal(-11)))
        CFI V0 load(1, XDATA, add(CFA_XSP16, literal(-10)))
        CFI V1 load(1, XDATA, add(CFA_XSP16, literal(-9)))
        CFI V2 load(1, XDATA, add(CFA_XSP16, literal(-8)))
        CFI V3 load(1, XDATA, add(CFA_XSP16, literal(-7)))
        CFI R7 load(1, XDATA, add(CFA_XSP16, literal(-6)))
        CFI ?RET_LOW load(1, XDATA, add(CFA_XSP16, literal(-5)))
        CFI ?RET_HIGH load(1, XDATA, add(CFA_XSP16, literal(-4)))
        CFI ?BRET_EXT load(1, XDATA, add(CFA_XSP16, literal(-3)))
        CFI DPL0 load(1, XDATA, add(CFA_XSP16, literal(-2)))
        CFI DPH0 load(1, XDATA, add(CFA_XSP16, literal(-1)))
        CFI CFA_SP SP+0
        CFI CFA_XSP16 add(XSP16, 12)
        CFI Block cfiCond28 Using cfiCommon0
        CFI (cfiCond28) NoFunction
        CFI (cfiCond28) Conditional ??CrossCallReturnLabel_6
        CFI (cfiCond28) R6 load(1, XDATA, add(CFA_XSP16, literal(-12)))
        CFI (cfiCond28) VB load(1, XDATA, add(CFA_XSP16, literal(-11)))
        CFI (cfiCond28) V0 load(1, XDATA, add(CFA_XSP16, literal(-10)))
        CFI (cfiCond28) V1 load(1, XDATA, add(CFA_XSP16, literal(-9)))
        CFI (cfiCond28) V2 load(1, XDATA, add(CFA_XSP16, literal(-8)))
        CFI (cfiCond28) V3 load(1, XDATA, add(CFA_XSP16, literal(-7)))
        CFI (cfiCond28) R7 load(1, XDATA, add(CFA_XSP16, literal(-6)))
        CFI (cfiCond28) ?RET_LOW load(1, XDATA, add(CFA_XSP16, literal(-5)))
        CFI (cfiCond28) ?RET_HIGH load(1, XDATA, add(CFA_XSP16, literal(-4)))
        CFI (cfiCond28) ?BRET_EXT load(1, XDATA, add(CFA_XSP16, literal(-3)))
        CFI (cfiCond28) DPL0 load(1, XDATA, add(CFA_XSP16, literal(-2)))
        CFI (cfiCond28) DPH0 load(1, XDATA, add(CFA_XSP16, literal(-1)))
        CFI (cfiCond28) CFA_SP SP+0
        CFI (cfiCond28) CFA_XSP16 add(XSP16, 12)
        CFI Block cfiPicker29 Using cfiCommon1
        CFI (cfiPicker29) NoFunction
        CFI (cfiPicker29) Picker
        LCALL   ?Subroutine42 & 0xFFFF
??CrossCallReturnLabel_88:
        INC     DPTR
        INC     DPTR
        INC     DPTR
        RET
        CFI EndBlock cfiCond27
        CFI EndBlock cfiCond28
        CFI EndBlock cfiPicker29
//  468 
//  469 /*********************************************************************
//  470  * @fn          zcl_registerClusterOptionList
//  471  *
//  472  * @brief       Register a Cluster Option List with ZCL Foundation
//  473  *
//  474  * @param       endpoint - endpoint the option list belongs to
//  475  * @param       numOption - number of options in list
//  476  * @param       optionList - array of cluster option records.
//  477  *
//  478  *              NOTE: This API should be called to enable 'Application
//  479  *                    Link Key' security and/or 'APS ACK' for a specific
//  480  *                    Cluster. The 'Application Link Key' is discarded
//  481  *                    if security isn't enabled on the device.
//  482  *                    The default behavior is 'Network Key' when security
//  483  *                    is enabled and no 'APS ACK' for the ZCL messages.
//  484  *
//  485  * @return      ZSuccess if OK
//  486  */

        RSEG BANKED_CODE:CODE:NOROOT(0)
//  487 ZStatus_t zcl_registerClusterOptionList( uint8 endpoint, uint8 numOption, zclOptionRec_t optionList[] )
zcl_registerClusterOptionList:
        CFI Block cfiBlock30 Using cfiCommon0
        CFI Function zcl_registerClusterOptionList
        CODE
//  488 {
        FUNCALL zcl_registerClusterOptionList, osal_mem_alloc
        LOCFRAME ISTACK, 0, STACK
        LOCFRAME PSTACK, 0, STACK
        LOCFRAME XSTACK, 12, STACK
        LOCFRAME IOVERLAY, 0, STATIC
        LOCFRAME DOVERLAY, 0, STATIC
        ARGFRAME ISTACK, 0, STACK
        ARGFRAME PSTACK, 0, STACK
        ARGFRAME XSTACK, 12, STACK
        ARGFRAME IOVERLAY, 0, STATIC
        ARGFRAME DOVERLAY, 0, STATIC
        MOV     A,#-0xc
        LCALL   ?BANKED_ENTER_XDATA
        CFI DPH0 load(1, XDATA, add(CFA_XSP16, literal(-1)))
        CFI DPL0 load(1, XDATA, add(CFA_XSP16, literal(-2)))
        CFI ?BRET_EXT load(1, XDATA, add(CFA_XSP16, literal(-3)))
        CFI ?RET_HIGH load(1, XDATA, add(CFA_XSP16, literal(-4)))
        CFI ?RET_LOW load(1, XDATA, add(CFA_XSP16, literal(-5)))
        CFI R7 load(1, XDATA, add(CFA_XSP16, literal(-6)))
        CFI V3 load(1, XDATA, add(CFA_XSP16, literal(-7)))
        CFI V2 load(1, XDATA, add(CFA_XSP16, literal(-8)))
        CFI V1 load(1, XDATA, add(CFA_XSP16, literal(-9)))
        CFI V0 load(1, XDATA, add(CFA_XSP16, literal(-10)))
        CFI VB load(1, XDATA, add(CFA_XSP16, literal(-11)))
        CFI R6 load(1, XDATA, add(CFA_XSP16, literal(-12)))
        CFI CFA_SP SP+0
        CFI CFA_XSP16 add(XSP16, 12)
        ; Saved register size: 12
        ; Auto size: 0
        MOV     ?V0 + 0,R1
        MOV     ?V0 + 1,R2
        MOV     A,R4
        MOV     R6,A
        MOV     A,R5
        MOV     R7,A
//  489   zclClusterOptionList *pNewItem;
//  490   zclClusterOptionList *pLoop;
//  491 
//  492   // Fill in the new profile list
//  493   pNewItem = osal_mem_alloc( sizeof( zclClusterOptionList ) );
        ; Setup parameters for call to function osal_mem_alloc
        MOV     R2,#0x6
        LCALL   ?Subroutine35 & 0xFFFF
//  494   if ( pNewItem == NULL )
??CrossCallReturnLabel_59:
        JNZ     ??zcl_registerClusterOptionList_0
//  495   {
//  496     return (ZMemError);
        MOV     R1,#0x10
        SJMP    ??CrossCallReturnLabel_15
//  497   }
//  498 
//  499   pNewItem->next = (zclClusterOptionList *)NULL;
??zcl_registerClusterOptionList_0:
        LCALL   ?Subroutine5 & 0xFFFF
//  500   pNewItem->endpoint = endpoint;
//  501   pNewItem->numOptions = numOption;
??CrossCallReturnLabel_1:
        LCALL   ?Subroutine8 & 0xFFFF
//  502   pNewItem->options = optionList;
??CrossCallReturnLabel_85:
        MOV     A,R6
        MOVX    @DPTR,A
        INC     DPTR
        MOV     A,R7
        MOVX    @DPTR,A
//  503 
//  504   // Find spot in list
//  505   if ( clusterOptionList == NULL )
        MOV     DPTR,#clusterOptionList
        LCALL   ?Subroutine21 & 0xFFFF
??CrossCallReturnLabel_33:
        JNZ     ??zcl_registerClusterOptionList_1
//  506   {
//  507     clusterOptionList = pNewItem;
        MOV     DPTR,#clusterOptionList
        SJMP    ??zcl_registerClusterOptionList_2
//  508   }
//  509   else
//  510   {
//  511     // Look for end of list
//  512     pLoop = clusterOptionList;
//  513     while ( pLoop->next != NULL )
//  514     {
//  515       pLoop = pLoop->next;
??zcl_registerClusterOptionList_3:
        MOVX    A,@DPTR
        MOV     R2,A
        INC     DPTR
//  516     }
??zcl_registerClusterOptionList_1:
        LCALL   ?Subroutine16 & 0xFFFF
??CrossCallReturnLabel_21:
        JNZ     ??zcl_registerClusterOptionList_3
//  517 
//  518     // Put new item at end of list
//  519     pLoop->next = pNewItem;
//  520   }
??zcl_registerClusterOptionList_2:
        LCALL   ?Subroutine12 & 0xFFFF
        CFI EndBlock cfiBlock30
//  521 
//  522   return ( ZSuccess );
??CrossCallReturnLabel_15:
        REQUIRE ?Subroutine1
        ; // Fall through to label ?Subroutine1
//  523 }

        RSEG BANKED_CODE:CODE:NOROOT(0)
?Subroutine1:
        CFI Block cfiBlock31 Using cfiCommon0
        CFI NoFunction
        CFI CFA_SP SP+0
        CFI CFA_XSP16 add(XSP16, 12)
        CFI VB load(1, XDATA, add(CFA_XSP16, literal(-11)))
        CFI DPL0 load(1, XDATA, add(CFA_XSP16, literal(-2)))
        CFI DPH0 load(1, XDATA, add(CFA_XSP16, literal(-1)))
        CFI R6 load(1, XDATA, add(CFA_XSP16, literal(-12)))
        CFI R7 load(1, XDATA, add(CFA_XSP16, literal(-6)))
        CFI V0 load(1, XDATA, add(CFA_XSP16, literal(-10)))
        CFI V1 load(1, XDATA, add(CFA_XSP16, literal(-9)))
        CFI V2 load(1, XDATA, add(CFA_XSP16, literal(-8)))
        CFI V3 load(1, XDATA, add(CFA_XSP16, literal(-7)))
        CFI ?BRET_EXT load(1, XDATA, add(CFA_XSP16, literal(-3)))
        CFI ?RET_HIGH load(1, XDATA, add(CFA_XSP16, literal(-4)))
        CFI ?RET_LOW load(1, XDATA, add(CFA_XSP16, literal(-5)))
        MOV     R7,#0x4
        LJMP    ?BANKED_LEAVE_XDATA
        CFI EndBlock cfiBlock31

        RSEG BANKED_CODE:CODE:NOROOT(0)
?Subroutine35:
        CFI Block cfiCond32 Using cfiCommon0
        CFI NoFunction
        CFI Conditional ??CrossCallReturnLabel_58
        CFI R6 load(1, XDATA, add(CFA_XSP16, literal(-12)))
        CFI VB load(1, XDATA, add(CFA_XSP16, literal(-11)))
        CFI V0 load(1, XDATA, add(CFA_XSP16, literal(-10)))
        CFI V1 load(1, XDATA, add(CFA_XSP16, literal(-9)))
        CFI V2 load(1, XDATA, add(CFA_XSP16, literal(-8)))
        CFI V3 load(1, XDATA, add(CFA_XSP16, literal(-7)))
        CFI R7 load(1, XDATA, add(CFA_XSP16, literal(-6)))
        CFI ?RET_LOW load(1, XDATA, add(CFA_XSP16, literal(-5)))
        CFI ?RET_HIGH load(1, XDATA, add(CFA_XSP16, literal(-4)))
        CFI ?BRET_EXT load(1, XDATA, add(CFA_XSP16, literal(-3)))
        CFI DPL0 load(1, XDATA, add(CFA_XSP16, literal(-2)))
        CFI DPH0 load(1, XDATA, add(CFA_XSP16, literal(-1)))
        CFI CFA_SP SP+0
        CFI CFA_XSP16 add(XSP16, 12)
        CFI Block cfiCond33 Using cfiCommon0
        CFI (cfiCond33) NoFunction
        CFI (cfiCond33) Conditional ??CrossCallReturnLabel_59
        CFI (cfiCond33) R6 load(1, XDATA, add(CFA_XSP16, literal(-12)))
        CFI (cfiCond33) VB load(1, XDATA, add(CFA_XSP16, literal(-11)))
        CFI (cfiCond33) V0 load(1, XDATA, add(CFA_XSP16, literal(-10)))
        CFI (cfiCond33) V1 load(1, XDATA, add(CFA_XSP16, literal(-9)))
        CFI (cfiCond33) V2 load(1, XDATA, add(CFA_XSP16, literal(-8)))
        CFI (cfiCond33) V3 load(1, XDATA, add(CFA_XSP16, literal(-7)))
        CFI (cfiCond33) R7 load(1, XDATA, add(CFA_XSP16, literal(-6)))
        CFI (cfiCond33) ?RET_LOW load(1, XDATA, add(CFA_XSP16, literal(-5)))
        CFI (cfiCond33) ?RET_HIGH load(1, XDATA, add(CFA_XSP16, literal(-4)))
        CFI (cfiCond33) ?BRET_EXT load(1, XDATA, add(CFA_XSP16, literal(-3)))
        CFI (cfiCond33) DPL0 load(1, XDATA, add(CFA_XSP16, literal(-2)))
        CFI (cfiCond33) DPH0 load(1, XDATA, add(CFA_XSP16, literal(-1)))
        CFI (cfiCond33) CFA_SP SP+0
        CFI (cfiCond33) CFA_XSP16 add(XSP16, 12)
        CFI Block cfiPicker34 Using cfiCommon1
        CFI (cfiPicker34) NoFunction
        CFI (cfiPicker34) Picker
        MOV     R3,#0x0
        LCALL   ??osal_mem_alloc?relay
        MOV     ?V0 + 2,R2
        MOV     ?V0 + 3,R3
        MOV     R0,?V0 + 2
        MOV     R1,?V0 + 3
        MOV     A,R0
        ORL     A,R1
        RET
        CFI EndBlock cfiCond32
        CFI EndBlock cfiCond33
        CFI EndBlock cfiPicker34

        RSEG BANKED_CODE:CODE:NOROOT(0)
?Subroutine21:
        CFI Block cfiCond35 Using cfiCommon0
        CFI NoFunction
        CFI Conditional ??CrossCallReturnLabel_31
        CFI R6 load(1, XDATA, add(CFA_XSP16, literal(-14)))
        CFI VB load(1, XDATA, add(CFA_XSP16, literal(-13)))
        CFI V0 load(1, XDATA, add(CFA_XSP16, literal(-12)))
        CFI V1 load(1, XDATA, add(CFA_XSP16, literal(-11)))
        CFI V2 load(1, XDATA, add(CFA_XSP16, literal(-10)))
        CFI V3 load(1, XDATA, add(CFA_XSP16, literal(-9)))
        CFI V4 load(1, XDATA, add(CFA_XSP16, literal(-8)))
        CFI V5 load(1, XDATA, add(CFA_XSP16, literal(-7)))
        CFI R7 load(1, XDATA, add(CFA_XSP16, literal(-6)))
        CFI ?RET_LOW load(1, XDATA, add(CFA_XSP16, literal(-5)))
        CFI ?RET_HIGH load(1, XDATA, add(CFA_XSP16, literal(-4)))
        CFI ?BRET_EXT load(1, XDATA, add(CFA_XSP16, literal(-3)))
        CFI DPL0 load(1, XDATA, add(CFA_XSP16, literal(-2)))
        CFI DPH0 load(1, XDATA, add(CFA_XSP16, literal(-1)))
        CFI CFA_SP SP+0
        CFI CFA_XSP16 add(XSP16, 14)
        CFI Block cfiCond36 Using cfiCommon0
        CFI (cfiCond36) NoFunction
        CFI (cfiCond36) Conditional ??CrossCallReturnLabel_32
        CFI (cfiCond36) R6 load(1, XDATA, add(CFA_XSP16, literal(-12)))
        CFI (cfiCond36) VB load(1, XDATA, add(CFA_XSP16, literal(-11)))
        CFI (cfiCond36) V0 load(1, XDATA, add(CFA_XSP16, literal(-10)))
        CFI (cfiCond36) V1 load(1, XDATA, add(CFA_XSP16, literal(-9)))
        CFI (cfiCond36) V2 load(1, XDATA, add(CFA_XSP16, literal(-8)))
        CFI (cfiCond36) V3 load(1, XDATA, add(CFA_XSP16, literal(-7)))
        CFI (cfiCond36) R7 load(1, XDATA, add(CFA_XSP16, literal(-6)))
        CFI (cfiCond36) ?RET_LOW load(1, XDATA, add(CFA_XSP16, literal(-5)))
        CFI (cfiCond36) ?RET_HIGH load(1, XDATA, add(CFA_XSP16, literal(-4)))
        CFI (cfiCond36) ?BRET_EXT load(1, XDATA, add(CFA_XSP16, literal(-3)))
        CFI (cfiCond36) DPL0 load(1, XDATA, add(CFA_XSP16, literal(-2)))
        CFI (cfiCond36) DPH0 load(1, XDATA, add(CFA_XSP16, literal(-1)))
        CFI (cfiCond36) CFA_SP SP+0
        CFI (cfiCond36) CFA_XSP16 add(XSP16, 12)
        CFI Block cfiCond37 Using cfiCommon0
        CFI (cfiCond37) NoFunction
        CFI (cfiCond37) Conditional ??CrossCallReturnLabel_33
        CFI (cfiCond37) R6 load(1, XDATA, add(CFA_XSP16, literal(-12)))
        CFI (cfiCond37) VB load(1, XDATA, add(CFA_XSP16, literal(-11)))
        CFI (cfiCond37) V0 load(1, XDATA, add(CFA_XSP16, literal(-10)))
        CFI (cfiCond37) V1 load(1, XDATA, add(CFA_XSP16, literal(-9)))
        CFI (cfiCond37) V2 load(1, XDATA, add(CFA_XSP16, literal(-8)))
        CFI (cfiCond37) V3 load(1, XDATA, add(CFA_XSP16, literal(-7)))
        CFI (cfiCond37) R7 load(1, XDATA, add(CFA_XSP16, literal(-6)))
        CFI (cfiCond37) ?RET_LOW load(1, XDATA, add(CFA_XSP16, literal(-5)))
        CFI (cfiCond37) ?RET_HIGH load(1, XDATA, add(CFA_XSP16, literal(-4)))
        CFI (cfiCond37) ?BRET_EXT load(1, XDATA, add(CFA_XSP16, literal(-3)))
        CFI (cfiCond37) DPL0 load(1, XDATA, add(CFA_XSP16, literal(-2)))
        CFI (cfiCond37) DPH0 load(1, XDATA, add(CFA_XSP16, literal(-1)))
        CFI (cfiCond37) CFA_SP SP+0
        CFI (cfiCond37) CFA_XSP16 add(XSP16, 12)
        CFI Block cfiCond38 Using cfiCommon0
        CFI (cfiCond38) NoFunction
        CFI (cfiCond38) Conditional ??CrossCallReturnLabel_34
        CFI (cfiCond38) R6 load(1, XDATA, add(CFA_XSP16, literal(-12)))
        CFI (cfiCond38) VB load(1, XDATA, add(CFA_XSP16, literal(-11)))
        CFI (cfiCond38) V0 load(1, XDATA, add(CFA_XSP16, literal(-10)))
        CFI (cfiCond38) V1 load(1, XDATA, add(CFA_XSP16, literal(-9)))
        CFI (cfiCond38) V2 load(1, XDATA, add(CFA_XSP16, literal(-8)))
        CFI (cfiCond38) V3 load(1, XDATA, add(CFA_XSP16, literal(-7)))
        CFI (cfiCond38) R7 load(1, XDATA, add(CFA_XSP16, literal(-6)))
        CFI (cfiCond38) ?RET_LOW load(1, XDATA, add(CFA_XSP16, literal(-5)))
        CFI (cfiCond38) ?RET_HIGH load(1, XDATA, add(CFA_XSP16, literal(-4)))
        CFI (cfiCond38) ?BRET_EXT load(1, XDATA, add(CFA_XSP16, literal(-3)))
        CFI (cfiCond38) DPL0 load(1, XDATA, add(CFA_XSP16, literal(-2)))
        CFI (cfiCond38) DPH0 load(1, XDATA, add(CFA_XSP16, literal(-1)))
        CFI (cfiCond38) CFA_SP SP+0
        CFI (cfiCond38) CFA_XSP16 add(XSP16, 33)
        CFI Block cfiCond39 Using cfiCommon0
        CFI (cfiCond39) NoFunction
        CFI (cfiCond39) Conditional ??CrossCallReturnLabel_30
        CFI (cfiCond39) DPL0 Frame(CFA_SP, 4)
        CFI (cfiCond39) DPH0 Frame(CFA_SP, 5)
        CFI (cfiCond39) CFA_SP SP+-5
        CFI Block cfiPicker40 Using cfiCommon1
        CFI (cfiPicker40) NoFunction
        CFI (cfiPicker40) Picker
        MOVX    A,@DPTR
        MOV     R2,A
        INC     DPTR
        MOVX    A,@DPTR
        MOV     R3,A
        MOV     A,R2
        ORL     A,R3
        RET
        CFI EndBlock cfiCond35
        CFI EndBlock cfiCond36
        CFI EndBlock cfiCond37
        CFI EndBlock cfiCond38
        CFI EndBlock cfiCond39
        CFI EndBlock cfiPicker40

        RSEG BANKED_CODE:CODE:NOROOT(0)
?Subroutine5:
        CFI Block cfiCond41 Using cfiCommon0
        CFI NoFunction
        CFI Conditional ??CrossCallReturnLabel_0
        CFI R6 load(1, XDATA, add(CFA_XSP16, literal(-12)))
        CFI VB load(1, XDATA, add(CFA_XSP16, literal(-11)))
        CFI V0 load(1, XDATA, add(CFA_XSP16, literal(-10)))
        CFI V1 load(1, XDATA, add(CFA_XSP16, literal(-9)))
        CFI V2 load(1, XDATA, add(CFA_XSP16, literal(-8)))
        CFI V3 load(1, XDATA, add(CFA_XSP16, literal(-7)))
        CFI R7 load(1, XDATA, add(CFA_XSP16, literal(-6)))
        CFI ?RET_LOW load(1, XDATA, add(CFA_XSP16, literal(-5)))
        CFI ?RET_HIGH load(1, XDATA, add(CFA_XSP16, literal(-4)))
        CFI ?BRET_EXT load(1, XDATA, add(CFA_XSP16, literal(-3)))
        CFI DPL0 load(1, XDATA, add(CFA_XSP16, literal(-2)))
        CFI DPH0 load(1, XDATA, add(CFA_XSP16, literal(-1)))
        CFI CFA_SP SP+0
        CFI CFA_XSP16 add(XSP16, 12)
        CFI Block cfiCond42 Using cfiCommon0
        CFI (cfiCond42) NoFunction
        CFI (cfiCond42) Conditional ??CrossCallReturnLabel_1
        CFI (cfiCond42) R6 load(1, XDATA, add(CFA_XSP16, literal(-12)))
        CFI (cfiCond42) VB load(1, XDATA, add(CFA_XSP16, literal(-11)))
        CFI (cfiCond42) V0 load(1, XDATA, add(CFA_XSP16, literal(-10)))
        CFI (cfiCond42) V1 load(1, XDATA, add(CFA_XSP16, literal(-9)))
        CFI (cfiCond42) V2 load(1, XDATA, add(CFA_XSP16, literal(-8)))
        CFI (cfiCond42) V3 load(1, XDATA, add(CFA_XSP16, literal(-7)))
        CFI (cfiCond42) R7 load(1, XDATA, add(CFA_XSP16, literal(-6)))
        CFI (cfiCond42) ?RET_LOW load(1, XDATA, add(CFA_XSP16, literal(-5)))
        CFI (cfiCond42) ?RET_HIGH load(1, XDATA, add(CFA_XSP16, literal(-4)))
        CFI (cfiCond42) ?BRET_EXT load(1, XDATA, add(CFA_XSP16, literal(-3)))
        CFI (cfiCond42) DPL0 load(1, XDATA, add(CFA_XSP16, literal(-2)))
        CFI (cfiCond42) DPH0 load(1, XDATA, add(CFA_XSP16, literal(-1)))
        CFI (cfiCond42) CFA_SP SP+0
        CFI (cfiCond42) CFA_XSP16 add(XSP16, 12)
        CFI Block cfiPicker43 Using cfiCommon1
        CFI (cfiPicker43) NoFunction
        CFI (cfiPicker43) Picker
        LCALL   ?Subroutine41 & 0xFFFF
??CrossCallReturnLabel_71:
        MOV     DPL,R0
        MOV     DPH,R1
        INC     DPTR
        INC     DPTR
        INC     DPTR
        RET
        CFI EndBlock cfiCond41
        CFI EndBlock cfiCond42
        CFI EndBlock cfiPicker43

        RSEG BANKED_CODE:CODE:NOROOT(0)
?Subroutine41:
        CFI Block cfiCond44 Using cfiCommon0
        CFI NoFunction
        CFI Conditional ??CrossCallReturnLabel_70
        CFI R6 load(1, XDATA, add(CFA_XSP16, literal(-14)))
        CFI VB load(1, XDATA, add(CFA_XSP16, literal(-13)))
        CFI V0 load(1, XDATA, add(CFA_XSP16, literal(-12)))
        CFI V1 load(1, XDATA, add(CFA_XSP16, literal(-11)))
        CFI V2 load(1, XDATA, add(CFA_XSP16, literal(-10)))
        CFI V3 load(1, XDATA, add(CFA_XSP16, literal(-9)))
        CFI V4 load(1, XDATA, add(CFA_XSP16, literal(-8)))
        CFI V5 load(1, XDATA, add(CFA_XSP16, literal(-7)))
        CFI R7 load(1, XDATA, add(CFA_XSP16, literal(-6)))
        CFI ?RET_LOW load(1, XDATA, add(CFA_XSP16, literal(-5)))
        CFI ?RET_HIGH load(1, XDATA, add(CFA_XSP16, literal(-4)))
        CFI ?BRET_EXT load(1, XDATA, add(CFA_XSP16, literal(-3)))
        CFI DPL0 load(1, XDATA, add(CFA_XSP16, literal(-2)))
        CFI DPH0 load(1, XDATA, add(CFA_XSP16, literal(-1)))
        CFI CFA_SP SP+0
        CFI CFA_XSP16 add(XSP16, 14)
        CFI Block cfiCond45 Using cfiCommon0
        CFI (cfiCond45) NoFunction
        CFI (cfiCond45) Conditional ??CrossCallReturnLabel_71, ??CrossCallReturnLabel_0
        CFI (cfiCond45) R6 load(1, XDATA, add(CFA_XSP16, literal(-12)))
        CFI (cfiCond45) VB load(1, XDATA, add(CFA_XSP16, literal(-11)))
        CFI (cfiCond45) V0 load(1, XDATA, add(CFA_XSP16, literal(-10)))
        CFI (cfiCond45) V1 load(1, XDATA, add(CFA_XSP16, literal(-9)))
        CFI (cfiCond45) V2 load(1, XDATA, add(CFA_XSP16, literal(-8)))
        CFI (cfiCond45) V3 load(1, XDATA, add(CFA_XSP16, literal(-7)))
        CFI (cfiCond45) R7 load(1, XDATA, add(CFA_XSP16, literal(-6)))
        CFI (cfiCond45) ?RET_LOW load(1, XDATA, add(CFA_XSP16, literal(-5)))
        CFI (cfiCond45) ?RET_HIGH load(1, XDATA, add(CFA_XSP16, literal(-4)))
        CFI (cfiCond45) ?BRET_EXT load(1, XDATA, add(CFA_XSP16, literal(-3)))
        CFI (cfiCond45) DPL0 load(1, XDATA, add(CFA_XSP16, literal(-2)))
        CFI (cfiCond45) DPH0 load(1, XDATA, add(CFA_XSP16, literal(-1)))
        CFI (cfiCond45) CFA_SP SP+0
        CFI (cfiCond45) CFA_XSP16 add(XSP16, 12)
        CFI Block cfiCond46 Using cfiCommon0
        CFI (cfiCond46) NoFunction
        CFI (cfiCond46) Conditional ??CrossCallReturnLabel_71, ??CrossCallReturnLabel_1
        CFI (cfiCond46) R6 load(1, XDATA, add(CFA_XSP16, literal(-12)))
        CFI (cfiCond46) VB load(1, XDATA, add(CFA_XSP16, literal(-11)))
        CFI (cfiCond46) V0 load(1, XDATA, add(CFA_XSP16, literal(-10)))
        CFI (cfiCond46) V1 load(1, XDATA, add(CFA_XSP16, literal(-9)))
        CFI (cfiCond46) V2 load(1, XDATA, add(CFA_XSP16, literal(-8)))
        CFI (cfiCond46) V3 load(1, XDATA, add(CFA_XSP16, literal(-7)))
        CFI (cfiCond46) R7 load(1, XDATA, add(CFA_XSP16, literal(-6)))
        CFI (cfiCond46) ?RET_LOW load(1, XDATA, add(CFA_XSP16, literal(-5)))
        CFI (cfiCond46) ?RET_HIGH load(1, XDATA, add(CFA_XSP16, literal(-4)))
        CFI (cfiCond46) ?BRET_EXT load(1, XDATA, add(CFA_XSP16, literal(-3)))
        CFI (cfiCond46) DPL0 load(1, XDATA, add(CFA_XSP16, literal(-2)))
        CFI (cfiCond46) DPH0 load(1, XDATA, add(CFA_XSP16, literal(-1)))
        CFI (cfiCond46) CFA_SP SP+0
        CFI (cfiCond46) CFA_XSP16 add(XSP16, 12)
        CFI Block cfiPicker47 Using cfiCommon1
        CFI (cfiPicker47) NoFunction
        CFI (cfiPicker47) Picker
        MOV     DPL,R0
        MOV     DPH,R1
        CLR     A
        MOVX    @DPTR,A
        INC     DPTR
        LCALL   ?Subroutine50 & 0xFFFF
??CrossCallReturnLabel_90:
        INC     DPTR
        MOV     A,?V0 + 0
        MOVX    @DPTR,A
        RET
        CFI EndBlock cfiCond44
        CFI EndBlock cfiCond45
        CFI EndBlock cfiCond46
        CFI EndBlock cfiPicker47

        RSEG BANKED_CODE:CODE:NOROOT(0)
?Subroutine50:
        CFI Block cfiCond48 Using cfiCommon0
        CFI NoFunction
        CFI Conditional ??CrossCallReturnLabel_89, ??CrossCallReturnLabel_87, ??CrossCallReturnLabel_84
        CFI R6 load(1, XDATA, add(CFA_XSP16, literal(-14)))
        CFI VB load(1, XDATA, add(CFA_XSP16, literal(-13)))
        CFI V0 load(1, XDATA, add(CFA_XSP16, literal(-12)))
        CFI V1 load(1, XDATA, add(CFA_XSP16, literal(-11)))
        CFI V2 load(1, XDATA, add(CFA_XSP16, literal(-10)))
        CFI V3 load(1, XDATA, add(CFA_XSP16, literal(-9)))
        CFI V4 load(1, XDATA, add(CFA_XSP16, literal(-8)))
        CFI V5 load(1, XDATA, add(CFA_XSP16, literal(-7)))
        CFI R7 load(1, XDATA, add(CFA_XSP16, literal(-6)))
        CFI ?RET_LOW load(1, XDATA, add(CFA_XSP16, literal(-5)))
        CFI ?RET_HIGH load(1, XDATA, add(CFA_XSP16, literal(-4)))
        CFI ?BRET_EXT load(1, XDATA, add(CFA_XSP16, literal(-3)))
        CFI DPL0 load(1, XDATA, add(CFA_XSP16, literal(-2)))
        CFI DPH0 load(1, XDATA, add(CFA_XSP16, literal(-1)))
        CFI CFA_SP SP+0
        CFI CFA_XSP16 add(XSP16, 14)
        CFI Block cfiCond49 Using cfiCommon0
        CFI (cfiCond49) NoFunction
        CFI (cfiCond49) Conditional ??CrossCallReturnLabel_89, ??CrossCallReturnLabel_87, ??CrossCallReturnLabel_85
        CFI (cfiCond49) R6 load(1, XDATA, add(CFA_XSP16, literal(-12)))
        CFI (cfiCond49) VB load(1, XDATA, add(CFA_XSP16, literal(-11)))
        CFI (cfiCond49) V0 load(1, XDATA, add(CFA_XSP16, literal(-10)))
        CFI (cfiCond49) V1 load(1, XDATA, add(CFA_XSP16, literal(-9)))
        CFI (cfiCond49) V2 load(1, XDATA, add(CFA_XSP16, literal(-8)))
        CFI (cfiCond49) V3 load(1, XDATA, add(CFA_XSP16, literal(-7)))
        CFI (cfiCond49) R7 load(1, XDATA, add(CFA_XSP16, literal(-6)))
        CFI (cfiCond49) ?RET_LOW load(1, XDATA, add(CFA_XSP16, literal(-5)))
        CFI (cfiCond49) ?RET_HIGH load(1, XDATA, add(CFA_XSP16, literal(-4)))
        CFI (cfiCond49) ?BRET_EXT load(1, XDATA, add(CFA_XSP16, literal(-3)))
        CFI (cfiCond49) DPL0 load(1, XDATA, add(CFA_XSP16, literal(-2)))
        CFI (cfiCond49) DPH0 load(1, XDATA, add(CFA_XSP16, literal(-1)))
        CFI (cfiCond49) CFA_SP SP+0
        CFI (cfiCond49) CFA_XSP16 add(XSP16, 12)
        CFI Block cfiCond50 Using cfiCommon0
        CFI (cfiCond50) NoFunction
        CFI (cfiCond50) Conditional ??CrossCallReturnLabel_89, ??CrossCallReturnLabel_87, ??CrossCallReturnLabel_86
        CFI (cfiCond50) R6 load(1, XDATA, add(CFA_XSP16, literal(-14)))
        CFI (cfiCond50) VB load(1, XDATA, add(CFA_XSP16, literal(-13)))
        CFI (cfiCond50) V0 load(1, XDATA, add(CFA_XSP16, literal(-12)))
        CFI (cfiCond50) V1 load(1, XDATA, add(CFA_XSP16, literal(-11)))
        CFI (cfiCond50) V2 load(1, XDATA, add(CFA_XSP16, literal(-10)))
        CFI (cfiCond50) V3 load(1, XDATA, add(CFA_XSP16, literal(-9)))
        CFI (cfiCond50) V4 load(1, XDATA, add(CFA_XSP16, literal(-8)))
        CFI (cfiCond50) V5 load(1, XDATA, add(CFA_XSP16, literal(-7)))
        CFI (cfiCond50) R7 load(1, XDATA, add(CFA_XSP16, literal(-6)))
        CFI (cfiCond50) ?RET_LOW load(1, XDATA, add(CFA_XSP16, literal(-5)))
        CFI (cfiCond50) ?RET_HIGH load(1, XDATA, add(CFA_XSP16, literal(-4)))
        CFI (cfiCond50) ?BRET_EXT load(1, XDATA, add(CFA_XSP16, literal(-3)))
        CFI (cfiCond50) DPL0 load(1, XDATA, add(CFA_XSP16, literal(-2)))
        CFI (cfiCond50) DPH0 load(1, XDATA, add(CFA_XSP16, literal(-1)))
        CFI (cfiCond50) CFA_SP SP+0
        CFI (cfiCond50) CFA_XSP16 add(XSP16, 14)
        CFI Block cfiCond51 Using cfiCommon0
        CFI (cfiCond51) NoFunction
        CFI (cfiCond51) Conditional ??CrossCallReturnLabel_89, ??CrossCallReturnLabel_88, ??CrossCallReturnLabel_5
        CFI (cfiCond51) R6 load(1, XDATA, add(CFA_XSP16, literal(-12)))
        CFI (cfiCond51) VB load(1, XDATA, add(CFA_XSP16, literal(-11)))
        CFI (cfiCond51) V0 load(1, XDATA, add(CFA_XSP16, literal(-10)))
        CFI (cfiCond51) V1 load(1, XDATA, add(CFA_XSP16, literal(-9)))
        CFI (cfiCond51) V2 load(1, XDATA, add(CFA_XSP16, literal(-8)))
        CFI (cfiCond51) V3 load(1, XDATA, add(CFA_XSP16, literal(-7)))
        CFI (cfiCond51) R7 load(1, XDATA, add(CFA_XSP16, literal(-6)))
        CFI (cfiCond51) ?RET_LOW load(1, XDATA, add(CFA_XSP16, literal(-5)))
        CFI (cfiCond51) ?RET_HIGH load(1, XDATA, add(CFA_XSP16, literal(-4)))
        CFI (cfiCond51) ?BRET_EXT load(1, XDATA, add(CFA_XSP16, literal(-3)))
        CFI (cfiCond51) DPL0 load(1, XDATA, add(CFA_XSP16, literal(-2)))
        CFI (cfiCond51) DPH0 load(1, XDATA, add(CFA_XSP16, literal(-1)))
        CFI (cfiCond51) CFA_SP SP+0
        CFI (cfiCond51) CFA_XSP16 add(XSP16, 12)
        CFI Block cfiCond52 Using cfiCommon0
        CFI (cfiCond52) NoFunction
        CFI (cfiCond52) Conditional ??CrossCallReturnLabel_89, ??CrossCallReturnLabel_88, ??CrossCallReturnLabel_6
        CFI (cfiCond52) R6 load(1, XDATA, add(CFA_XSP16, literal(-12)))
        CFI (cfiCond52) VB load(1, XDATA, add(CFA_XSP16, literal(-11)))
        CFI (cfiCond52) V0 load(1, XDATA, add(CFA_XSP16, literal(-10)))
        CFI (cfiCond52) V1 load(1, XDATA, add(CFA_XSP16, literal(-9)))
        CFI (cfiCond52) V2 load(1, XDATA, add(CFA_XSP16, literal(-8)))
        CFI (cfiCond52) V3 load(1, XDATA, add(CFA_XSP16, literal(-7)))
        CFI (cfiCond52) R7 load(1, XDATA, add(CFA_XSP16, literal(-6)))
        CFI (cfiCond52) ?RET_LOW load(1, XDATA, add(CFA_XSP16, literal(-5)))
        CFI (cfiCond52) ?RET_HIGH load(1, XDATA, add(CFA_XSP16, literal(-4)))
        CFI (cfiCond52) ?BRET_EXT load(1, XDATA, add(CFA_XSP16, literal(-3)))
        CFI (cfiCond52) DPL0 load(1, XDATA, add(CFA_XSP16, literal(-2)))
        CFI (cfiCond52) DPH0 load(1, XDATA, add(CFA_XSP16, literal(-1)))
        CFI (cfiCond52) CFA_SP SP+0
        CFI (cfiCond52) CFA_XSP16 add(XSP16, 12)
        CFI Block cfiCond53 Using cfiCommon0
        CFI (cfiCond53) NoFunction
        CFI (cfiCond53) Conditional ??CrossCallReturnLabel_90, ??CrossCallReturnLabel_70
        CFI (cfiCond53) R6 load(1, XDATA, add(CFA_XSP16, literal(-14)))
        CFI (cfiCond53) VB load(1, XDATA, add(CFA_XSP16, literal(-13)))
        CFI (cfiCond53) V0 load(1, XDATA, add(CFA_XSP16, literal(-12)))
        CFI (cfiCond53) V1 load(1, XDATA, add(CFA_XSP16, literal(-11)))
        CFI (cfiCond53) V2 load(1, XDATA, add(CFA_XSP16, literal(-10)))
        CFI (cfiCond53) V3 load(1, XDATA, add(CFA_XSP16, literal(-9)))
        CFI (cfiCond53) V4 load(1, XDATA, add(CFA_XSP16, literal(-8)))
        CFI (cfiCond53) V5 load(1, XDATA, add(CFA_XSP16, literal(-7)))
        CFI (cfiCond53) R7 load(1, XDATA, add(CFA_XSP16, literal(-6)))
        CFI (cfiCond53) ?RET_LOW load(1, XDATA, add(CFA_XSP16, literal(-5)))
        CFI (cfiCond53) ?RET_HIGH load(1, XDATA, add(CFA_XSP16, literal(-4)))
        CFI (cfiCond53) ?BRET_EXT load(1, XDATA, add(CFA_XSP16, literal(-3)))
        CFI (cfiCond53) DPL0 load(1, XDATA, add(CFA_XSP16, literal(-2)))
        CFI (cfiCond53) DPH0 load(1, XDATA, add(CFA_XSP16, literal(-1)))
        CFI (cfiCond53) CFA_SP SP+0
        CFI (cfiCond53) CFA_XSP16 add(XSP16, 14)
        CFI Block cfiCond54 Using cfiCommon0
        CFI (cfiCond54) NoFunction
        CFI (cfiCond54) Conditional ??CrossCallReturnLabel_90, ??CrossCallReturnLabel_71, ??CrossCallReturnLabel_0
        CFI (cfiCond54) R6 load(1, XDATA, add(CFA_XSP16, literal(-12)))
        CFI (cfiCond54) VB load(1, XDATA, add(CFA_XSP16, literal(-11)))
        CFI (cfiCond54) V0 load(1, XDATA, add(CFA_XSP16, literal(-10)))
        CFI (cfiCond54) V1 load(1, XDATA, add(CFA_XSP16, literal(-9)))
        CFI (cfiCond54) V2 load(1, XDATA, add(CFA_XSP16, literal(-8)))
        CFI (cfiCond54) V3 load(1, XDATA, add(CFA_XSP16, literal(-7)))
        CFI (cfiCond54) R7 load(1, XDATA, add(CFA_XSP16, literal(-6)))
        CFI (cfiCond54) ?RET_LOW load(1, XDATA, add(CFA_XSP16, literal(-5)))
        CFI (cfiCond54) ?RET_HIGH load(1, XDATA, add(CFA_XSP16, literal(-4)))
        CFI (cfiCond54) ?BRET_EXT load(1, XDATA, add(CFA_XSP16, literal(-3)))
        CFI (cfiCond54) DPL0 load(1, XDATA, add(CFA_XSP16, literal(-2)))
        CFI (cfiCond54) DPH0 load(1, XDATA, add(CFA_XSP16, literal(-1)))
        CFI (cfiCond54) CFA_SP SP+0
        CFI (cfiCond54) CFA_XSP16 add(XSP16, 12)
        CFI Block cfiCond55 Using cfiCommon0
        CFI (cfiCond55) NoFunction
        CFI (cfiCond55) Conditional ??CrossCallReturnLabel_90, ??CrossCallReturnLabel_71, ??CrossCallReturnLabel_1
        CFI (cfiCond55) R6 load(1, XDATA, add(CFA_XSP16, literal(-12)))
        CFI (cfiCond55) VB load(1, XDATA, add(CFA_XSP16, literal(-11)))
        CFI (cfiCond55) V0 load(1, XDATA, add(CFA_XSP16, literal(-10)))
        CFI (cfiCond55) V1 load(1, XDATA, add(CFA_XSP16, literal(-9)))
        CFI (cfiCond55) V2 load(1, XDATA, add(CFA_XSP16, literal(-8)))
        CFI (cfiCond55) V3 load(1, XDATA, add(CFA_XSP16, literal(-7)))
        CFI (cfiCond55) R7 load(1, XDATA, add(CFA_XSP16, literal(-6)))
        CFI (cfiCond55) ?RET_LOW load(1, XDATA, add(CFA_XSP16, literal(-5)))
        CFI (cfiCond55) ?RET_HIGH load(1, XDATA, add(CFA_XSP16, literal(-4)))
        CFI (cfiCond55) ?BRET_EXT load(1, XDATA, add(CFA_XSP16, literal(-3)))
        CFI (cfiCond55) DPL0 load(1, XDATA, add(CFA_XSP16, literal(-2)))
        CFI (cfiCond55) DPH0 load(1, XDATA, add(CFA_XSP16, literal(-1)))
        CFI (cfiCond55) CFA_SP SP+0
        CFI (cfiCond55) CFA_XSP16 add(XSP16, 12)
        CFI Block cfiCond56 Using cfiCommon0
        CFI (cfiCond56) NoFunction
        CFI (cfiCond56) Conditional ??CrossCallReturnLabel_91
        CFI (cfiCond56) R6 load(1, XDATA, add(CFA_XSP16, literal(-14)))
        CFI (cfiCond56) VB load(1, XDATA, add(CFA_XSP16, literal(-13)))
        CFI (cfiCond56) V0 load(1, XDATA, add(CFA_XSP16, literal(-12)))
        CFI (cfiCond56) V1 load(1, XDATA, add(CFA_XSP16, literal(-11)))
        CFI (cfiCond56) V2 load(1, XDATA, add(CFA_XSP16, literal(-10)))
        CFI (cfiCond56) V3 load(1, XDATA, add(CFA_XSP16, literal(-9)))
        CFI (cfiCond56) V4 load(1, XDATA, add(CFA_XSP16, literal(-8)))
        CFI (cfiCond56) V5 load(1, XDATA, add(CFA_XSP16, literal(-7)))
        CFI (cfiCond56) R7 load(1, XDATA, add(CFA_XSP16, literal(-6)))
        CFI (cfiCond56) ?RET_LOW load(1, XDATA, add(CFA_XSP16, literal(-5)))
        CFI (cfiCond56) ?RET_HIGH load(1, XDATA, add(CFA_XSP16, literal(-4)))
        CFI (cfiCond56) ?BRET_EXT load(1, XDATA, add(CFA_XSP16, literal(-3)))
        CFI (cfiCond56) DPL0 load(1, XDATA, add(CFA_XSP16, literal(-2)))
        CFI (cfiCond56) DPH0 load(1, XDATA, add(CFA_XSP16, literal(-1)))
        CFI (cfiCond56) CFA_SP SP+0
        CFI (cfiCond56) CFA_XSP16 add(XSP16, 16)
        CFI Block cfiPicker57 Using cfiCommon1
        CFI (cfiPicker57) NoFunction
        CFI (cfiPicker57) Picker
        MOVX    @DPTR,A
        MOV     DPL,R0
        MOV     DPH,R1
        INC     DPTR
        RET
        CFI EndBlock cfiCond48
        CFI EndBlock cfiCond49
        CFI EndBlock cfiCond50
        CFI EndBlock cfiCond51
        CFI EndBlock cfiCond52
        CFI EndBlock cfiCond53
        CFI EndBlock cfiCond54
        CFI EndBlock cfiCond55
        CFI EndBlock cfiCond56
        CFI EndBlock cfiPicker57
//  524 
//  525 /*********************************************************************
//  526  * @fn          zcl_registerValidateAttrData
//  527  *
//  528  * @brief       Add a validation function for attribute data
//  529  *
//  530  * @param       pfnValidateAttrData - function pointer to validate routine
//  531  *
//  532  * @return      ZSuccess if OK
//  533  */

        RSEG BANKED_CODE:CODE:NOROOT(0)
//  534 ZStatus_t zcl_registerValidateAttrData( zclValidateAttrData_t pfnValidateAttrData )
zcl_registerValidateAttrData:
        CFI Block cfiBlock58 Using cfiCommon0
        CFI Function zcl_registerValidateAttrData
        CODE
//  535 {
        PUSH    DPL
        CFI DPL0 Frame(CFA_SP, 4)
        CFI CFA_SP SP+-4
        PUSH    DPH
        CFI DPH0 Frame(CFA_SP, 5)
        CFI CFA_SP SP+-5
        ; Saved register size: 2
        ; Auto size: 0
//  536   zcl_ValidateAttrDataCB = pfnValidateAttrData;
        MOV     DPTR,#zcl_ValidateAttrDataCB
        MOV     A,R2
        MOVX    @DPTR,A
        INC     DPTR
        MOV     A,R3
        MOVX    @DPTR,A
//  537 
//  538   return ( ZSuccess );
        MOV     R1,#0x0
        SJMP    ?Subroutine0
        CFI EndBlock cfiBlock58
//  539 }
//  540 
//  541 /*********************************************************************
//  542  * @fn          zcl_registerReadWriteCB
//  543  *
//  544  * @brief       Register the application's callback function to read/write
//  545  *              attribute data, and authorize read/write operation.
//  546  *
//  547  *              Note: The pfnReadWriteCB callback function is only required
//  548  *                    when the attribute data format is unknown to ZCL. The
//  549  *                    callback function gets called when the pointer 'dataPtr'
//  550  *                    to the attribute value is NULL in the attribute database
//  551  *                    registered with the ZCL.
//  552  *
//  553  *              Note: The pfnAuthorizeCB callback function is only required
//  554  *                    when the Read/Write operation on an attribute requires
//  555  *                    authorization (i.e., attributes with ACCESS_CONTROL_AUTH_READ
//  556  *                    or ACCESS_CONTROL_AUTH_WRITE access permissions).
//  557  *
//  558  * @param       endpoint - application's endpoint
//  559  * @param       pfnReadWriteCB - function pointer to read/write routine
//  560  * @param       pfnAuthorizeCB - function pointer to authorize read/write operation
//  561  *
//  562  * @return      ZSuccess if successful. ZFailure, otherwise.
//  563  */

        RSEG BANKED_CODE:CODE:NOROOT(0)
//  564 ZStatus_t zcl_registerReadWriteCB( uint8 endpoint, zclReadWriteCB_t pfnReadWriteCB,
zcl_registerReadWriteCB:
        CFI Block cfiBlock59 Using cfiCommon0
        CFI Function zcl_registerReadWriteCB
        CODE
//  565                                    zclAuthorizeCB_t pfnAuthorizeCB )
//  566 {
        FUNCALL zcl_registerReadWriteCB, zclFindAttrRecsList
        LOCFRAME ISTACK, 0, STACK
        LOCFRAME PSTACK, 0, STACK
        LOCFRAME XSTACK, 14, STACK
        LOCFRAME IOVERLAY, 0, STATIC
        LOCFRAME DOVERLAY, 0, STATIC
        ARGFRAME ISTACK, 0, STACK
        ARGFRAME PSTACK, 0, STACK
        ARGFRAME XSTACK, 14, STACK
        ARGFRAME IOVERLAY, 0, STATIC
        ARGFRAME DOVERLAY, 0, STATIC
        MOV     A,#-0xe
        LCALL   ?BANKED_ENTER_XDATA
        CFI DPH0 load(1, XDATA, add(CFA_XSP16, literal(-1)))
        CFI DPL0 load(1, XDATA, add(CFA_XSP16, literal(-2)))
        CFI ?BRET_EXT load(1, XDATA, add(CFA_XSP16, literal(-3)))
        CFI ?RET_HIGH load(1, XDATA, add(CFA_XSP16, literal(-4)))
        CFI ?RET_LOW load(1, XDATA, add(CFA_XSP16, literal(-5)))
        CFI R7 load(1, XDATA, add(CFA_XSP16, literal(-6)))
        CFI V5 load(1, XDATA, add(CFA_XSP16, literal(-7)))
        CFI V4 load(1, XDATA, add(CFA_XSP16, literal(-8)))
        CFI V3 load(1, XDATA, add(CFA_XSP16, literal(-9)))
        CFI V2 load(1, XDATA, add(CFA_XSP16, literal(-10)))
        CFI V1 load(1, XDATA, add(CFA_XSP16, literal(-11)))
        CFI V0 load(1, XDATA, add(CFA_XSP16, literal(-12)))
        CFI VB load(1, XDATA, add(CFA_XSP16, literal(-13)))
        CFI R6 load(1, XDATA, add(CFA_XSP16, literal(-14)))
        CFI CFA_SP SP+0
        CFI CFA_XSP16 add(XSP16, 14)
        ; Saved register size: 14
        ; Auto size: 0
        MOV     A,R2
        MOV     R6,A
        MOV     A,R3
        MOV     R7,A
        MOV     ?V0 + 0,R4
        MOV     ?V0 + 1,R5
//  567   zclAttrRecsList *pRec = zclFindAttrRecsList( endpoint );
        ; Setup parameters for call to function zclFindAttrRecsList
        LCALL   ??zclFindAttrRecsList?relay
        MOV     ?V0 + 4,R2
        MOV     ?V0 + 5,R3
        MOV     R0,?V0 + 4
        MOV     R1,?V0 + 5
//  568 
//  569   if ( pRec != NULL )
        MOV     A,R0
        ORL     A,R1
        JZ      ??zcl_registerReadWriteCB_0
//  570   {
//  571     pRec->pfnReadWriteCB = pfnReadWriteCB;
        MOV     DPL,R0
        MOV     DPH,R1
        INC     DPTR
        INC     DPTR
        INC     DPTR
        MOV     A,R6
        MOVX    @DPTR,A
        INC     DPTR
        MOV     A,R7
        LCALL   ??Subroutine53_0 & 0xFFFF
//  572     pRec->pfnAuthorizeCB = pfnAuthorizeCB;
??CrossCallReturnLabel_86:
        INC     DPTR
        MOV     A,?V0 + 0
        MOVX    @DPTR,A
        INC     DPTR
        MOV     A,?V0 + 1
        MOVX    @DPTR,A
//  573 
//  574     return ( ZSuccess );
        MOV     R1,#0x0
        SJMP    ??zcl_registerReadWriteCB_1
//  575   }
//  576 
//  577   return ( ZFailure );
??zcl_registerReadWriteCB_0:
        MOV     R1,#0x1
??zcl_registerReadWriteCB_1:
        LJMP    ?Subroutine2 & 0xFFFF
        CFI EndBlock cfiBlock59
//  578 }
//  579 
//  580 /*********************************************************************
//  581  * @fn      zcl_registerForMsg
//  582  *
//  583  * @brief   The ZCL is setup to send all incoming Foundation Command/Response
//  584  *          messages that aren't processed to one task (if a task is
//  585  *          registered).
//  586  *
//  587  * @param   taskId - task Id of the Application where commands will be sent to
//  588  *
//  589  * @return  TRUE if task registeration successful, FALSE otherwise
//  590  *********************************************************************/

        RSEG BANKED_CODE:CODE:NOROOT(0)
//  591 uint8 zcl_registerForMsg( uint8 taskId )
zcl_registerForMsg:
        CFI Block cfiBlock60 Using cfiCommon0
        CFI Function zcl_registerForMsg
        CODE
//  592 {
        PUSH    DPL
        CFI DPL0 Frame(CFA_SP, 4)
        CFI CFA_SP SP+-4
        PUSH    DPH
        CFI DPH0 Frame(CFA_SP, 5)
        CFI CFA_SP SP+-5
        ; Saved register size: 2
        ; Auto size: 0
        MOV     A,R1
        MOV     R0,A
//  593   // Allow only the first task
//  594   if ( zcl_RegisteredMsgTaskID == TASK_NO_TASK )
        MOV     DPTR,#zcl_RegisteredMsgTaskID
        MOVX    A,@DPTR
        CPL     A
        JNZ     ??zcl_registerForMsg_0
//  595   {
//  596     zcl_RegisteredMsgTaskID = taskId;
        MOV     A,R0
        MOVX    @DPTR,A
//  597 
//  598     return ( true );
        MOV     R1,#0x1
        SJMP    ??zcl_registerForMsg_1
//  599   }
//  600 
//  601   return ( false );
??zcl_registerForMsg_0:
        MOV     R1,#0x0
        CFI EndBlock cfiBlock60
??zcl_registerForMsg_1:
        REQUIRE ?Subroutine0
        ; // Fall through to label ?Subroutine0
//  602 }

        RSEG BANKED_CODE:CODE:NOROOT(0)
?Subroutine0:
        CFI Block cfiBlock61 Using cfiCommon0
        CFI NoFunction
        CFI CFA_SP SP+-5
        CFI DPL0 Frame(CFA_SP, 4)
        CFI DPH0 Frame(CFA_SP, 5)
        POP     DPH
        CFI CFA_SP SP+-4
        CFI DPH0 SameValue
        POP     DPL
        CFI CFA_SP SP+-3
        CFI DPL0 SameValue
        LJMP    ?BRET
        CFI EndBlock cfiBlock61
//  603 
//  604 /*********************************************************************
//  605  * @fn      zcl_DeviceOperational
//  606  *
//  607  * @brief   Used to see whether or not the device can send or respond
//  608  *          to application level commands.
//  609  *
//  610  * @param   srcEP - source endpoint
//  611  * @param   clusterID - cluster ID
//  612  * @param   frameType - command type
//  613  * @param   cmd - command ID
//  614  *
//  615  * @return  TRUE if device is operational, FALSE otherwise
//  616  */

        RSEG BANKED_CODE:CODE:NOROOT(0)
//  617 static uint8 zcl_DeviceOperational( uint8 srcEP, uint16 clusterID,
zcl_DeviceOperational:
        CFI Block cfiBlock62 Using cfiCommon0
        CFI Function zcl_DeviceOperational
        CODE
//  618                                     uint8 frameType, uint8 cmd, uint16 profileID )
//  619 {
        FUNCALL zcl_DeviceOperational, zclFindAttrRec
        LOCFRAME ISTACK, 0, STACK
        LOCFRAME PSTACK, 0, STACK
        LOCFRAME XSTACK, 22, STACK
        LOCFRAME IOVERLAY, 0, STATIC
        LOCFRAME DOVERLAY, 0, STATIC
        ARGFRAME ISTACK, 0, STACK
        ARGFRAME PSTACK, 0, STACK
        ARGFRAME XSTACK, 22, STACK
        ARGFRAME IOVERLAY, 0, STATIC
        ARGFRAME DOVERLAY, 0, STATIC
        FUNCALL zcl_DeviceOperational, zclReadAttrData
        LOCFRAME ISTACK, 0, STACK
        LOCFRAME PSTACK, 0, STACK
        LOCFRAME XSTACK, 22, STACK
        LOCFRAME IOVERLAY, 0, STATIC
        LOCFRAME DOVERLAY, 0, STATIC
        ARGFRAME ISTACK, 0, STACK
        ARGFRAME PSTACK, 0, STACK
        ARGFRAME XSTACK, 22, STACK
        ARGFRAME IOVERLAY, 0, STATIC
        ARGFRAME DOVERLAY, 0, STATIC
        MOV     A,#-0xb
        LCALL   ?BANKED_ENTER_XDATA
        CFI DPH0 load(1, XDATA, add(CFA_XSP16, literal(-1)))
        CFI DPL0 load(1, XDATA, add(CFA_XSP16, literal(-2)))
        CFI ?BRET_EXT load(1, XDATA, add(CFA_XSP16, literal(-3)))
        CFI ?RET_HIGH load(1, XDATA, add(CFA_XSP16, literal(-4)))
        CFI ?RET_LOW load(1, XDATA, add(CFA_XSP16, literal(-5)))
        CFI R7 load(1, XDATA, add(CFA_XSP16, literal(-6)))
        CFI V2 load(1, XDATA, add(CFA_XSP16, literal(-7)))
        CFI V1 load(1, XDATA, add(CFA_XSP16, literal(-8)))
        CFI V0 load(1, XDATA, add(CFA_XSP16, literal(-9)))
        CFI VB load(1, XDATA, add(CFA_XSP16, literal(-10)))
        CFI R6 load(1, XDATA, add(CFA_XSP16, literal(-11)))
        CFI CFA_SP SP+0
        CFI CFA_XSP16 add(XSP16, 11)
        ; Saved register size: 11
        ; Auto size: 9
        MOV     A,#-0x9
        LCALL   ?ALLOC_XSTACK8
        CFI CFA_XSP16 add(XSP16, 20)
        MOV     A,R4
        MOV     R7,A
//  620   zclAttrRec_t attrRec;
//  621   uint8 deviceEnabled = DEVICE_ENABLED; // default value
        MOV     DPL,?XSP + 0
        MOV     DPH,?XSP + 1
        MOV     A,#0x1
        MOVX    @DPTR,A
//  622 
//  623   (void)profileID;  // Intentionally unreferenced parameter
//  624 
//  625   // If the device is Disabled (DeviceEnabled attribute is set to Disabled), it
//  626   // cannot send or respond to application level commands, other than commands
//  627   // to read or write attributes. Note that the Identify cluster cannot be
//  628   // disabled, and remains functional regardless of this setting.
//  629   if ( zcl_ProfileCmd( frameType ) && cmd <= ZCL_CMD_WRITE_NO_RSP )
        MOV     A,R7
        JNZ     ??zcl_DeviceOperational_0
        MOV     A,R5
        CLR     C
        SUBB    A,#0x6
        JNC     ??zcl_DeviceOperational_0
//  630   {
//  631     return ( TRUE );
??zcl_DeviceOperational_1:
        MOV     R1,#0x1
        SJMP    ??zcl_DeviceOperational_2
//  632   }
//  633 
//  634   if ( clusterID == ZCL_CLUSTER_ID_GEN_IDENTIFY )
??zcl_DeviceOperational_0:
        MOV     A,#0x3
        XRL     A,R2
        JNZ     ??zcl_DeviceOperational_3
        MOV     A,R3
??zcl_DeviceOperational_3:
        JZ      ??zcl_DeviceOperational_1
//  635   {
//  636     return ( TRUE );
//  637   }
//  638 
//  639   // Is device enabled?
//  640   if ( zclFindAttrRec( srcEP, ZCL_CLUSTER_ID_GEN_BASIC,
//  641                        ATTRID_BASIC_DEVICE_ENABLED, &attrRec ) )
        ; Setup parameters for call to function zclFindAttrRec
        MOV     A,#0x1
        LCALL   ?XSTACK_DISP0_8
        MOV     ?V0 + 0,DPL
        MOV     ?V0 + 1,DPH
        MOV     R0,#?V0 + 0
        LCALL   ?PUSH_XSTACK_I_TWO
        CFI CFA_XSP16 add(XSP16, 22)
        MOV     R4,#0x12
        MOV     R5,#0x0
        MOV     R2,#0x0
        MOV     R3,#0x0
        LCALL   ??zclFindAttrRec?relay
        MOV     A,#0x2
        LCALL   ?DEALLOC_XSTACK8
        CFI CFA_XSP16 add(XSP16, 20)
        MOV     A,R1
        JZ      ??zcl_DeviceOperational_4
//  642   {
//  643     zclReadAttrData( &deviceEnabled, &attrRec, NULL );
        ; Setup parameters for call to function zclReadAttrData
        CLR     A
        MOV     ?V0 + 0,A
        MOV     ?V0 + 1,A
        MOV     R0,#?V0 + 0
        LCALL   ?PUSH_XSTACK_I_TWO
        CFI CFA_XSP16 add(XSP16, 22)
        MOV     A,#0x3
        LCALL   ?XSTACK_DISP0_8
        MOV     R4,DPL
        MOV     R5,DPH
        MOV     A,#0x2
        LCALL   ?XSTACK_DISP0_8
        MOV     R2,DPL
        MOV     R3,DPH
        LCALL   ??zclReadAttrData?relay
        MOV     A,#0x2
        LCALL   ?DEALLOC_XSTACK8
        CFI CFA_XSP16 add(XSP16, 20)
//  644   }
//  645 
//  646   return ( deviceEnabled == DEVICE_ENABLED ? TRUE : FALSE );
??zcl_DeviceOperational_4:
        MOV     DPL,?XSP + 0
        MOV     DPH,?XSP + 1
        MOVX    A,@DPTR
        XRL     A,#0x1
        JZ      ??zcl_DeviceOperational_1
        MOV     R1,#0x0
??zcl_DeviceOperational_2:
        MOV     A,#0x9
        LCALL   ?DEALLOC_XSTACK8
        CFI CFA_XSP16 add(XSP16, 11)
        MOV     R7,#0x3
        LJMP    ?BANKED_LEAVE_XDATA
        CFI EndBlock cfiBlock62
//  647 }
//  648 
//  649 /*********************************************************************
//  650  * @fn      zcl_SendCommand
//  651  *
//  652  * @brief   Used to send Profile and Cluster Specific Command messages.
//  653  *
//  654  *          NOTE: The calling application is responsible for incrementing
//  655  *                the Sequence Number.
//  656  *
//  657  * @param   srcEp - source endpoint
//  658  * @param   destAddr - destination address
//  659  * @param   clusterID - cluster ID
//  660  * @param   cmd - command ID
//  661  * @param   specific - whether the command is Cluster Specific
//  662  * @param   direction - client/server direction of the command
//  663  * @param   disableDefaultRsp - disable Default Response command
//  664  * @param   manuCode - manufacturer code for proprietary extensions to a profile
//  665  * @param   seqNumber - identification number for the transaction
//  666  * @param   cmdFormatLen - length of the command to be sent
//  667  * @param   cmdFormat - command to be sent
//  668  *
//  669  * @return  ZSuccess if OK
//  670  */

        RSEG BANKED_CODE:CODE:NOROOT(0)
//  671 ZStatus_t zcl_SendCommand( uint8 srcEP, afAddrType_t *destAddr,
zcl_SendCommand:
        CFI Block cfiBlock63 Using cfiCommon0
        CFI Function zcl_SendCommand
        CODE
//  672                            uint16 clusterID, uint8 cmd, uint8 specific, uint8 direction,
//  673                            uint8 disableDefaultRsp, uint16 manuCode, uint8 seqNum,
//  674                            uint16 cmdFormatLen, uint8 *cmdFormat )
//  675 {
        FUNCALL zcl_SendCommand, afFindEndPointDesc
        LOCFRAME ISTACK, 0, STACK
        LOCFRAME PSTACK, 0, STACK
        LOCFRAME XSTACK, 32, STACK
        LOCFRAME IOVERLAY, 0, STATIC
        LOCFRAME DOVERLAY, 0, STATIC
        ARGFRAME ISTACK, 0, STACK
        ARGFRAME PSTACK, 0, STACK
        ARGFRAME XSTACK, 32, STACK
        ARGFRAME IOVERLAY, 0, STATIC
        ARGFRAME DOVERLAY, 0, STATIC
        FUNCALL zcl_SendCommand, zclGetClusterOption
        LOCFRAME ISTACK, 0, STACK
        LOCFRAME PSTACK, 0, STACK
        LOCFRAME XSTACK, 32, STACK
        LOCFRAME IOVERLAY, 0, STATIC
        LOCFRAME DOVERLAY, 0, STATIC
        ARGFRAME ISTACK, 0, STACK
        ARGFRAME PSTACK, 0, STACK
        ARGFRAME XSTACK, 32, STACK
        ARGFRAME IOVERLAY, 0, STATIC
        ARGFRAME DOVERLAY, 0, STATIC
        FUNCALL zcl_SendCommand, osal_memset
        LOCFRAME ISTACK, 0, STACK
        LOCFRAME PSTACK, 0, STACK
        LOCFRAME XSTACK, 32, STACK
        LOCFRAME IOVERLAY, 0, STATIC
        LOCFRAME DOVERLAY, 0, STATIC
        ARGFRAME ISTACK, 0, STACK
        ARGFRAME PSTACK, 0, STACK
        ARGFRAME XSTACK, 32, STACK
        ARGFRAME IOVERLAY, 0, STATIC
        ARGFRAME DOVERLAY, 0, STATIC
        FUNCALL zcl_SendCommand, zcl_DeviceOperational
        LOCFRAME ISTACK, 0, STACK
        LOCFRAME PSTACK, 0, STACK
        LOCFRAME XSTACK, 34, STACK
        LOCFRAME IOVERLAY, 0, STATIC
        LOCFRAME DOVERLAY, 0, STATIC
        ARGFRAME ISTACK, 0, STACK
        ARGFRAME PSTACK, 0, STACK
        ARGFRAME XSTACK, 34, STACK
        ARGFRAME IOVERLAY, 0, STATIC
        ARGFRAME DOVERLAY, 0, STATIC
        FUNCALL zcl_SendCommand, osal_mem_alloc
        LOCFRAME ISTACK, 0, STACK
        LOCFRAME PSTACK, 0, STACK
        LOCFRAME XSTACK, 32, STACK
        LOCFRAME IOVERLAY, 0, STATIC
        LOCFRAME DOVERLAY, 0, STATIC
        ARGFRAME ISTACK, 0, STACK
        ARGFRAME PSTACK, 0, STACK
        ARGFRAME XSTACK, 32, STACK
        ARGFRAME IOVERLAY, 0, STATIC
        ARGFRAME DOVERLAY, 0, STATIC
        FUNCALL zcl_SendCommand, zclBuildHdr
        LOCFRAME ISTACK, 0, STACK
        LOCFRAME PSTACK, 0, STACK
        LOCFRAME XSTACK, 35, STACK
        LOCFRAME IOVERLAY, 0, STATIC
        LOCFRAME DOVERLAY, 0, STATIC
        ARGFRAME ISTACK, 0, STACK
        ARGFRAME PSTACK, 0, STACK
        ARGFRAME XSTACK, 35, STACK
        ARGFRAME IOVERLAY, 0, STATIC
        ARGFRAME DOVERLAY, 0, STATIC
        FUNCALL zcl_SendCommand, osal_memcpy
        LOCFRAME ISTACK, 0, STACK
        LOCFRAME PSTACK, 0, STACK
        LOCFRAME XSTACK, 35, STACK
        LOCFRAME IOVERLAY, 0, STATIC
        LOCFRAME DOVERLAY, 0, STATIC
        ARGFRAME ISTACK, 0, STACK
        ARGFRAME PSTACK, 0, STACK
        ARGFRAME XSTACK, 35, STACK
        ARGFRAME IOVERLAY, 0, STATIC
        ARGFRAME DOVERLAY, 0, STATIC
        FUNCALL zcl_SendCommand, AF_DataRequest
        LOCFRAME ISTACK, 0, STACK
        LOCFRAME PSTACK, 0, STACK
        LOCFRAME XSTACK, 41, STACK
        LOCFRAME IOVERLAY, 0, STATIC
        LOCFRAME DOVERLAY, 0, STATIC
        ARGFRAME ISTACK, 0, STACK
        ARGFRAME PSTACK, 0, STACK
        ARGFRAME XSTACK, 41, STACK
        ARGFRAME IOVERLAY, 0, STATIC
        ARGFRAME DOVERLAY, 0, STATIC
        FUNCALL zcl_SendCommand, osal_mem_free
        LOCFRAME ISTACK, 0, STACK
        LOCFRAME PSTACK, 0, STACK
        LOCFRAME XSTACK, 32, STACK
        LOCFRAME IOVERLAY, 0, STATIC
        LOCFRAME DOVERLAY, 0, STATIC
        ARGFRAME ISTACK, 0, STACK
        ARGFRAME PSTACK, 0, STACK
        ARGFRAME XSTACK, 32, STACK
        ARGFRAME IOVERLAY, 0, STATIC
        ARGFRAME DOVERLAY, 0, STATIC
        MOV     A,#-0x18
        LCALL   ?BANKED_ENTER_XDATA
        CFI DPH0 load(1, XDATA, add(CFA_XSP16, literal(-1)))
        CFI DPL0 load(1, XDATA, add(CFA_XSP16, literal(-2)))
        CFI ?BRET_EXT load(1, XDATA, add(CFA_XSP16, literal(-3)))
        CFI ?RET_HIGH load(1, XDATA, add(CFA_XSP16, literal(-4)))
        CFI ?RET_LOW load(1, XDATA, add(CFA_XSP16, literal(-5)))
        CFI R7 load(1, XDATA, add(CFA_XSP16, literal(-6)))
        CFI V15 load(1, XDATA, add(CFA_XSP16, literal(-7)))
        CFI V14 load(1, XDATA, add(CFA_XSP16, literal(-8)))
        CFI V13 load(1, XDATA, add(CFA_XSP16, literal(-9)))
        CFI V12 load(1, XDATA, add(CFA_XSP16, literal(-10)))
        CFI V11 load(1, XDATA, add(CFA_XSP16, literal(-11)))
        CFI V10 load(1, XDATA, add(CFA_XSP16, literal(-12)))
        CFI V9 load(1, XDATA, add(CFA_XSP16, literal(-13)))
        CFI V8 load(1, XDATA, add(CFA_XSP16, literal(-14)))
        CFI V7 load(1, XDATA, add(CFA_XSP16, literal(-15)))
        CFI V6 load(1, XDATA, add(CFA_XSP16, literal(-16)))
        CFI V5 load(1, XDATA, add(CFA_XSP16, literal(-17)))
        CFI V4 load(1, XDATA, add(CFA_XSP16, literal(-18)))
        CFI V3 load(1, XDATA, add(CFA_XSP16, literal(-19)))
        CFI V2 load(1, XDATA, add(CFA_XSP16, literal(-20)))
        CFI V1 load(1, XDATA, add(CFA_XSP16, literal(-21)))
        CFI V0 load(1, XDATA, add(CFA_XSP16, literal(-22)))
        CFI VB load(1, XDATA, add(CFA_XSP16, literal(-23)))
        CFI R6 load(1, XDATA, add(CFA_XSP16, literal(-24)))
        CFI CFA_SP SP+0
        CFI CFA_XSP16 add(XSP16, 24)
        ; Saved register size: 24
        ; Auto size: 8
        MOV     A,#-0x8
        LCALL   ?ALLOC_XSTACK8
        CFI CFA_XSP16 add(XSP16, 32)
        MOV     A,#0x6
        LCALL   ?XSTACK_DISP0_8
        MOV     A,R2
        MOVX    @DPTR,A
        INC     DPTR
        MOV     A,R3
        MOVX    @DPTR,A
        MOV     ?V0 + 6,R1
        MOV     ?V0 + 2,R4
        MOV     ?V0 + 3,R5
        MOV     A,#0x20
        LCALL   ?XSTACK_DISP0_8
        MOVX    A,@DPTR
        MOV     R6,A
        MOV     A,#0x21
        LCALL   ?XSTACK_DISP0_8
        MOVX    A,@DPTR
        MOV     ?V0 + 4,A
        MOV     A,#0x22
        LCALL   ?XSTACK_DISP0_8
        MOVX    A,@DPTR
        MOV     ?V0 + 1,A
        MOV     A,#0x23
        LCALL   ?XSTACK_DISP0_8
        MOVX    A,@DPTR
        MOV     ?V0 + 0,A
        MOV     A,#0x24
        LCALL   ?XSTACK_DISP0_8
        MOVX    A,@DPTR
        MOV     ?V0 + 10,A
        INC     DPTR
        MOVX    A,@DPTR
        MOV     ?V0 + 11,A
        MOV     A,#0x26
        LCALL   ?XSTACK_DISP0_8
        MOVX    A,@DPTR
        MOV     R7,A
        MOV     A,#0x27
        LCALL   ?XSTACK_DISP0_8
        MOVX    A,@DPTR
        MOV     ?V0 + 14,A
        INC     DPTR
        MOVX    A,@DPTR
        MOV     ?V0 + 15,A
//  676   endPointDesc_t *epDesc;
//  677   zclFrameHdr_t hdr;
//  678   uint8 *msgBuf;
//  679   uint16 msgLen;
//  680   uint8 *pBuf;
//  681   uint8 options;
//  682   ZStatus_t status;
//  683 
//  684   epDesc = afFindEndPointDesc( srcEP );
        ; Setup parameters for call to function afFindEndPointDesc
        LCALL   ??afFindEndPointDesc?relay
        MOV     ?V0 + 12,R2
        MOV     ?V0 + 13,R3
//  685   if ( epDesc == NULL )
        MOV     A,R2
        ORL     A,?V0 + 13
        JNZ     ??zcl_SendCommand_0
//  686   {
//  687     return ( ZInvalidParameter ); // EMBEDDED RETURN
        MOV     R1,#0x2
        LJMP    ??zcl_SendCommand_1 & 0xFFFF
//  688   }
//  689 
//  690 #if defined ( INTER_PAN )
//  691   if ( StubAPS_InterPan( destAddr->panId, destAddr->endPoint ) )
//  692   {
//  693     options = AF_TX_OPTIONS_NONE;
//  694   }
//  695   else
//  696 #endif
//  697   {
//  698     options = zclGetClusterOption( srcEP, clusterID );
??zcl_SendCommand_0:
        ; Setup parameters for call to function zclGetClusterOption
        MOV     R2,?V0 + 2
        MOV     R3,?V0 + 3
        MOV     R1,?V0 + 6
        LCALL   ??zclGetClusterOption?relay
        MOV     A,R1
        MOV     ?V0 + 7,A
//  699   }
//  700 
//  701   osal_memset( &hdr, 0, sizeof( zclFrameHdr_t ) );
        ; Setup parameters for call to function osal_memset
        MOV     R4,#0x6
        MOV     R5,#0x0
        MOV     R1,#0x0
        MOV     DPL,?XSP + 0
        MOV     DPH,?XSP + 1
        MOV     R2,DPL
        MOV     R3,DPH
        LCALL   ??osal_memset?relay
//  702 
//  703   // Not Profile wide command (like READ, WRITE)
//  704   if ( specific )
        MOV     A,?V0 + 4
        MOV     DPL,?XSP + 0
        MOV     DPH,?XSP + 1
        JZ      ??zcl_SendCommand_2
//  705   {
//  706     hdr.fc.type = ZCL_FRAME_TYPE_SPECIFIC_CMD;
        MOVX    A,@DPTR
        ANL     A,#0xfc
        MOV     R0,A
        INC     DPTR
        MOVX    A,@DPTR
        MOV     R1,A
        MOV     A,R0
        ORL     A,#0x1
        MOV     DPL,?XSP + 0
        MOV     DPH,?XSP + 1
        MOVX    @DPTR,A
        INC     DPTR
        MOV     A,R1
        SJMP    ??zcl_SendCommand_3
//  707   }
//  708   else
//  709   {
//  710     hdr.fc.type = ZCL_FRAME_TYPE_PROFILE_CMD;
??zcl_SendCommand_2:
        MOVX    A,@DPTR
        ANL     A,#0xfc
??zcl_SendCommand_3:
        MOVX    @DPTR,A
//  711   }
//  712 
//  713   if ( ( epDesc->simpleDesc == NULL ) ||
//  714        ( zcl_DeviceOperational( srcEP, clusterID, hdr.fc.type,
//  715                                 cmd, epDesc->simpleDesc->AppProfId ) == FALSE ) )
        MOV     DPL,?V0 + 12
        MOV     DPH,?V0 + 13
        INC     DPTR
        LCALL   ??Subroutine60_0 & 0xFFFF
??CrossCallReturnLabel_122:
        JZ      ??zcl_SendCommand_4
        ; Setup parameters for call to function zcl_DeviceOperational
        MOV     DPL,?V0 + 12
        MOV     DPH,?V0 + 13
        LCALL   ?Subroutine47 & 0xFFFF
??CrossCallReturnLabel_93:
        LCALL   ?PUSH_XSTACK8_X_TWO
        CFI CFA_XSP16 add(XSP16, 34)
        MOV     A,R6
        MOV     R5,A
        MOV     A,#0x2
        LCALL   ?XSTACK_DISP0_8
        MOVX    A,@DPTR
        ANL     A,#0x3
        MOV     R4,A
        MOV     R2,?V0 + 2
        MOV     R3,?V0 + 3
        MOV     R1,?V0 + 6
        LCALL   ??zcl_DeviceOperational?relay
        MOV     A,#0x2
        LCALL   ?DEALLOC_XSTACK8
        CFI CFA_XSP16 add(XSP16, 32)
        MOV     A,R1
        JNZ     ??zcl_SendCommand_5
//  716   {
//  717     return ( ZFailure ); // EMBEDDED RETURN
??zcl_SendCommand_4:
        MOV     R1,#0x1
        LJMP    ??zcl_SendCommand_1 & 0xFFFF
//  718   }
//  719 
//  720   // Fill in the Maufacturer Code
//  721   if ( manuCode != 0 )
??zcl_SendCommand_5:
        MOV     A,?V0 + 10
        ORL     A,?V0 + 11
        JZ      ??zcl_SendCommand_6
//  722   {
//  723     hdr.fc.manuSpecific = 1;
        MOV     DPL,?XSP + 0
        MOV     DPH,?XSP + 1
        MOVX    A,@DPTR
        ORL     A,#0x4
        MOVX    @DPTR,A
//  724     hdr.manuCode = manuCode;
        MOV     A,#0x2
        LCALL   ?XSTACK_DISP0_8
        MOV     A,?V0 + 10
        MOVX    @DPTR,A
        INC     DPTR
        MOV     A,?V0 + 11
        MOVX    @DPTR,A
//  725   }
//  726 
//  727   // Set the Command Direction
//  728   if ( direction )
??zcl_SendCommand_6:
        MOV     A,?V0 + 1
        MOV     DPL,?XSP + 0
        MOV     DPH,?XSP + 1
        JZ      ??zcl_SendCommand_7
//  729   {
//  730     hdr.fc.direction = ZCL_FRAME_SERVER_CLIENT_DIR;
        MOVX    A,@DPTR
        ORL     A,#0x8
        SJMP    ??zcl_SendCommand_8
//  731   }
//  732   else
//  733   {
//  734     hdr.fc.direction = ZCL_FRAME_CLIENT_SERVER_DIR;
??zcl_SendCommand_7:
        MOVX    A,@DPTR
        ANL     A,#0xf7
??zcl_SendCommand_8:
        MOVX    @DPTR,A
//  735   }
//  736 
//  737   // Set the Disable Default Response field
//  738   if ( disableDefaultRsp )
        MOV     A,?V0 + 0
        JZ      ??zcl_SendCommand_9
//  739   {
//  740     hdr.fc.disableDefaultRsp = 1;
        MOVX    A,@DPTR
        ORL     A,#0x10
        SJMP    ??zcl_SendCommand_10
//  741   }
//  742   else
//  743   {
//  744     hdr.fc.disableDefaultRsp = 0;
??zcl_SendCommand_9:
        MOVX    A,@DPTR
        ANL     A,#0xef
??zcl_SendCommand_10:
        MOVX    @DPTR,A
//  745   }
//  746 
//  747   // Fill in the Transaction Sequence Number
//  748   hdr.transSeqNum = seqNum;
        MOV     A,#0x4
        LCALL   ?XSTACK_DISP0_8
        MOV     A,R7
        MOVX    @DPTR,A
//  749 
//  750   // Fill in the command
//  751   hdr.commandID = cmd;
        MOV     A,#0x5
        LCALL   ?XSTACK_DISP0_8
        MOV     A,R6
        MOVX    @DPTR,A
//  752 
//  753   // calculate the needed buffer size
//  754   msgLen = zclCalcHdrSize( &hdr );
        MOV     ?V0 + 0,#0x3
        MOV     DPL,?XSP + 0
        MOV     DPH,?XSP + 1
        MOVX    A,@DPTR
        ANL     A,#0x4
        JZ      ??zcl_SendCommand_11
        MOV     ?V0 + 0,#0x5
//  755   msgLen += cmdFormatLen;
??zcl_SendCommand_11:
        MOV     A,?V0 + 0
        ADD     A,?V0 + 14
        MOV     ?V0 + 0,A
        CLR     A
        ADDC    A,?V0 + 15
        MOV     ?V0 + 1,A
//  756 
//  757   // Allocate the buffer needed
//  758   msgBuf = osal_mem_alloc( msgLen );
        ; Setup parameters for call to function osal_mem_alloc
        MOV     R2,?V0 + 0
        MOV     R3,A
        LCALL   ??osal_mem_alloc?relay
        MOV     ?V0 + 4,R2
        MOV     ?V0 + 5,R3
//  759   if ( msgBuf != NULL )
        MOV     A,R2
        ORL     A,?V0 + 5
        JZ      ??zcl_SendCommand_12
//  760   {
//  761     // Fill in the ZCL Header
//  762     pBuf = zclBuildHdr( &hdr, msgBuf );
//  763 
//  764     // Fill in the command frame
//  765     osal_memcpy( pBuf, cmdFormat, cmdFormatLen );
        ; Setup parameters for call to function osal_memcpy
        MOV     A,#0x29
        LCALL   ?XSTACK_DISP0_8
        LCALL   ?Subroutine26 & 0xFFFF
??CrossCallReturnLabel_39:
        LCALL   ?PUSH_XSTACK_I_THREE
        CFI CFA_XSP16 add(XSP16, 35)
        ; Setup parameters for call to function zclBuildHdr
        MOV     R4,?V0 + 4
        MOV     R5,?V0 + 5
        MOV     A,#0x3
        LCALL   ?XSTACK_DISP0_8
        MOV     R2,DPL
        MOV     R3,DPH
        LCALL   ??zclBuildHdr?relay
        MOV     R4,?V0 + 14
        MOV     R5,?V0 + 15
        LCALL   ??osal_memcpy?relay
        MOV     A,#0x3
        LCALL   ?DEALLOC_XSTACK8
        CFI CFA_XSP16 add(XSP16, 32)
//  766 
//  767     status = AF_DataRequest( destAddr, epDesc, clusterID, msgLen, msgBuf,
//  768                              &zcl_TransID, options, AF_DEFAULT_RADIUS );
        ; Setup parameters for call to function AF_DataRequest
        MOV     ?V0 + 8,#0x1e
        MOV     R0,#?V0 + 8
        LCALL   ?PUSH_XSTACK_I_ONE
        CFI CFA_XSP16 add(XSP16, 33)
        MOV     ?V0 + 8,#zcl_TransID & 0xff
        MOV     ?V0 + 9,#(zcl_TransID >> 8) & 0xff
        MOV     R0,#?V0 + 8
        LCALL   ?PUSH_XSTACK_I_TWO
        CFI CFA_XSP16 add(XSP16, 35)
        MOV     R0,#?V0 + 4
        LCALL   ?PUSH_XSTACK_I_TWO
        CFI CFA_XSP16 add(XSP16, 37)
        MOV     R0,#?V0 + 0
        LCALL   ?PUSH_XSTACK_I_TWO
        CFI CFA_XSP16 add(XSP16, 39)
        MOV     R0,#?V0 + 2
        LCALL   ?PUSH_XSTACK_I_TWO
        CFI CFA_XSP16 add(XSP16, 41)
        MOV     R1,?V0 + 7
        MOV     R4,?V0 + 12
        MOV     R5,?V0 + 13
        MOV     A,#0xf
        LCALL   ?XSTACK_DISP0_8
        LCALL   ??Subroutine62_0 & 0xFFFF
??CrossCallReturnLabel_126:
        LCALL   ??AF_DataRequest?relay
        MOV     A,#0x9
        LCALL   ?DEALLOC_XSTACK8
        CFI CFA_XSP16 add(XSP16, 32)
        MOV     A,R1
        MOV     R6,A
//  769     osal_mem_free ( msgBuf );
        ; Setup parameters for call to function osal_mem_free
        MOV     R2,?V0 + 4
        MOV     R3,?V0 + 5
        LCALL   ??osal_mem_free?relay
        SJMP    ??zcl_SendCommand_13
//  770   }
//  771   else
//  772   {
//  773     status = ZMemError;
??zcl_SendCommand_12:
        MOV     R6,#0x10
//  774   }
//  775 
//  776   return ( status );
??zcl_SendCommand_13:
        MOV     A,R6
        MOV     R1,A
??zcl_SendCommand_1:
        MOV     A,#0x8
        LCALL   ?DEALLOC_XSTACK8
        CFI CFA_XSP16 add(XSP16, 24)
        MOV     R7,#0x10
        LJMP    ?BANKED_LEAVE_XDATA
        CFI EndBlock cfiBlock63
//  777 }

        RSEG BANKED_CODE:CODE:NOROOT(0)
?Subroutine47:
        CFI Block cfiCond64 Using cfiCommon0
        CFI NoFunction
        CFI Conditional ??CrossCallReturnLabel_93
        CFI R6 load(1, XDATA, add(CFA_XSP16, literal(-24)))
        CFI VB load(1, XDATA, add(CFA_XSP16, literal(-23)))
        CFI V0 load(1, XDATA, add(CFA_XSP16, literal(-22)))
        CFI V1 load(1, XDATA, add(CFA_XSP16, literal(-21)))
        CFI V2 load(1, XDATA, add(CFA_XSP16, literal(-20)))
        CFI V3 load(1, XDATA, add(CFA_XSP16, literal(-19)))
        CFI V4 load(1, XDATA, add(CFA_XSP16, literal(-18)))
        CFI V5 load(1, XDATA, add(CFA_XSP16, literal(-17)))
        CFI V6 load(1, XDATA, add(CFA_XSP16, literal(-16)))
        CFI V7 load(1, XDATA, add(CFA_XSP16, literal(-15)))
        CFI V8 load(1, XDATA, add(CFA_XSP16, literal(-14)))
        CFI V9 load(1, XDATA, add(CFA_XSP16, literal(-13)))
        CFI V10 load(1, XDATA, add(CFA_XSP16, literal(-12)))
        CFI V11 load(1, XDATA, add(CFA_XSP16, literal(-11)))
        CFI V12 load(1, XDATA, add(CFA_XSP16, literal(-10)))
        CFI V13 load(1, XDATA, add(CFA_XSP16, literal(-9)))
        CFI V14 load(1, XDATA, add(CFA_XSP16, literal(-8)))
        CFI V15 load(1, XDATA, add(CFA_XSP16, literal(-7)))
        CFI R7 load(1, XDATA, add(CFA_XSP16, literal(-6)))
        CFI ?RET_LOW load(1, XDATA, add(CFA_XSP16, literal(-5)))
        CFI ?RET_HIGH load(1, XDATA, add(CFA_XSP16, literal(-4)))
        CFI ?BRET_EXT load(1, XDATA, add(CFA_XSP16, literal(-3)))
        CFI DPL0 load(1, XDATA, add(CFA_XSP16, literal(-2)))
        CFI DPH0 load(1, XDATA, add(CFA_XSP16, literal(-1)))
        CFI CFA_SP SP+0
        CFI CFA_XSP16 add(XSP16, 32)
        CFI Block cfiCond65 Using cfiCommon0
        CFI (cfiCond65) NoFunction
        CFI (cfiCond65) Conditional ??CrossCallReturnLabel_94
        CFI (cfiCond65) R6 load(1, XDATA, add(CFA_XSP16, literal(-12)))
        CFI (cfiCond65) VB load(1, XDATA, add(CFA_XSP16, literal(-11)))
        CFI (cfiCond65) V0 load(1, XDATA, add(CFA_XSP16, literal(-10)))
        CFI (cfiCond65) V1 load(1, XDATA, add(CFA_XSP16, literal(-9)))
        CFI (cfiCond65) V2 load(1, XDATA, add(CFA_XSP16, literal(-8)))
        CFI (cfiCond65) V3 load(1, XDATA, add(CFA_XSP16, literal(-7)))
        CFI (cfiCond65) R7 load(1, XDATA, add(CFA_XSP16, literal(-6)))
        CFI (cfiCond65) ?RET_LOW load(1, XDATA, add(CFA_XSP16, literal(-5)))
        CFI (cfiCond65) ?RET_HIGH load(1, XDATA, add(CFA_XSP16, literal(-4)))
        CFI (cfiCond65) ?BRET_EXT load(1, XDATA, add(CFA_XSP16, literal(-3)))
        CFI (cfiCond65) DPL0 load(1, XDATA, add(CFA_XSP16, literal(-2)))
        CFI (cfiCond65) DPH0 load(1, XDATA, add(CFA_XSP16, literal(-1)))
        CFI (cfiCond65) CFA_SP SP+0
        CFI (cfiCond65) CFA_XSP16 add(XSP16, 33)
        CFI Block cfiPicker66 Using cfiCommon1
        CFI (cfiPicker66) NoFunction
        CFI (cfiPicker66) Picker
        INC     DPTR
        INC     DPTR
        INC     DPTR
        CFI EndBlock cfiCond64
        CFI EndBlock cfiCond65
        CFI EndBlock cfiPicker66
        REQUIRE ??Subroutine54_0
        ; // Fall through to label ??Subroutine54_0

        RSEG BANKED_CODE:CODE:NOROOT(0)
??Subroutine54_0:
        CFI Block cfiCond67 Using cfiCommon0
        CFI NoFunction
        CFI Conditional ??CrossCallReturnLabel_92, ??CrossCallReturnLabel_54
        CFI R6 load(1, XDATA, add(CFA_XSP16, literal(-10)))
        CFI VB load(1, XDATA, add(CFA_XSP16, literal(-9)))
        CFI V0 load(1, XDATA, add(CFA_XSP16, literal(-8)))
        CFI V1 load(1, XDATA, add(CFA_XSP16, literal(-7)))
        CFI R7 load(1, XDATA, add(CFA_XSP16, literal(-6)))
        CFI ?RET_LOW load(1, XDATA, add(CFA_XSP16, literal(-5)))
        CFI ?RET_HIGH load(1, XDATA, add(CFA_XSP16, literal(-4)))
        CFI ?BRET_EXT load(1, XDATA, add(CFA_XSP16, literal(-3)))
        CFI DPL0 load(1, XDATA, add(CFA_XSP16, literal(-2)))
        CFI DPH0 load(1, XDATA, add(CFA_XSP16, literal(-1)))
        CFI CFA_SP SP+0
        CFI CFA_XSP16 add(XSP16, 10)
        CFI Block cfiCond68 Using cfiCommon0
        CFI (cfiCond68) NoFunction
        CFI (cfiCond68) Conditional ??CrossCallReturnLabel_92, ??CrossCallReturnLabel_55
        CFI (cfiCond68) R6 load(1, XDATA, add(CFA_XSP16, literal(-10)))
        CFI (cfiCond68) VB load(1, XDATA, add(CFA_XSP16, literal(-9)))
        CFI (cfiCond68) V0 load(1, XDATA, add(CFA_XSP16, literal(-8)))
        CFI (cfiCond68) V1 load(1, XDATA, add(CFA_XSP16, literal(-7)))
        CFI (cfiCond68) R7 load(1, XDATA, add(CFA_XSP16, literal(-6)))
        CFI (cfiCond68) ?RET_LOW load(1, XDATA, add(CFA_XSP16, literal(-5)))
        CFI (cfiCond68) ?RET_HIGH load(1, XDATA, add(CFA_XSP16, literal(-4)))
        CFI (cfiCond68) ?BRET_EXT load(1, XDATA, add(CFA_XSP16, literal(-3)))
        CFI (cfiCond68) DPL0 load(1, XDATA, add(CFA_XSP16, literal(-2)))
        CFI (cfiCond68) DPH0 load(1, XDATA, add(CFA_XSP16, literal(-1)))
        CFI (cfiCond68) CFA_SP SP+0
        CFI (cfiCond68) CFA_XSP16 add(XSP16, 10)
        CFI Block cfiCond69 Using cfiCommon0
        CFI (cfiCond69) NoFunction
        CFI (cfiCond69) Conditional ??CrossCallReturnLabel_93
        CFI (cfiCond69) R6 load(1, XDATA, add(CFA_XSP16, literal(-24)))
        CFI (cfiCond69) VB load(1, XDATA, add(CFA_XSP16, literal(-23)))
        CFI (cfiCond69) V0 load(1, XDATA, add(CFA_XSP16, literal(-22)))
        CFI (cfiCond69) V1 load(1, XDATA, add(CFA_XSP16, literal(-21)))
        CFI (cfiCond69) V2 load(1, XDATA, add(CFA_XSP16, literal(-20)))
        CFI (cfiCond69) V3 load(1, XDATA, add(CFA_XSP16, literal(-19)))
        CFI (cfiCond69) V4 load(1, XDATA, add(CFA_XSP16, literal(-18)))
        CFI (cfiCond69) V5 load(1, XDATA, add(CFA_XSP16, literal(-17)))
        CFI (cfiCond69) V6 load(1, XDATA, add(CFA_XSP16, literal(-16)))
        CFI (cfiCond69) V7 load(1, XDATA, add(CFA_XSP16, literal(-15)))
        CFI (cfiCond69) V8 load(1, XDATA, add(CFA_XSP16, literal(-14)))
        CFI (cfiCond69) V9 load(1, XDATA, add(CFA_XSP16, literal(-13)))
        CFI (cfiCond69) V10 load(1, XDATA, add(CFA_XSP16, literal(-12)))
        CFI (cfiCond69) V11 load(1, XDATA, add(CFA_XSP16, literal(-11)))
        CFI (cfiCond69) V12 load(1, XDATA, add(CFA_XSP16, literal(-10)))
        CFI (cfiCond69) V13 load(1, XDATA, add(CFA_XSP16, literal(-9)))
        CFI (cfiCond69) V14 load(1, XDATA, add(CFA_XSP16, literal(-8)))
        CFI (cfiCond69) V15 load(1, XDATA, add(CFA_XSP16, literal(-7)))
        CFI (cfiCond69) R7 load(1, XDATA, add(CFA_XSP16, literal(-6)))
        CFI (cfiCond69) ?RET_LOW load(1, XDATA, add(CFA_XSP16, literal(-5)))
        CFI (cfiCond69) ?RET_HIGH load(1, XDATA, add(CFA_XSP16, literal(-4)))
        CFI (cfiCond69) ?BRET_EXT load(1, XDATA, add(CFA_XSP16, literal(-3)))
        CFI (cfiCond69) DPL0 load(1, XDATA, add(CFA_XSP16, literal(-2)))
        CFI (cfiCond69) DPH0 load(1, XDATA, add(CFA_XSP16, literal(-1)))
        CFI (cfiCond69) CFA_SP SP+0
        CFI (cfiCond69) CFA_XSP16 add(XSP16, 32)
        CFI Block cfiCond70 Using cfiCommon0
        CFI (cfiCond70) NoFunction
        CFI (cfiCond70) Conditional ??CrossCallReturnLabel_94
        CFI (cfiCond70) R6 load(1, XDATA, add(CFA_XSP16, literal(-12)))
        CFI (cfiCond70) VB load(1, XDATA, add(CFA_XSP16, literal(-11)))
        CFI (cfiCond70) V0 load(1, XDATA, add(CFA_XSP16, literal(-10)))
        CFI (cfiCond70) V1 load(1, XDATA, add(CFA_XSP16, literal(-9)))
        CFI (cfiCond70) V2 load(1, XDATA, add(CFA_XSP16, literal(-8)))
        CFI (cfiCond70) V3 load(1, XDATA, add(CFA_XSP16, literal(-7)))
        CFI (cfiCond70) R7 load(1, XDATA, add(CFA_XSP16, literal(-6)))
        CFI (cfiCond70) ?RET_LOW load(1, XDATA, add(CFA_XSP16, literal(-5)))
        CFI (cfiCond70) ?RET_HIGH load(1, XDATA, add(CFA_XSP16, literal(-4)))
        CFI (cfiCond70) ?BRET_EXT load(1, XDATA, add(CFA_XSP16, literal(-3)))
        CFI (cfiCond70) DPL0 load(1, XDATA, add(CFA_XSP16, literal(-2)))
        CFI (cfiCond70) DPH0 load(1, XDATA, add(CFA_XSP16, literal(-1)))
        CFI (cfiCond70) CFA_SP SP+0
        CFI (cfiCond70) CFA_XSP16 add(XSP16, 33)
        CFI Block cfiPicker71 Using cfiCommon1
        CFI (cfiPicker71) NoFunction
        CFI (cfiPicker71) Picker
        INC     DPTR
        MOVX    A,@DPTR
        MOV     DPH,A
        MOV     DPL,R0
        INC     DPTR
        RET
        CFI EndBlock cfiCond67
        CFI EndBlock cfiCond68
        CFI EndBlock cfiCond69
        CFI EndBlock cfiCond70
        CFI EndBlock cfiPicker71
//  778 
//  779 #ifdef ZCL_READ
//  780 /*********************************************************************
//  781  * @fn      zcl_SendRead
//  782  *
//  783  * @brief   Send a Read command
//  784  *
//  785  * @param   srcEP - Application's endpoint
//  786  * @param   dstAddr - destination address
//  787  * @param   clusterID - cluster ID
//  788  * @param   readCmd - read command to be sent
//  789  * @param   direction - direction of the command
//  790  * @param   seqNum - transaction sequence number
//  791  *
//  792  * @return  ZSuccess if OK
//  793  */
//  794 ZStatus_t zcl_SendRead( uint8 srcEP, afAddrType_t *dstAddr,
//  795                         uint16 clusterID, zclReadCmd_t *readCmd,
//  796                         uint8 direction, uint8 disableDefaultRsp, uint8 seqNum)
//  797 {
//  798   uint16 dataLen;
//  799   uint8 *buf;
//  800   uint8 *pBuf;
//  801   ZStatus_t status;
//  802 
//  803   dataLen = readCmd->numAttr * 2; // Attribute ID
//  804 
//  805   buf = osal_mem_alloc( dataLen );
//  806   if ( buf != NULL )
//  807   {
//  808     uint8 i;
//  809 
//  810     // Load the buffer - serially
//  811     pBuf = buf;
//  812     for (i = 0; i < readCmd->numAttr; i++)
//  813     {
//  814       *pBuf++ = LO_UINT16( readCmd->attrID[i] );
//  815       *pBuf++ = HI_UINT16( readCmd->attrID[i] );
//  816     }
//  817 
//  818     status = zcl_SendCommand( srcEP, dstAddr, clusterID, ZCL_CMD_READ, FALSE,
//  819                               direction, disableDefaultRsp, 0, seqNum, dataLen, buf );
//  820     osal_mem_free( buf );
//  821   }
//  822   else
//  823   {
//  824     status = ZMemError;
//  825   }
//  826 
//  827   return ( status );
//  828 }
//  829 
//  830 /*********************************************************************
//  831  * @fn      zcl_SendReadRsp
//  832  *
//  833  * @brief   Send a Read Response command.
//  834  *
//  835  * @param   srcEP - Application's endpoint
//  836  * @param   dstAddr - destination address
//  837  * @param   clusterID - cluster ID
//  838  * @param   readRspCmd - read response command to be sent
//  839  * @param   direction - direction of the command
//  840  * @param   seqNum - transaction sequence number
//  841  *
//  842  * @return  ZSuccess if OK
//  843  */
//  844 ZStatus_t zcl_SendReadRsp( uint8 srcEP, afAddrType_t *dstAddr,
//  845                            uint16 clusterID, zclReadRspCmd_t *readRspCmd,
//  846                            uint8 direction, uint8 disableDefaultRsp, uint8 seqNum )
//  847 {
//  848   uint8 *buf;
//  849   uint16 len = 0;
//  850   ZStatus_t status;
//  851 
//  852   // calculate the size of the command
//  853   for ( uint8 i = 0; i < readRspCmd->numAttr; i++ )
//  854   {
//  855     zclReadRspStatus_t *statusRec = &(readRspCmd->attrList[i]);
//  856 
//  857     len += 2 + 1; // Attribute ID + Status
//  858 
//  859     if ( statusRec->status == ZCL_STATUS_SUCCESS )
//  860     {
//  861       len++; // Attribute Data Type length
//  862 
//  863       // Attribute Data length
//  864       if ( statusRec->data != NULL )
//  865       {
//  866         len += zclGetAttrDataLength( statusRec->dataType, statusRec->data );
//  867       }
//  868       else
//  869       {
//  870         len += zclGetAttrDataLengthUsingCB( srcEP, clusterID, statusRec->attrID );
//  871       }
//  872     }
//  873   }
//  874 
//  875   buf = osal_mem_alloc( len );
//  876   if ( buf != NULL )
//  877   {
//  878     // Load the buffer - serially
//  879     uint8 *pBuf = buf;
//  880     for ( uint8 i = 0; i < readRspCmd->numAttr; i++ )
//  881     {
//  882       zclReadRspStatus_t *statusRec = &(readRspCmd->attrList[i]);
//  883 
//  884       *pBuf++ = LO_UINT16( statusRec->attrID );
//  885       *pBuf++ = HI_UINT16( statusRec->attrID );
//  886       *pBuf++ = statusRec->status;
//  887 
//  888       if ( statusRec->status == ZCL_STATUS_SUCCESS )
//  889       {
//  890         *pBuf++ = statusRec->dataType;
//  891 
//  892         if ( statusRec->data != NULL )
//  893         {
//  894           // Copy attribute data to the buffer to be sent out
//  895           pBuf = zclSerializeData( statusRec->dataType, statusRec->data, pBuf );
//  896         }
//  897         else
//  898         {
//  899           uint16 dataLen;
//  900 
//  901           // Read attribute data directly into the buffer to be sent out
//  902           zclReadAttrDataUsingCB( srcEP, clusterID, statusRec->attrID, pBuf, &dataLen );
//  903           pBuf += dataLen;
//  904         }
//  905       }
//  906     } // for loop
//  907 
//  908     status = zcl_SendCommand( srcEP, dstAddr, clusterID, ZCL_CMD_READ_RSP, FALSE,
//  909                               direction, disableDefaultRsp, 0, seqNum, len, buf );
//  910     osal_mem_free( buf );
//  911   }
//  912   else
//  913   {
//  914     status = ZMemError;
//  915   }
//  916 
//  917   return ( status );
//  918 }
//  919 #endif // ZCL_READ
//  920 
//  921 #ifdef ZCL_WRITE
//  922 /*********************************************************************
//  923  * @fn      sendWriteRequest
//  924  *
//  925  * @brief   Send a Write command
//  926  *
//  927  * @param   dstAddr - destination address
//  928  * @param   clusterID - cluster ID
//  929  * @param   writeCmd - write command to be sent
//  930  * @param   cmd - ZCL_CMD_WRITE, ZCL_CMD_WRITE_UNDIVIDED or ZCL_CMD_WRITE_NO_RSP
//  931  * @param   direction - direction of the command
//  932  * @param   seqNum - transaction sequence number
//  933  *
//  934  * @return  ZSuccess if OK
//  935  */
//  936 ZStatus_t zcl_SendWriteRequest( uint8 srcEP, afAddrType_t *dstAddr, uint16 clusterID,
//  937                                 zclWriteCmd_t *writeCmd, uint8 cmd, uint8 direction,
//  938                                 uint8 disableDefaultRsp, uint8 seqNum )
//  939 {
//  940   uint8 *buf;
//  941   uint16 dataLen = 0;
//  942   ZStatus_t status;
//  943 
//  944   for ( uint8 i = 0; i < writeCmd->numAttr; i++ )
//  945   {
//  946     zclWriteRec_t *statusRec = &(writeCmd->attrList[i]);
//  947 
//  948     dataLen += 2 + 1; // Attribute ID + Attribute Type
//  949 
//  950     // Attribute Data
//  951     dataLen += zclGetAttrDataLength( statusRec->dataType, statusRec->attrData );
//  952   }
//  953 
//  954   buf = osal_mem_alloc( dataLen );
//  955   if ( buf != NULL )
//  956   {
//  957     // Load the buffer - serially
//  958     uint8 *pBuf = buf;
//  959     for ( uint8 i = 0; i < writeCmd->numAttr; i++ )
//  960     {
//  961       zclWriteRec_t *statusRec = &(writeCmd->attrList[i]);
//  962 
//  963       *pBuf++ = LO_UINT16( statusRec->attrID );
//  964       *pBuf++ = HI_UINT16( statusRec->attrID );
//  965       *pBuf++ = statusRec->dataType;
//  966 
//  967       pBuf = zclSerializeData( statusRec->dataType, statusRec->attrData, pBuf );
//  968     }
//  969 
//  970     status = zcl_SendCommand( srcEP, dstAddr, clusterID, cmd, FALSE,
//  971                               direction, disableDefaultRsp, 0, seqNum, dataLen, buf );
//  972     osal_mem_free( buf );
//  973   }
//  974   else
//  975   {
//  976     status = ZMemError;
//  977   }
//  978 
//  979   return ( status);
//  980 }
//  981 
//  982 /*********************************************************************
//  983  * @fn      zcl_SendWriteRsp
//  984  *
//  985  * @brief   Send a Write Response command
//  986  *
//  987  * @param   dstAddr - destination address
//  988  * @param   clusterID - cluster ID
//  989  * @param   wrtieRspCmd - write response command to be sent
//  990  * @param   direction - direction of the command
//  991  * @param   seqNum - transaction sequence number
//  992  *
//  993  * @return  ZSuccess if OK
//  994  */
//  995 ZStatus_t zcl_SendWriteRsp( uint8 srcEP, afAddrType_t *dstAddr,
//  996                             uint16 clusterID, zclWriteRspCmd_t *writeRspCmd,
//  997                             uint8 direction, uint8 disableDefaultRsp, uint8 seqNum )
//  998 {
//  999   uint16 dataLen;
// 1000   uint8 *buf;
// 1001   ZStatus_t status;
// 1002 
// 1003   dataLen = writeRspCmd->numAttr * ( 1 + 2 ); // status + attribute id
// 1004 
// 1005   buf = osal_mem_alloc( dataLen );
// 1006   if ( buf != NULL )
// 1007   {
// 1008     // Load the buffer - serially
// 1009     uint8 *pBuf = buf;
// 1010     for ( uint8 i = 0; i < writeRspCmd->numAttr; i++ )
// 1011     {
// 1012       *pBuf++ = writeRspCmd->attrList[i].status;
// 1013       *pBuf++ = LO_UINT16( writeRspCmd->attrList[i].attrID );
// 1014       *pBuf++ = HI_UINT16( writeRspCmd->attrList[i].attrID );
// 1015     }
// 1016 
// 1017     // If there's only a single status record and its status field is set to
// 1018     // SUCCESS then omit the attribute ID field.
// 1019     if ( writeRspCmd->numAttr == 1 && writeRspCmd->attrList[0].status == ZCL_STATUS_SUCCESS )
// 1020     {
// 1021       dataLen = 1;
// 1022     }
// 1023 
// 1024     status = zcl_SendCommand( srcEP, dstAddr, clusterID, ZCL_CMD_WRITE_RSP, FALSE,
// 1025                               direction, disableDefaultRsp, 0, seqNum, dataLen, buf );
// 1026     osal_mem_free( buf );
// 1027   }
// 1028   else
// 1029   {
// 1030     status = ZMemError;
// 1031   }
// 1032 
// 1033   return ( status );
// 1034 }
// 1035 #endif // ZCL_WRITE
// 1036 
// 1037 #ifdef ZCL_REPORT
// 1038 /*********************************************************************
// 1039  * @fn      zcl_SendConfigReportCmd
// 1040  *
// 1041  * @brief   Send a Configure Reporting command
// 1042  *
// 1043  * @param   dstAddr - destination address
// 1044  * @param   clusterID - cluster ID
// 1045  * @param   cfgReportCmd - configure reporting command to be sent
// 1046  * @param   direction - direction of the command
// 1047  * @param   seqNum - transaction sequence number
// 1048  *
// 1049  * @return  ZSuccess if OK
// 1050  */
// 1051 ZStatus_t zcl_SendConfigReportCmd( uint8 srcEP, afAddrType_t *dstAddr,
// 1052                           uint16 clusterID, zclCfgReportCmd_t *cfgReportCmd,
// 1053                           uint8 direction, uint8 disableDefaultRsp, uint8 seqNum )
// 1054 {
// 1055   uint8 *buf;
// 1056   uint16 dataLen = 0;
// 1057   ZStatus_t status;
// 1058 
// 1059   // Find out the data length
// 1060   for ( uint8 i = 0; i < cfgReportCmd->numAttr; i++ )
// 1061   {
// 1062     zclCfgReportRec_t *reportRec = &(cfgReportCmd->attrList[i]);
// 1063 
// 1064     dataLen += 1 + 2; // Direction + Attribute ID
// 1065 
// 1066     if ( reportRec->direction == ZCL_SEND_ATTR_REPORTS )
// 1067     {
// 1068       dataLen += 1 + 2 + 2; // Data Type + Min + Max Reporting Intervals
// 1069 
// 1070       // Find out the size of the Reportable Change field (for Analog data types)
// 1071       if ( zclAnalogDataType( reportRec->dataType ) )
// 1072       {
// 1073         dataLen += zclGetDataTypeLength( reportRec->dataType );
// 1074       }
// 1075     }
// 1076     else
// 1077     {
// 1078       dataLen += 2; // Timeout Period
// 1079     }
// 1080   }
// 1081 
// 1082   buf = osal_mem_alloc( dataLen );
// 1083   if ( buf != NULL )
// 1084   {
// 1085     // Load the buffer - serially
// 1086     uint8 *pBuf = buf;
// 1087     for ( uint8 i = 0; i < cfgReportCmd->numAttr; i++ )
// 1088     {
// 1089       zclCfgReportRec_t *reportRec = &(cfgReportCmd->attrList[i]);
// 1090 
// 1091       *pBuf++ = reportRec->direction;
// 1092       *pBuf++ = LO_UINT16( reportRec->attrID );
// 1093       *pBuf++ = HI_UINT16( reportRec->attrID );
// 1094 
// 1095       if ( reportRec->direction == ZCL_SEND_ATTR_REPORTS )
// 1096       {
// 1097         *pBuf++ = reportRec->dataType;
// 1098         *pBuf++ = LO_UINT16( reportRec->minReportInt );
// 1099         *pBuf++ = HI_UINT16( reportRec->minReportInt );
// 1100         *pBuf++ = LO_UINT16( reportRec->maxReportInt );
// 1101         *pBuf++ = HI_UINT16( reportRec->maxReportInt );
// 1102 
// 1103         if ( zclAnalogDataType( reportRec->dataType ) )
// 1104         {
// 1105           pBuf = zclSerializeData( reportRec->dataType, reportRec->reportableChange, pBuf );
// 1106         }
// 1107       }
// 1108       else
// 1109       {
// 1110         *pBuf++ = LO_UINT16( reportRec->timeoutPeriod );
// 1111         *pBuf++ = HI_UINT16( reportRec->timeoutPeriod );
// 1112       }
// 1113     } // for loop
// 1114 
// 1115     status = zcl_SendCommand( srcEP, dstAddr, clusterID, ZCL_CMD_CONFIG_REPORT, FALSE,
// 1116                               direction, disableDefaultRsp, 0, seqNum, dataLen, buf );
// 1117     osal_mem_free( buf );
// 1118   }
// 1119   else
// 1120   {
// 1121     status = ZMemError;
// 1122   }
// 1123 
// 1124   return ( status );
// 1125 }
// 1126 
// 1127 /*********************************************************************
// 1128  * @fn      zcl_SendConfigReportRspCmd
// 1129  *
// 1130  * @brief   Send a Configure Reporting Response command
// 1131  *
// 1132  * @param   dstAddr - destination address
// 1133  * @param   clusterID - cluster ID
// 1134  * @param   cfgReportRspCmd - configure reporting response command to be sent
// 1135  * @param   direction - direction of the command
// 1136  * @param   seqNum - transaction sequence number
// 1137  *
// 1138  * @return  ZSuccess if OK
// 1139  */
// 1140 ZStatus_t zcl_SendConfigReportRspCmd( uint8 srcEP, afAddrType_t *dstAddr,
// 1141                     uint16 clusterID, zclCfgReportRspCmd_t *cfgReportRspCmd,
// 1142                     uint8 direction, uint8 disableDefaultRsp, uint8 seqNum )
// 1143 {
// 1144   uint16 dataLen;
// 1145   uint8 *buf;
// 1146   ZStatus_t status;
// 1147 
// 1148   // Atrribute list (Status, Direction and Attribute ID)
// 1149   dataLen = cfgReportRspCmd->numAttr * ( 1 + 1 + 2 );
// 1150 
// 1151   buf = osal_mem_alloc( dataLen );
// 1152   if ( buf != NULL )
// 1153   {
// 1154     // Load the buffer - serially
// 1155     uint8 *pBuf = buf;
// 1156     for ( uint8 i = 0; i < cfgReportRspCmd->numAttr; i++ )
// 1157     {
// 1158       *pBuf++ = cfgReportRspCmd->attrList[i].status;
// 1159       *pBuf++ = cfgReportRspCmd->attrList[i].direction;
// 1160       *pBuf++ = LO_UINT16( cfgReportRspCmd->attrList[i].attrID );
// 1161       *pBuf++ = HI_UINT16( cfgReportRspCmd->attrList[i].attrID );
// 1162     }
// 1163 
// 1164     // If there's only a single status record and its status field is set to
// 1165     // SUCCESS then omit the attribute ID field.
// 1166     if ( cfgReportRspCmd->numAttr == 1 && cfgReportRspCmd->attrList[0].status == ZCL_STATUS_SUCCESS )
// 1167     {
// 1168       dataLen = 1;
// 1169     }
// 1170 
// 1171     status = zcl_SendCommand( srcEP, dstAddr, clusterID,
// 1172                               ZCL_CMD_CONFIG_REPORT_RSP, FALSE, direction,
// 1173                               disableDefaultRsp, 0, seqNum, dataLen, buf );
// 1174     osal_mem_free( buf );
// 1175   }
// 1176   else
// 1177   {
// 1178     status = ZMemError;
// 1179   }
// 1180 
// 1181   return ( status );
// 1182 }
// 1183 
// 1184 /*********************************************************************
// 1185  * @fn      zcl_SendReadReportCfgCmd
// 1186  *
// 1187  * @brief   Send a Read Reporting Configuration command
// 1188  *
// 1189  * @param   dstAddr - destination address
// 1190  * @param   clusterID - cluster ID
// 1191  * @param   readReportCfgCmd - read reporting configuration command to be sent
// 1192  * @param   direction - direction of the command
// 1193  * @param   seqNum - transaction sequence number
// 1194  *
// 1195  * @return  ZSuccess if OK
// 1196  */
// 1197 ZStatus_t zcl_SendReadReportCfgCmd( uint8 srcEP, afAddrType_t *dstAddr,
// 1198                   uint16 clusterID, zclReadReportCfgCmd_t *readReportCfgCmd,
// 1199                   uint8 direction, uint8 disableDefaultRsp, uint8 seqNum )
// 1200 {
// 1201   uint16 dataLen;
// 1202   uint8 *buf;
// 1203   ZStatus_t status;
// 1204 
// 1205   dataLen = readReportCfgCmd->numAttr * ( 1 + 2 ); // Direction + Atrribute ID
// 1206 
// 1207   buf = osal_mem_alloc( dataLen );
// 1208   if ( buf != NULL )
// 1209   {
// 1210     // Load the buffer - serially
// 1211     uint8 *pBuf = buf;
// 1212     for ( uint8 i = 0; i < readReportCfgCmd->numAttr; i++ )
// 1213     {
// 1214       *pBuf++ = readReportCfgCmd->attrList[i].direction;
// 1215       *pBuf++ = LO_UINT16( readReportCfgCmd->attrList[i].attrID );
// 1216       *pBuf++ = HI_UINT16( readReportCfgCmd->attrList[i].attrID );
// 1217     }
// 1218 
// 1219     status = zcl_SendCommand( srcEP, dstAddr, clusterID, ZCL_CMD_READ_REPORT_CFG, FALSE,
// 1220                               direction, disableDefaultRsp, 0, seqNum, dataLen, buf );
// 1221     osal_mem_free( buf );
// 1222   }
// 1223   else
// 1224   {
// 1225     status = ZMemError;
// 1226   }
// 1227 
// 1228   return ( status );
// 1229 }
// 1230 
// 1231 /*********************************************************************
// 1232  * @fn      zcl_SendReadReportCfgRspCmd
// 1233  *
// 1234  * @brief   Send a Read Reporting Configuration Response command
// 1235  *
// 1236  * @param   dstAddr - destination address
// 1237  * @param   clusterID - cluster ID
// 1238  * @param   readReportCfgRspCmd - read reporting configuration response command to be sent
// 1239  * @param   direction - direction of the command
// 1240  * @param   seqNum - transaction sequence number
// 1241  *
// 1242  * @return  ZSuccess if OK
// 1243  */
// 1244 ZStatus_t zcl_SendReadReportCfgRspCmd( uint8 srcEP, afAddrType_t *dstAddr,
// 1245              uint16 clusterID, zclReadReportCfgRspCmd_t *readReportCfgRspCmd,
// 1246              uint8 direction, uint8 disableDefaultRsp, uint8 seqNum )
// 1247 {
// 1248   uint8 *buf;
// 1249   uint16 dataLen = 0;
// 1250   ZStatus_t status;
// 1251 
// 1252   // Find out the data length
// 1253   for ( uint8 i = 0; i < readReportCfgRspCmd->numAttr; i++ )
// 1254   {
// 1255     zclReportCfgRspRec_t *reportRspRec = &(readReportCfgRspCmd->attrList[i]);
// 1256 
// 1257     dataLen += 1 + 1 + 2 ; // Status, Direction and Atrribute ID
// 1258 
// 1259     if ( reportRspRec->status == ZCL_STATUS_SUCCESS )
// 1260     {
// 1261       if ( reportRspRec->direction == ZCL_SEND_ATTR_REPORTS )
// 1262       {
// 1263         dataLen += 1 + 2 + 2; // Data Type + Min + Max Reporting Intervals
// 1264 
// 1265         // Find out the size of the Reportable Change field (for Analog data types)
// 1266         if ( zclAnalogDataType( reportRspRec->dataType ) )
// 1267         {
// 1268           dataLen += zclGetDataTypeLength( reportRspRec->dataType );
// 1269         }
// 1270       }
// 1271       else
// 1272       {
// 1273         dataLen += 2; // Timeout Period
// 1274       }
// 1275     }
// 1276   }
// 1277 
// 1278   buf = osal_mem_alloc( dataLen );
// 1279   if ( buf != NULL )
// 1280   {
// 1281     // Load the buffer - serially
// 1282     uint8 *pBuf = buf;
// 1283     for ( uint8 i = 0; i < readReportCfgRspCmd->numAttr; i++ )
// 1284     {
// 1285       zclReportCfgRspRec_t *reportRspRec = &(readReportCfgRspCmd->attrList[i]);
// 1286 
// 1287       *pBuf++ = reportRspRec->status;
// 1288       *pBuf++ = reportRspRec->direction;
// 1289       *pBuf++ = LO_UINT16( reportRspRec->attrID );
// 1290       *pBuf++ = HI_UINT16( reportRspRec->attrID );
// 1291 
// 1292       if ( reportRspRec->status == ZCL_STATUS_SUCCESS )
// 1293       {
// 1294         if ( reportRspRec->direction == ZCL_SEND_ATTR_REPORTS )
// 1295         {
// 1296           *pBuf++ = reportRspRec->dataType;
// 1297           *pBuf++ = LO_UINT16( reportRspRec->minReportInt );
// 1298           *pBuf++ = HI_UINT16( reportRspRec->minReportInt );
// 1299           *pBuf++ = LO_UINT16( reportRspRec->maxReportInt );
// 1300           *pBuf++ = HI_UINT16( reportRspRec->maxReportInt );
// 1301 
// 1302           if ( zclAnalogDataType( reportRspRec->dataType ) )
// 1303           {
// 1304             pBuf = zclSerializeData( reportRspRec->dataType,
// 1305                                      reportRspRec->reportableChange, pBuf );
// 1306           }
// 1307         }
// 1308         else
// 1309         {
// 1310           *pBuf++ = LO_UINT16( reportRspRec->timeoutPeriod );
// 1311           *pBuf++ = HI_UINT16( reportRspRec->timeoutPeriod );
// 1312         }
// 1313       }
// 1314     }
// 1315 
// 1316     status = zcl_SendCommand( srcEP, dstAddr, clusterID,
// 1317                               ZCL_CMD_READ_REPORT_CFG_RSP, FALSE,
// 1318                               direction, disableDefaultRsp, 0, seqNum, dataLen, buf );
// 1319     osal_mem_free( buf );
// 1320   }
// 1321   else
// 1322   {
// 1323     status = ZMemError;
// 1324   }
// 1325 
// 1326   return ( status );
// 1327 }
// 1328 
// 1329 /*********************************************************************
// 1330  * @fn      zcl_SendReportCmd
// 1331  *
// 1332  * @brief   Send a Report command
// 1333  *
// 1334  * @param   dstAddr - destination address
// 1335  * @param   clusterID - cluster ID
// 1336  * @param   reportCmd - report command to be sent
// 1337  * @param   direction - direction of the command
// 1338  * @param   seqNum - transaction sequence number
// 1339  *
// 1340  * @return  ZSuccess if OK
// 1341  */
// 1342 ZStatus_t zcl_SendReportCmd( uint8 srcEP, afAddrType_t *dstAddr,
// 1343                              uint16 clusterID, zclReportCmd_t *reportCmd,
// 1344                              uint8 direction, uint8 disableDefaultRsp, uint8 seqNum )
// 1345 {
// 1346   uint16 dataLen = 0;
// 1347   uint8 *buf;
// 1348   ZStatus_t status;
// 1349 
// 1350   // calculate the size of the command
// 1351   for ( uint8 i = 0; i < reportCmd->numAttr; i++ )
// 1352   {
// 1353     zclReport_t *reportRec = &(reportCmd->attrList[i]);
// 1354 
// 1355     dataLen += 2 + 1; // Attribute ID + data type
// 1356 
// 1357     // Attribute Data
// 1358     dataLen += zclGetAttrDataLength( reportRec->dataType, reportRec->attrData );
// 1359   }
// 1360 
// 1361   buf = osal_mem_alloc( dataLen );
// 1362   if ( buf != NULL )
// 1363   {
// 1364     // Load the buffer - serially
// 1365     uint8 *pBuf = buf;
// 1366     for ( uint8 i = 0; i < reportCmd->numAttr; i++ )
// 1367     {
// 1368       zclReport_t *reportRec = &(reportCmd->attrList[i]);
// 1369 
// 1370       *pBuf++ = LO_UINT16( reportRec->attrID );
// 1371       *pBuf++ = HI_UINT16( reportRec->attrID );
// 1372       *pBuf++ = reportRec->dataType;
// 1373 
// 1374       pBuf = zclSerializeData( reportRec->dataType, reportRec->attrData, pBuf );
// 1375     }
// 1376 
// 1377     status = zcl_SendCommand( srcEP, dstAddr, clusterID, ZCL_CMD_REPORT, FALSE,
// 1378                               direction, disableDefaultRsp, 0, seqNum, dataLen, buf );
// 1379     osal_mem_free( buf );
// 1380   }
// 1381   else
// 1382   {
// 1383     status = ZMemError;
// 1384   }
// 1385 
// 1386   return ( status );
// 1387 }
// 1388 #endif // ZCL_REPORT
// 1389 
// 1390 /*********************************************************************
// 1391  * @fn      zcl_SendDefaultRspCmd
// 1392  *
// 1393  * @brief   Send a Default Response command
// 1394  *
// 1395  *          Note: The manufacturer code field should be set if this
// 1396  *          command is being sent in response to a manufacturer specific
// 1397  *          command.
// 1398  *
// 1399  * @param   dstAddr - destination address
// 1400  * @param   clusterID - cluster ID
// 1401  * @param   defaultRspCmd - default response command to be sent
// 1402  * @param   direction - direction of the command
// 1403  * @param   manuCode - manufacturer code for proprietary extensions to a profile
// 1404  * @param   seqNum - transaction sequence number
// 1405  *
// 1406  * @return  ZSuccess if OK
// 1407  */

        RSEG BANKED_CODE:CODE:NOROOT(0)
// 1408 ZStatus_t zcl_SendDefaultRspCmd( uint8 srcEP, afAddrType_t *dstAddr, uint16 clusterID,
zcl_SendDefaultRspCmd:
        CFI Block cfiBlock72 Using cfiCommon0
        CFI Function zcl_SendDefaultRspCmd
        CODE
// 1409                                  zclDefaultRspCmd_t *defaultRspCmd, uint8 direction,
// 1410                                  uint8 disableDefaultRsp, uint16 manuCode, uint8 seqNum )
// 1411 {
        FUNCALL zcl_SendDefaultRspCmd, zcl_SendCommand
        LOCFRAME ISTACK, 0, STACK
        LOCFRAME PSTACK, 0, STACK
        LOCFRAME XSTACK, 27, STACK
        LOCFRAME IOVERLAY, 0, STATIC
        LOCFRAME DOVERLAY, 0, STATIC
        ARGFRAME ISTACK, 0, STACK
        ARGFRAME PSTACK, 0, STACK
        ARGFRAME XSTACK, 27, STACK
        ARGFRAME IOVERLAY, 0, STATIC
        ARGFRAME DOVERLAY, 0, STATIC
        MOV     A,#-0xe
        LCALL   ?BANKED_ENTER_XDATA
        CFI DPH0 load(1, XDATA, add(CFA_XSP16, literal(-1)))
        CFI DPL0 load(1, XDATA, add(CFA_XSP16, literal(-2)))
        CFI ?BRET_EXT load(1, XDATA, add(CFA_XSP16, literal(-3)))
        CFI ?RET_HIGH load(1, XDATA, add(CFA_XSP16, literal(-4)))
        CFI ?RET_LOW load(1, XDATA, add(CFA_XSP16, literal(-5)))
        CFI R7 load(1, XDATA, add(CFA_XSP16, literal(-6)))
        CFI V5 load(1, XDATA, add(CFA_XSP16, literal(-7)))
        CFI V4 load(1, XDATA, add(CFA_XSP16, literal(-8)))
        CFI V3 load(1, XDATA, add(CFA_XSP16, literal(-9)))
        CFI V2 load(1, XDATA, add(CFA_XSP16, literal(-10)))
        CFI V1 load(1, XDATA, add(CFA_XSP16, literal(-11)))
        CFI V0 load(1, XDATA, add(CFA_XSP16, literal(-12)))
        CFI VB load(1, XDATA, add(CFA_XSP16, literal(-13)))
        CFI R6 load(1, XDATA, add(CFA_XSP16, literal(-14)))
        CFI CFA_SP SP+0
        CFI CFA_XSP16 add(XSP16, 14)
        ; Saved register size: 14
        ; Auto size: 2
        MOV     A,#-0x2
        LCALL   ?ALLOC_XSTACK8
        CFI CFA_XSP16 add(XSP16, 16)
        MOV     A,R1
        MOV     R6,A
        MOV     A,#0x10
        LCALL   ?XSTACK_DISP0_8
        LCALL   ?Subroutine28 & 0xFFFF
??CrossCallReturnLabel_43:
        MOV     A,#0x12
        LCALL   ?XSTACK_DISP0_8
        MOVX    A,@DPTR
        MOV     R7,A
        MOV     A,#0x13
        LCALL   ?XSTACK_DISP0_8
        MOVX    A,@DPTR
        MOV     ?V0 + 4,A
        MOV     A,#0x14
        LCALL   ?XSTACK_DISP0_8
        MOVX    A,@DPTR
        MOV     ?V0 + 2,A
        INC     DPTR
        MOVX    A,@DPTR
        MOV     ?V0 + 3,A
        MOV     A,#0x16
        LCALL   ?XSTACK_DISP0_8
        MOVX    A,@DPTR
        MOV     ?V0 + 5,A
// 1412   uint8 buf[2]; // Command ID and Status;
// 1413 
// 1414   // Load the buffer - serially
// 1415   buf[0] = defaultRspCmd->commandID;
        MOV     DPL,R0
        MOV     DPH,R1
        MOVX    A,@DPTR
        MOV     DPL,?XSP + 0
        MOV     DPH,?XSP + 1
        LCALL   ?Subroutine50 & 0xFFFF
// 1416   buf[1] = defaultRspCmd->statusCode;
??CrossCallReturnLabel_91:
        MOVX    A,@DPTR
        PUSH    A
        CFI CFA_SP SP+-1
        MOV     A,#0x1
        LCALL   ?XSTACK_DISP0_8
        POP     A
        CFI CFA_SP SP+0
        MOVX    @DPTR,A
// 1417 
// 1418   return ( zcl_SendCommand( srcEP, dstAddr, clusterID, ZCL_CMD_DEFAULT_RSP, FALSE,
// 1419                             direction, disableDefaultRsp, manuCode, seqNum, 2, buf ) );
        ; Setup parameters for call to function zcl_SendCommand
        MOV     DPL,?XSP + 0
        MOV     DPH,?XSP + 1
        MOV     ?V0 + 0,DPL
        MOV     ?V0 + 1,DPH
        MOV     R0,#?V0 + 0
        LCALL   ?PUSH_XSTACK_I_TWO
        CFI CFA_XSP16 add(XSP16, 18)
        MOV     ?V0 + 0,#0x2
        MOV     ?V0 + 1,#0x0
        MOV     R0,#?V0 + 0
        LCALL   ?PUSH_XSTACK_I_TWO
        CFI CFA_XSP16 add(XSP16, 20)
        MOV     A,?V0 + 5
        MOV     ?V0 + 0,A
        MOV     R0,#?V0 + 0
        LCALL   ?PUSH_XSTACK_I_ONE
        CFI CFA_XSP16 add(XSP16, 21)
        MOV     R0,#?V0 + 2
        LCALL   ?PUSH_XSTACK_I_TWO
        CFI CFA_XSP16 add(XSP16, 23)
        MOV     A,?V0 + 4
        MOV     ?V0 + 0,A
        MOV     R0,#?V0 + 0
        LCALL   ?PUSH_XSTACK_I_ONE
        CFI CFA_XSP16 add(XSP16, 24)
        MOV     A,R7
        MOV     ?V0 + 0,A
        MOV     R0,#?V0 + 0
        LCALL   ?PUSH_XSTACK_I_ONE
        CFI CFA_XSP16 add(XSP16, 25)
        MOV     ?V0 + 0,#0x0
        MOV     R0,#?V0 + 0
        LCALL   ?PUSH_XSTACK_I_ONE
        CFI CFA_XSP16 add(XSP16, 26)
        MOV     ?V0 + 0,#0xb
        MOV     R0,#?V0 + 0
        LCALL   ?PUSH_XSTACK_I_ONE
        CFI CFA_XSP16 add(XSP16, 27)
        MOV     A,R6
        MOV     R1,A
        LCALL   ??zcl_SendCommand?relay
        MOV     A,#0xb
        LCALL   ?DEALLOC_XSTACK8
        CFI CFA_XSP16 add(XSP16, 16)
        MOV     A,#0x2
        LCALL   ?DEALLOC_XSTACK8
        CFI CFA_XSP16 add(XSP16, 14)
        LJMP    ?Subroutine2 & 0xFFFF
        CFI EndBlock cfiBlock72
// 1420 }
// 1421 
// 1422 #ifdef ZCL_DISCOVER
// 1423 /*********************************************************************
// 1424  * @fn      zcl_SendDiscoverCmd
// 1425  *
// 1426  * @brief   Send a Discover command
// 1427  *
// 1428  * @param   dstAddr - destination address
// 1429  * @param   clusterID - cluster ID
// 1430  * @param   discoverCmd - discover command to be sent
// 1431  * @param   direction - direction of the command
// 1432  * @param   seqNum - transaction sequence number
// 1433  *
// 1434  * @return  ZSuccess if OK
// 1435  */
// 1436 ZStatus_t zcl_SendDiscoverCmd( uint8 srcEP, afAddrType_t *dstAddr,
// 1437                             uint16 clusterID, zclDiscoverCmd_t *discoverCmd,
// 1438                             uint8 direction, uint8 disableDefaultRsp, uint8 seqNum )
// 1439 {
// 1440   uint16 dataLen = 2 + 1; // Start Attribute ID and Max Attribute IDs
// 1441   uint8 *buf;
// 1442   ZStatus_t status;
// 1443 
// 1444   buf = osal_mem_alloc( dataLen );
// 1445   if ( buf != NULL )
// 1446   {
// 1447     // Load the buffer - serially
// 1448     uint8 *pBuf = buf;
// 1449     *pBuf++ = LO_UINT16(discoverCmd->startAttr);
// 1450     *pBuf++ = HI_UINT16(discoverCmd->startAttr);
// 1451     *pBuf++ = discoverCmd->maxAttrIDs;
// 1452 
// 1453     status = zcl_SendCommand( srcEP, dstAddr, clusterID, ZCL_CMD_DISCOVER, FALSE,
// 1454                               direction, disableDefaultRsp, 0, seqNum, dataLen, buf );
// 1455     osal_mem_free( buf );
// 1456   }
// 1457   else
// 1458   {
// 1459     status = ZMemError;
// 1460   }
// 1461 
// 1462   return ( status );
// 1463 }
// 1464 
// 1465 /*********************************************************************
// 1466  * @fn      zcl_SendDiscoverRspCmd
// 1467  *
// 1468  * @brief   Send a Discover Response command
// 1469  *
// 1470  * @param   dstAddr - destination address
// 1471  * @param   clusterID - cluster ID
// 1472  * @param   reportRspCmd - report response command to be sent
// 1473  * @param   direction - direction of the command
// 1474  * @param   seqNum - transaction sequence number
// 1475  *
// 1476  * @return  ZSuccess if OK
// 1477  */
// 1478 ZStatus_t zcl_SendDiscoverRspCmd( uint8 srcEP, afAddrType_t *dstAddr,
// 1479                       uint16 clusterID, zclDiscoverRspCmd_t *discoverRspCmd,
// 1480                       uint8 direction, uint8 disableDefaultRsp, uint8 seqNum )
// 1481 {
// 1482   uint16 dataLen = 1; // Discovery complete
// 1483   uint8 *buf;
// 1484   ZStatus_t status;
// 1485 
// 1486   // calculate the size of the command
// 1487   dataLen += discoverRspCmd->numAttr * (2 + 1); // Attribute ID and Data Type
// 1488 
// 1489   buf = osal_mem_alloc( dataLen );
// 1490   if ( buf != NULL )
// 1491   {
// 1492     // Load the buffer - serially
// 1493     uint8 *pBuf = buf;
// 1494     *pBuf++ = discoverRspCmd->discComplete;
// 1495     for ( uint8 i = 0; i < discoverRspCmd->numAttr; i++ )
// 1496     {
// 1497       *pBuf++ = LO_UINT16(discoverRspCmd->attrList[i].attrID);
// 1498       *pBuf++ = HI_UINT16(discoverRspCmd->attrList[i].attrID);
// 1499       *pBuf++ = discoverRspCmd->attrList[i].dataType;
// 1500     }
// 1501 
// 1502     status = zcl_SendCommand( srcEP, dstAddr, clusterID, ZCL_CMD_DISCOVER_RSP, FALSE,
// 1503                               direction, disableDefaultRsp, 0, seqNum, dataLen, buf );
// 1504     osal_mem_free( buf );
// 1505   }
// 1506   else
// 1507   {
// 1508     status = ZMemError;
// 1509   }
// 1510 
// 1511   return ( status );
// 1512 }
// 1513 #endif // ZCL_DISCOVER
// 1514 
// 1515 /*********************************************************************
// 1516  * PRIVATE FUNCTIONS
// 1517  *********************************************************************/
// 1518 
// 1519 /*********************************************************************
// 1520  * @fn      zclProcessMessageMSG
// 1521  *
// 1522  * @brief   Data message processor callback.  This function processes
// 1523  *          any incoming data - probably from other devices.  So, based
// 1524  *          on cluster ID, perform the intended action.
// 1525  *
// 1526  * @param   pkt - incoming message
// 1527  *
// 1528  * @return  none
// 1529  */

        RSEG BANKED_CODE:CODE:NOROOT(0)
// 1530 void zclProcessMessageMSG( afIncomingMSGPacket_t *pkt )
zclProcessMessageMSG:
        CFI Block cfiBlock73 Using cfiCommon0
        CFI Function zclProcessMessageMSG
        CODE
// 1531 {
        FUNCALL zclProcessMessageMSG, zclParseHdr
        LOCFRAME ISTACK, 0, STACK
        LOCFRAME PSTACK, 0, STACK
        LOCFRAME XSTACK, 33, STACK
        LOCFRAME IOVERLAY, 0, STATIC
        LOCFRAME DOVERLAY, 0, STATIC
        ARGFRAME ISTACK, 0, STACK
        ARGFRAME PSTACK, 0, STACK
        ARGFRAME XSTACK, 33, STACK
        ARGFRAME IOVERLAY, 0, STATIC
        ARGFRAME DOVERLAY, 0, STATIC
        FUNCALL zclProcessMessageMSG, afFindEndPointDesc
        LOCFRAME ISTACK, 0, STACK
        LOCFRAME PSTACK, 0, STACK
        LOCFRAME XSTACK, 33, STACK
        LOCFRAME IOVERLAY, 0, STATIC
        LOCFRAME DOVERLAY, 0, STATIC
        ARGFRAME ISTACK, 0, STACK
        ARGFRAME PSTACK, 0, STACK
        ARGFRAME XSTACK, 33, STACK
        ARGFRAME IOVERLAY, 0, STATIC
        ARGFRAME DOVERLAY, 0, STATIC
        FUNCALL zclProcessMessageMSG, zcl_DeviceOperational
        LOCFRAME ISTACK, 0, STACK
        LOCFRAME PSTACK, 0, STACK
        LOCFRAME XSTACK, 35, STACK
        LOCFRAME IOVERLAY, 0, STATIC
        LOCFRAME DOVERLAY, 0, STATIC
        ARGFRAME ISTACK, 0, STACK
        ARGFRAME PSTACK, 0, STACK
        ARGFRAME XSTACK, 35, STACK
        ARGFRAME IOVERLAY, 0, STATIC
        ARGFRAME DOVERLAY, 0, STATIC
        FUNCALL zclProcessMessageMSG, zclGetClusterOption
        LOCFRAME ISTACK, 0, STACK
        LOCFRAME PSTACK, 0, STACK
        LOCFRAME XSTACK, 33, STACK
        LOCFRAME IOVERLAY, 0, STATIC
        LOCFRAME DOVERLAY, 0, STATIC
        ARGFRAME ISTACK, 0, STACK
        ARGFRAME PSTACK, 0, STACK
        ARGFRAME XSTACK, 33, STACK
        ARGFRAME IOVERLAY, 0, STATIC
        ARGFRAME DOVERLAY, 0, STATIC
        FUNCALL zclProcessMessageMSG, zclSetSecurityOption
        LOCFRAME ISTACK, 0, STACK
        LOCFRAME PSTACK, 0, STACK
        LOCFRAME XSTACK, 33, STACK
        LOCFRAME IOVERLAY, 0, STATIC
        LOCFRAME DOVERLAY, 0, STATIC
        ARGFRAME ISTACK, 0, STACK
        ARGFRAME PSTACK, 0, STACK
        ARGFRAME XSTACK, 33, STACK
        ARGFRAME IOVERLAY, 0, STATIC
        ARGFRAME DOVERLAY, 0, STATIC
        FUNCALL zclProcessMessageMSG, zcl_SendDefaultRspCmd
        LOCFRAME ISTACK, 0, STACK
        LOCFRAME PSTACK, 0, STACK
        LOCFRAME XSTACK, 40, STACK
        LOCFRAME IOVERLAY, 0, STATIC
        LOCFRAME DOVERLAY, 0, STATIC
        ARGFRAME ISTACK, 0, STACK
        ARGFRAME PSTACK, 0, STACK
        ARGFRAME XSTACK, 40, STACK
        ARGFRAME IOVERLAY, 0, STATIC
        ARGFRAME DOVERLAY, 0, STATIC
        FUNCALL zclProcessMessageMSG, zclSetSecurityOption
        LOCFRAME ISTACK, 0, STACK
        LOCFRAME PSTACK, 0, STACK
        LOCFRAME XSTACK, 33, STACK
        LOCFRAME IOVERLAY, 0, STATIC
        LOCFRAME DOVERLAY, 0, STATIC
        ARGFRAME ISTACK, 0, STACK
        ARGFRAME PSTACK, 0, STACK
        ARGFRAME XSTACK, 33, STACK
        ARGFRAME IOVERLAY, 0, STATIC
        ARGFRAME DOVERLAY, 0, STATIC
        FUNCALL zclProcessMessageMSG, osal_mem_free
        LOCFRAME ISTACK, 0, STACK
        LOCFRAME PSTACK, 0, STACK
        LOCFRAME XSTACK, 33, STACK
        LOCFRAME IOVERLAY, 0, STATIC
        LOCFRAME DOVERLAY, 0, STATIC
        ARGFRAME ISTACK, 0, STACK
        ARGFRAME PSTACK, 0, STACK
        ARGFRAME XSTACK, 33, STACK
        ARGFRAME IOVERLAY, 0, STATIC
        ARGFRAME DOVERLAY, 0, STATIC
        FUNCALL zclProcessMessageMSG, zcl_SendDefaultRspCmd
        LOCFRAME ISTACK, 0, STACK
        LOCFRAME PSTACK, 0, STACK
        LOCFRAME XSTACK, 40, STACK
        LOCFRAME IOVERLAY, 0, STATIC
        LOCFRAME DOVERLAY, 0, STATIC
        ARGFRAME ISTACK, 0, STACK
        ARGFRAME PSTACK, 0, STACK
        ARGFRAME XSTACK, 40, STACK
        ARGFRAME IOVERLAY, 0, STATIC
        ARGFRAME DOVERLAY, 0, STATIC
        MOV     A,#-0xc
        LCALL   ?BANKED_ENTER_XDATA
        CFI DPH0 load(1, XDATA, add(CFA_XSP16, literal(-1)))
        CFI DPL0 load(1, XDATA, add(CFA_XSP16, literal(-2)))
        CFI ?BRET_EXT load(1, XDATA, add(CFA_XSP16, literal(-3)))
        CFI ?RET_HIGH load(1, XDATA, add(CFA_XSP16, literal(-4)))
        CFI ?RET_LOW load(1, XDATA, add(CFA_XSP16, literal(-5)))
        CFI R7 load(1, XDATA, add(CFA_XSP16, literal(-6)))
        CFI V3 load(1, XDATA, add(CFA_XSP16, literal(-7)))
        CFI V2 load(1, XDATA, add(CFA_XSP16, literal(-8)))
        CFI V1 load(1, XDATA, add(CFA_XSP16, literal(-9)))
        CFI V0 load(1, XDATA, add(CFA_XSP16, literal(-10)))
        CFI VB load(1, XDATA, add(CFA_XSP16, literal(-11)))
        CFI R6 load(1, XDATA, add(CFA_XSP16, literal(-12)))
        CFI CFA_SP SP+0
        CFI CFA_XSP16 add(XSP16, 12)
        ; Saved register size: 12
        ; Auto size: 21
        MOV     A,#-0x15
        LCALL   ?ALLOC_XSTACK8
        CFI CFA_XSP16 add(XSP16, 33)
        MOV     A,R2
        MOV     R6,A
        MOV     A,R3
        MOV     R7,A
// 1532   endPointDesc_t *epDesc;
// 1533   zclIncoming_t inMsg;
// 1534   zclLibPlugin_t *pInPlugin;
// 1535   zclDefaultRspCmd_t defautlRspCmd;
// 1536   uint8 options;
// 1537   uint8 securityEnable;
// 1538   uint8 interPanMsg;
// 1539   ZStatus_t status = ZFailure;
// 1540 
// 1541   if ( pkt->cmd.DataLength == 0 )
        LCALL   ?Subroutine36 & 0xFFFF
??CrossCallReturnLabel_60:
        LCALL   ??Subroutine61_0 & 0xFFFF
??CrossCallReturnLabel_120:
        JNZ     $+5
        LJMP    ??zclProcessMessageMSG_0 & 0xFFFF
// 1542   {
// 1543     return;   // Error, ignore the message
// 1544   }
// 1545 
// 1546   // Initialize
// 1547   inMsg.msg = pkt;
        MOV     DPL,?XSP + 0
        MOV     DPH,?XSP + 1
        MOV     A,R6
        MOVX    @DPTR,A
        INC     DPTR
        MOV     A,R7
        MOVX    @DPTR,A
// 1548   inMsg.attrCmd = NULL;
        MOV     A,#0xc
        LCALL   ?XSTACK_DISP0_8
        CLR     A
        MOVX    @DPTR,A
        INC     DPTR
        MOVX    @DPTR,A
// 1549   inMsg.pData = NULL;
        MOV     A,#0x8
        LCALL   ?XSTACK_DISP0_8
        CLR     A
        MOVX    @DPTR,A
        INC     DPTR
        MOVX    @DPTR,A
// 1550   inMsg.pDataLen = 0;
        MOV     A,#0xa
        LCALL   ?XSTACK_DISP0_8
        CLR     A
        MOVX    @DPTR,A
        INC     DPTR
        MOVX    @DPTR,A
// 1551 
// 1552   inMsg.pData = zclParseHdr( &(inMsg.hdr), pkt->cmd.Data );
        MOV     A,R6
        ADD     A,#0x22
        LCALL   ?Subroutine38 & 0xFFFF
??CrossCallReturnLabel_64:
        LCALL   ??Subroutine64_0 & 0xFFFF
??CrossCallReturnLabel_138:
        MOV     A,#0x2
        LCALL   ?XSTACK_DISP0_8
        MOV     R2,DPL
        MOV     R3,DPH
        LCALL   ??zclParseHdr?relay
        MOV     ?V0 + 2,R2
        MOV     ?V0 + 3,R3
        MOV     R0,?V0 + 2
        MOV     R1,?V0 + 3
        MOV     A,#0x8
        LCALL   ?XSTACK_DISP0_8
        LCALL   ?Subroutine15 & 0xFFFF
// 1553   inMsg.pDataLen = pkt->cmd.DataLength;
// 1554   inMsg.pDataLen -= (uint16)(inMsg.pData - pkt->cmd.Data);
??CrossCallReturnLabel_110:
        LCALL   ?Subroutine36 & 0xFFFF
??CrossCallReturnLabel_61:
        LCALL   ??Subroutine62_0 & 0xFFFF
??CrossCallReturnLabel_127:
        MOV     A,R2
        CLR     C
        SUBB    A,R0
        MOV     R0,A
        MOV     A,R3
        SUBB    A,R1
        MOV     R1,A
        MOV     DPL,?V0 + 0
        MOV     DPH,?V0 + 1
        MOVX    A,@DPTR
        ADD     A,R0
        MOV     R0,A
        INC     DPTR
        MOVX    A,@DPTR
        ADDC    A,R1
        MOV     R1,A
        MOV     A,#0xa
        LCALL   ?XSTACK_DISP0_8
        LCALL   ?Subroutine15 & 0xFFFF
// 1555 
// 1556   // Find the wanted endpoint
// 1557   epDesc = afFindEndPointDesc( pkt->endPoint );
??CrossCallReturnLabel_111:
        ; Setup parameters for call to function afFindEndPointDesc
        LCALL   ?Subroutine40 & 0xFFFF
??CrossCallReturnLabel_68:
        MOV     R1,A
        LCALL   ??afFindEndPointDesc?relay
// 1558   if ( epDesc == NULL )
        MOV     A,R2
        ORL     A,R3
        JNZ     $+5
        LJMP    ??zclProcessMessageMSG_0 & 0xFFFF
// 1559   {
// 1560     return;   // Error, ignore the message
// 1561   }
// 1562 
// 1563   if ( ( epDesc->simpleDesc == NULL ) ||
// 1564        ( zcl_DeviceOperational( pkt->endPoint, pkt->clusterId, inMsg.hdr.fc.type,
// 1565                                 inMsg.hdr.commandID, epDesc->simpleDesc->AppProfId ) == FALSE ) )
        MOV     DPL,R2
        MOV     DPH,R3
        INC     DPTR
        LCALL   ??Subroutine60_0 & 0xFFFF
??CrossCallReturnLabel_123:
        JNZ     $+5
        LJMP    ??zclProcessMessageMSG_0 & 0xFFFF
        ; Setup parameters for call to function zcl_DeviceOperational
        MOV     DPL,R2
        MOV     DPH,R3
        LCALL   ?Subroutine47 & 0xFFFF
??CrossCallReturnLabel_94:
        LCALL   ?PUSH_XSTACK8_X_TWO
        CFI CFA_XSP16 add(XSP16, 35)
        MOV     A,#0x9
        LCALL   ?XSTACK_DISP0_8
        MOVX    A,@DPTR
        MOV     R5,A
        MOV     A,#0x4
        LCALL   ?XSTACK_DISP0_8
        MOVX    A,@DPTR
        ANL     A,#0x3
        MOV     R4,A
        MOV     DPL,R6
        MOV     DPH,R7
        INC     DPTR
        INC     DPTR
        INC     DPTR
        INC     DPTR
        LCALL   ?Subroutine23 & 0xFFFF
??CrossCallReturnLabel_37:
        LCALL   ??zcl_DeviceOperational?relay
        MOV     A,#0x2
        LCALL   ?DEALLOC_XSTACK8
        CFI CFA_XSP16 add(XSP16, 33)
        MOV     A,R1
        JNZ     $+5
        LJMP    ??zclProcessMessageMSG_0 & 0xFFFF
// 1566   {
// 1567     return; // Error, ignore the message
// 1568   }
// 1569 
// 1570 #if defined ( INTER_PAN )
// 1571   if ( StubAPS_InterPan( pkt->srcAddr.panId, pkt->srcAddr.endPoint ) )
// 1572   {
// 1573     // No foundation command is supported thru Inter-PAN communication.
// 1574     // But the Smart Light cluster uses a different Frame Control format
// 1575     // for it's Inter-PAN messages, where the messages could be confused
// 1576     // with the foundation commands.
// 1577     if ( !ZCL_CLUSTER_ID_SL( pkt->clusterId ) && zcl_ProfileCmd( inMsg.hdr.fc.type ) )
// 1578     {
// 1579       return;
// 1580     }
// 1581 
// 1582     interPanMsg = TRUE;
// 1583     options = AF_TX_OPTIONS_NONE;
// 1584   }
// 1585   else
// 1586 #endif
// 1587   {
// 1588     interPanMsg = FALSE;
// 1589     options = zclGetClusterOption( pkt->endPoint, pkt->clusterId );
        MOV     A,R6
        ADD     A,#0x4
        LCALL   ?Subroutine38 & 0xFFFF
// 1590   }
??CrossCallReturnLabel_65:
        LCALL   ?Subroutine23 & 0xFFFF
??CrossCallReturnLabel_38:
        LCALL   ??zclGetClusterOption?relay
        MOV     A,R1
        MOV     ?V0 + 2,A
// 1591 
// 1592   // Find the appropriate plugin
// 1593   pInPlugin = zclFindPlugin( pkt->clusterId, epDesc->simpleDesc->AppProfId );
        MOV     DPL,?V0 + 0
        MOV     DPH,?V0 + 1
        LCALL   ??Subroutine62_0 & 0xFFFF
??CrossCallReturnLabel_128:
        MOV     DPTR,#plugins
        SJMP    ??zclProcessMessageMSG_1
??zclProcessMessageMSG_2:
        MOV     DPL,R0
        MOV     DPH,R1
??zclProcessMessageMSG_1:
        LCALL   ??Subroutine61_0 & 0xFFFF
??CrossCallReturnLabel_118:
        JZ      ??zclProcessMessageMSG_3
        MOV     DPL,R0
        MOV     DPH,R1
        LCALL   ?Subroutine46 & 0xFFFF
??CrossCallReturnLabel_141:
        CLR     C
        MOV     A,R2
        SUBB    A,R4
        MOV     A,R3
        SUBB    A,R5
        JC      ??zclProcessMessageMSG_2
        MOV     DPL,R0
        MOV     DPH,R1
        INC     DPTR
        INC     DPTR
        INC     DPTR
        INC     DPTR
        CLR     C
        MOVX    A,@DPTR
        SUBB    A,R2
        INC     DPTR
        MOVX    A,@DPTR
        SUBB    A,R3
        JC      ??zclProcessMessageMSG_2
        SJMP    ??zclProcessMessageMSG_4
??zclProcessMessageMSG_3:
        MOV     R0,#0x0
        MOV     R1,#0x0
// 1594 
// 1595   // Local and remote Security options must match except for Default Response command
// 1596   if ( ( pInPlugin != NULL ) && !zcl_DefaultRspCmd( inMsg.hdr ) )
??zclProcessMessageMSG_4:
        MOV     A,R0
        ORL     A,R1
        JNZ     $+5
        LJMP    ??zclProcessMessageMSG_5 & 0xFFFF
        MOV     A,#0x2
        LCALL   ?XSTACK_DISP0_8
        MOVX    A,@DPTR
        ANL     A,#0x7
        JNZ     ??zclProcessMessageMSG_6
        MOV     A,#0x7
        LCALL   ?XSTACK_DISP0_8
        MOVX    A,@DPTR
        XRL     A,#0xb
        JNZ     $+5
        LJMP    ??zclProcessMessageMSG_5 & 0xFFFF
// 1597   {
// 1598     securityEnable = ( options & AF_EN_SECURITY ) ? TRUE : FALSE;
??zclProcessMessageMSG_6:
        MOV     A,?V0 + 2
        MOV     C,0xE0 /* A   */.6
        JNC     ??zclProcessMessageMSG_7
        SETB    B.0
        SJMP    ??zclProcessMessageMSG_8
??zclProcessMessageMSG_7:
        CLR     B.0
??zclProcessMessageMSG_8:
        MOV     C,B.0
        CLR     A
        RLC     A
        MOV     ?V0 + 0,A
// 1599     if ( pkt->SecurityUse != securityEnable )
        MOV     A,R6
        ADD     A,#0x19
        LCALL   ??Subroutine55_0 & 0xFFFF
??CrossCallReturnLabel_97:
        MOVX    A,@DPTR
        XRL     A,?V0 + 0
        JNZ     $+5
        LJMP    ??zclProcessMessageMSG_5 & 0xFFFF
// 1600     {
// 1601       if ( UNICAST_MSG( inMsg.msg ) )
        LCALL   ?Subroutine25 & 0xFFFF
??CrossCallReturnLabel_102:
        JZ      $+5
        LJMP    ??zclProcessMessageMSG_0 & 0xFFFF
        LCALL   ?Subroutine17 & 0xFFFF
??CrossCallReturnLabel_124:
        JZ      $+5
        LJMP    ??zclProcessMessageMSG_0 & 0xFFFF
// 1602       {
// 1603         // Send a Default Response command back with no Application Link Key security
// 1604         if ( securityEnable )
        MOV     A,?V0 + 0
        MOV     C,0xE0 /* A   */.0
        JNC     ??CrossCallReturnLabel_26
// 1605         {
// 1606           zclSetSecurityOption( pkt->endPoint, pkt->clusterId, FALSE );
        ; Setup parameters for call to function zclSetSecurityOption
        MOV     R4,#0x0
        LCALL   ?Subroutine19 & 0xFFFF
// 1607         }
// 1608 
// 1609         defautlRspCmd.statusCode = status;
??CrossCallReturnLabel_26:
        MOV     A,#0xf
        LCALL   ?XSTACK_DISP0_8
        MOV     A,#0x1
        MOVX    @DPTR,A
// 1610         defautlRspCmd.commandID = inMsg.hdr.commandID;
        MOV     A,#0x7
        LCALL   ?XSTACK_DISP0_8
        MOVX    A,@DPTR
        PUSH    A
        CFI CFA_SP SP+-1
        MOV     A,#0xe
        LCALL   ?XSTACK_DISP0_8
        POP     A
        CFI CFA_SP SP+0
        MOVX    @DPTR,A
// 1611         zcl_SendDefaultRspCmd( inMsg.msg->endPoint, &(inMsg.msg->srcAddr),
// 1612                                inMsg.msg->clusterId, &defautlRspCmd,
// 1613                                ZCL_FRAME_SERVER_CLIENT_DIR, true,
// 1614                                inMsg.hdr.manuCode, inMsg.hdr.transSeqNum );
        ; Setup parameters for call to function zcl_SendDefaultRspCmd
        MOV     A,#0x6
        LCALL   ?XSTACK_DISP0_8
        MOVX    A,@DPTR
        MOV     ?V0 + 1,A
        MOV     R0,#?V0 + 1
        LCALL   ?PUSH_XSTACK_I_ONE
        CFI CFA_XSP16 add(XSP16, 34)
        MOV     A,#0x5
        LCALL   ?XSTACK_DISP0_8
        LCALL   ?PUSH_XSTACK8_X_TWO
        CFI CFA_XSP16 add(XSP16, 36)
        MOV     ?V0 + 1,#0x1
        MOV     R0,#?V0 + 1
        LCALL   ?PUSH_XSTACK_I_ONE
        CFI CFA_XSP16 add(XSP16, 37)
        MOV     R0,#?V0 + 1
        LCALL   ?PUSH_XSTACK_I_ONE
        CFI CFA_XSP16 add(XSP16, 38)
        MOV     A,#0x13
        LCALL   ?XSTACK_DISP0_8
        MOV     ?V0 + 2,DPL
        MOV     ?V0 + 3,DPH
        MOV     R0,#?V0 + 2
        LCALL   ?PUSH_XSTACK_I_TWO
        CFI CFA_XSP16 add(XSP16, 40)
        MOV     A,#0x7
        LCALL   ?XSTACK_DISP0_8
        LCALL   ?Subroutine22 & 0xFFFF
??CrossCallReturnLabel_35:
        LCALL   ?XSTACK_DISP0_8
        LCALL   ?Subroutine29 & 0xFFFF
??CrossCallReturnLabel_48:
        LCALL   ?XSTACK_DISP0_8
        LCALL   ?Subroutine20 & 0xFFFF
??CrossCallReturnLabel_28:
        LCALL   ?DEALLOC_XSTACK8
        CFI CFA_XSP16 add(XSP16, 33)
// 1615         if ( securityEnable )
        MOV     A,?V0 + 0
        MOV     C,0xE0 /* A   */.0
        JC      $+5
        LJMP    ??zclProcessMessageMSG_0 & 0xFFFF
// 1616         {
// 1617           zclSetSecurityOption( pkt->endPoint, pkt->clusterId, TRUE );
        ; Setup parameters for call to function zclSetSecurityOption
        MOV     R4,#0x1
        LCALL   ?Subroutine19 & 0xFFFF
// 1618         }
// 1619       }
// 1620 
// 1621       return;   // Error, ignore the message
// 1622     }
// 1623   }
??CrossCallReturnLabel_27:
        LJMP    ??zclProcessMessageMSG_0 & 0xFFFF
// 1624 
// 1625   // Is this a foundation type message
// 1626   if ( !interPanMsg && zcl_ProfileCmd( inMsg.hdr.fc.type ) )
??zclProcessMessageMSG_5:
        MOV     A,#0x2
        LCALL   ?XSTACK_DISP0_8
        MOVX    A,@DPTR
        ANL     A,#0x3
        JZ      $+5
        LJMP    ??zclProcessMessageMSG_9 & 0xFFFF
// 1627   {
// 1628     if ( inMsg.hdr.fc.manuSpecific )
        MOVX    A,@DPTR
        ANL     A,#0x4
        JZ      ??zclProcessMessageMSG_10
// 1629     {
// 1630       // We don't support any manufacturer specific command
// 1631       status = ZCL_STATUS_UNSUP_MANU_GENERAL_COMMAND;
        MOV     R2,#-0x7c
        LJMP    ??zclProcessMessageMSG_11 & 0xFFFF
// 1632     }
// 1633     else if ( ( inMsg.hdr.commandID <= ZCL_CMD_MAX ) &&
// 1634               ( zclCmdTable[inMsg.hdr.commandID].pfnParseInProfile != NULL ) )
??zclProcessMessageMSG_10:
        MOV     A,#0x7
        LCALL   ?XSTACK_DISP0_8
        MOVX    A,@DPTR
        CLR     C
        SUBB    A,#0xe
        JC      $+5
        LJMP    ??zclProcessMessageMSG_12 & 0xFFFF
        LCALL   ?Subroutine18 & 0xFFFF
??CrossCallReturnLabel_22:
        LCALL   ?S_SHL
        MOV     A,#zclCmdTable & 0xff
        ADD     A,?V0 + 0
        MOV     DPL,A
        MOV     A,#(zclCmdTable >> 8) & 0xff
        LCALL   ?Subroutine37 & 0xFFFF
??CrossCallReturnLabel_62:
        JNZ     $+5
        LJMP    ??zclProcessMessageMSG_12 & 0xFFFF
// 1635     {
// 1636       zclParseCmd_t parseCmd;
// 1637 
// 1638       parseCmd.endpoint = pkt->endPoint;
        LCALL   ?Subroutine40 & 0xFFFF
??CrossCallReturnLabel_69:
        PUSH    A
        CFI CFA_SP SP+-1
        MOV     A,#0x10
        LCALL   ?XSTACK_DISP0_8
        POP     A
        CFI CFA_SP SP+0
        MOVX    @DPTR,A
// 1639       parseCmd.dataLen = inMsg.pDataLen;
        MOV     A,#0xa
        LCALL   ?XSTACK_DISP0_8
        LCALL   ?Subroutine28 & 0xFFFF
??CrossCallReturnLabel_44:
        MOV     A,#0x11
        LCALL   ?XSTACK_DISP0_8
        LCALL   ?Subroutine15 & 0xFFFF
// 1640       parseCmd.pData = inMsg.pData;
??CrossCallReturnLabel_112:
        MOV     A,#0x8
        LCALL   ?XSTACK_DISP0_8
        LCALL   ?Subroutine28 & 0xFFFF
??CrossCallReturnLabel_45:
        MOV     A,#0x13
        LCALL   ?XSTACK_DISP0_8
        LCALL   ?Subroutine15 & 0xFFFF
// 1641 
// 1642       // Parse the command, remember that the return value is a pointer to allocated memory
// 1643       inMsg.attrCmd = zclParseCmd( inMsg.hdr.commandID, &parseCmd );
??CrossCallReturnLabel_113:
        ; Setup parameters for indirect call
        MOV     A,#0x10
        LCALL   ?XSTACK_DISP0_8
        MOV     R2,DPL
        MOV     R3,DPH
        MOV     A,#0x7
        LCALL   ?XSTACK_DISP0_8
        LCALL   ?Subroutine18 & 0xFFFF
??CrossCallReturnLabel_23:
        LCALL   ?S_SHL
        MOV     A,#zclCmdTable & 0xff
        ADD     A,?V0 + 0
        MOV     DPL,A
        MOV     A,#(zclCmdTable >> 8) & 0xff
        LCALL   ?Subroutine49 & 0xFFFF
??CrossCallReturnLabel_81:
        PUSH    A
        MOV     A,#0x1
        MOVC    A,@A+DPTR
        MOV     DPH,A
        POP     DPL
        LCALL   ?CALL_IND
        MOV     ?V0 + 0,R2
        MOV     ?V0 + 1,R3
        MOV     R0,?V0 + 0
        MOV     R1,?V0 + 1
        MOV     A,#0xc
        LCALL   ?XSTACK_DISP0_8
        LCALL   ?Subroutine15 & 0xFFFF
// 1644       if ( (inMsg.attrCmd != NULL) && (zclCmdTable[inMsg.hdr.commandID].pfnProcessInProfile != NULL) )
??CrossCallReturnLabel_114:
        MOV     A,R0
        ORL     A,R1
        JZ      ??zclProcessMessageMSG_13
        MOV     A,#0x7
        LCALL   ?XSTACK_DISP0_8
        LCALL   ?Subroutine18 & 0xFFFF
??CrossCallReturnLabel_24:
        LCALL   ?S_SHL
        MOV     A,#(zclCmdTable + 2) & 0xff
        ADD     A,?V0 + 0
        MOV     DPL,A
        MOV     A,#((zclCmdTable + 2) >> 8) & 0xff
        LCALL   ?Subroutine37 & 0xFFFF
??CrossCallReturnLabel_63:
        JZ      ??zclProcessMessageMSG_14
// 1645       {
// 1646         // Process the command
// 1647         if ( zclProcessCmd( inMsg.hdr.commandID, &inMsg ) == FALSE )
        ; Setup parameters for indirect call
        MOV     DPL,?XSP + 0
        MOV     DPH,?XSP + 1
        MOV     R2,DPL
        MOV     R3,DPH
        MOV     A,#0x7
        LCALL   ?XSTACK_DISP0_8
        LCALL   ?Subroutine18 & 0xFFFF
// 1648         {
// 1649           // Couldn't find attribute in the table.
// 1650         }
// 1651       }
??CrossCallReturnLabel_25:
        LCALL   ?S_SHL
        MOV     A,#(zclCmdTable + 2) & 0xff
        ADD     A,?V0 + 0
        MOV     DPL,A
        MOV     A,#((zclCmdTable + 2) >> 8) & 0xff
        LCALL   ?Subroutine49 & 0xFFFF
??CrossCallReturnLabel_82:
        PUSH    A
        MOV     A,#0x1
        MOVC    A,@A+DPTR
        MOV     DPH,A
        POP     DPL
        LCALL   ?CALL_IND
// 1652 
// 1653       // Free the buffer
// 1654       if ( inMsg.attrCmd )
        MOV     A,#0xc
        LCALL   ?XSTACK_DISP0_8
        LCALL   ??Subroutine61_0 & 0xFFFF
??CrossCallReturnLabel_121:
        JZ      ??zclProcessMessageMSG_13
// 1655       {
// 1656         osal_mem_free( inMsg.attrCmd );
??zclProcessMessageMSG_14:
        ; Setup parameters for call to function osal_mem_free
        MOV     A,#0xc
        LCALL   ?XSTACK_DISP0_8
        LCALL   ??Subroutine62_0 & 0xFFFF
// 1657       }
??CrossCallReturnLabel_129:
        LCALL   ??osal_mem_free?relay
// 1658 
// 1659       if ( CMD_HAS_RSP( inMsg.hdr.commandID ) )
??zclProcessMessageMSG_13:
        MOV     A,#0x7
        LCALL   ?XSTACK_DISP0_8
        MOVX    A,@DPTR
        JNZ     $+5
        LJMP    ??zclProcessMessageMSG_0 & 0xFFFF
        XRL     A,#0x2
        JNZ     $+5
        LJMP    ??zclProcessMessageMSG_0 & 0xFFFF
        MOVX    A,@DPTR
        XRL     A,#0x3
        JNZ     $+5
        LJMP    ??zclProcessMessageMSG_0 & 0xFFFF
        MOVX    A,@DPTR
        XRL     A,#0x6
        JNZ     $+5
        LJMP    ??zclProcessMessageMSG_0 & 0xFFFF
        MOVX    A,@DPTR
        XRL     A,#0x8
        JNZ     $+5
        LJMP    ??zclProcessMessageMSG_0 & 0xFFFF
        MOVX    A,@DPTR
        XRL     A,#0xc
        JNZ     $+5
        LJMP    ??zclProcessMessageMSG_0 & 0xFFFF
        MOVX    A,@DPTR
        XRL     A,#0xb
        JNZ     $+5
        LJMP    ??zclProcessMessageMSG_0 & 0xFFFF
// 1660       {
// 1661         return; // We're done
// 1662       }
// 1663 
// 1664       status = ZSuccess;
        MOV     R2,#0x0
        SJMP    ??zclProcessMessageMSG_11
// 1665     }
// 1666     else
// 1667     {
// 1668       // Unsupported message
// 1669       status = ZCL_STATUS_UNSUP_GENERAL_COMMAND;
??zclProcessMessageMSG_12:
        MOV     R2,#-0x7e
        SJMP    ??zclProcessMessageMSG_11
// 1670     }
// 1671   }
// 1672   else  // Not a foundation type message, so it must be specific to the cluster ID.
// 1673   {
// 1674     if ( pInPlugin && pInPlugin->pfnIncomingHdlr )
??zclProcessMessageMSG_9:
        MOV     A,R0
        ORL     A,R1
        JZ      ??zclProcessMessageMSG_15
        MOV     DPL,R0
        MOV     DPH,R1
        INC     DPTR
        INC     DPTR
        INC     DPTR
        INC     DPTR
        INC     DPTR
        INC     DPTR
        LCALL   ?Subroutine21 & 0xFFFF
??CrossCallReturnLabel_34:
        JZ      ??zclProcessMessageMSG_15
// 1675     {
// 1676       // The return value of the plugin function will be
// 1677       //  ZSuccess - Supported and need default response
// 1678       //  ZFailure - Unsupported
// 1679       //  ZCL_STATUS_CMD_HAS_RSP - Supported and do not need default rsp
// 1680       //  ZCL_STATUS_INVALID_FIELD - Supported, but the incoming msg is wrong formatted
// 1681       //  ZCL_STATUS_INVALID_VALUE - Supported, but the request not achievable by the h/w
// 1682       //  ZCL_STATUS_SOFTWARE_FAILURE - Supported but ZStack memory allocation fails
// 1683       status = pInPlugin->pfnIncomingHdlr( &inMsg );
        ; Setup parameters for indirect call
        MOV     DPL,?XSP + 0
        MOV     DPH,?XSP + 1
        MOV     R2,DPL
        MOV     R3,DPH
        MOV     DPL,R0
        MOV     DPH,R1
        INC     DPTR
        INC     DPTR
        INC     DPTR
        INC     DPTR
        INC     DPTR
        INC     DPTR
        LCALL   ?Subroutine45 & 0xFFFF
??CrossCallReturnLabel_78:
        LCALL   ?CALL_IND
        MOV     A,R1
        MOV     R2,A
// 1684       if ( status == ZCL_STATUS_CMD_HAS_RSP || ( interPanMsg && status == ZSuccess ) )
        MOV     A,#-0x1
        XRL     A,R2
        JNZ     $+5
        LJMP    ??zclProcessMessageMSG_0 & 0xFFFF
// 1685       {
// 1686         return; // We're done
// 1687       }
// 1688     }
// 1689 
// 1690     if ( status == ZFailure )
        MOV     A,#0x1
        XRL     A,R2
        JNZ     ??zclProcessMessageMSG_11
// 1691     {
// 1692       // Unsupported message
// 1693       if ( inMsg.hdr.fc.manuSpecific )
??zclProcessMessageMSG_15:
        MOV     A,#0x2
        LCALL   ?XSTACK_DISP0_8
        MOVX    A,@DPTR
        ANL     A,#0x4
        JZ      ??zclProcessMessageMSG_16
// 1694       {
// 1695         status = ZCL_STATUS_UNSUP_MANU_CLUSTER_COMMAND;
        MOV     R2,#-0x7d
        SJMP    ??zclProcessMessageMSG_11
// 1696       }
// 1697       else
// 1698       {
// 1699         status = ZCL_STATUS_UNSUP_CLUSTER_COMMAND;
??zclProcessMessageMSG_16:
        MOV     R2,#-0x7f
// 1700       }
// 1701     }
// 1702   }
// 1703 
// 1704   if ( UNICAST_MSG( inMsg.msg ) && inMsg.hdr.fc.disableDefaultRsp == 0 )
??zclProcessMessageMSG_11:
        LCALL   ?Subroutine25 & 0xFFFF
??CrossCallReturnLabel_103:
        JNZ     ??zclProcessMessageMSG_0
        LCALL   ?Subroutine17 & 0xFFFF
??CrossCallReturnLabel_125:
        JNZ     ??zclProcessMessageMSG_0
        MOV     A,#0x2
        LCALL   ?XSTACK_DISP0_8
        MOVX    A,@DPTR
        ANL     A,#0x10
        JNZ     ??zclProcessMessageMSG_0
// 1705   {
// 1706     // Send a Default Response command back
// 1707     defautlRspCmd.statusCode = status;
        MOV     A,#0xf
        LCALL   ?XSTACK_DISP0_8
        MOV     A,R2
        MOVX    @DPTR,A
// 1708     defautlRspCmd.commandID = inMsg.hdr.commandID;
        MOV     A,#0x7
        LCALL   ?XSTACK_DISP0_8
        MOVX    A,@DPTR
        PUSH    A
        CFI CFA_SP SP+-1
        MOV     A,#0xe
        LCALL   ?XSTACK_DISP0_8
        POP     A
        CFI CFA_SP SP+0
        MOVX    @DPTR,A
// 1709     zcl_SendDefaultRspCmd( inMsg.msg->endPoint, &(inMsg.msg->srcAddr),
// 1710                            inMsg.msg->clusterId, &defautlRspCmd,
// 1711                            ZCL_FRAME_SERVER_CLIENT_DIR, true,
// 1712                            inMsg.hdr.manuCode, inMsg.hdr.transSeqNum );
        ; Setup parameters for call to function zcl_SendDefaultRspCmd
        MOV     A,#0x6
        LCALL   ?XSTACK_DISP0_8
        MOVX    A,@DPTR
        MOV     ?V0 + 0,A
        MOV     R0,#?V0 + 0
        LCALL   ?PUSH_XSTACK_I_ONE
        CFI CFA_XSP16 add(XSP16, 34)
        MOV     A,#0x5
        LCALL   ?XSTACK_DISP0_8
        LCALL   ?PUSH_XSTACK8_X_TWO
        CFI CFA_XSP16 add(XSP16, 36)
        MOV     ?V0 + 0,#0x1
        MOV     R0,#?V0 + 0
        LCALL   ?PUSH_XSTACK_I_ONE
        CFI CFA_XSP16 add(XSP16, 37)
        MOV     R0,#?V0 + 0
        LCALL   ?PUSH_XSTACK_I_ONE
        CFI CFA_XSP16 add(XSP16, 38)
        MOV     A,#0x13
        LCALL   ?XSTACK_DISP0_8
        MOV     ?V0 + 0,DPL
        MOV     ?V0 + 1,DPH
        MOV     R0,#?V0 + 0
        LCALL   ?PUSH_XSTACK_I_TWO
        CFI CFA_XSP16 add(XSP16, 40)
        MOV     A,#0x7
        LCALL   ?XSTACK_DISP0_8
        LCALL   ?Subroutine22 & 0xFFFF
// 1713   }
??CrossCallReturnLabel_36:
        LCALL   ?XSTACK_DISP0_8
        LCALL   ?Subroutine29 & 0xFFFF
??CrossCallReturnLabel_49:
        LCALL   ?XSTACK_DISP0_8
        LCALL   ?Subroutine20 & 0xFFFF
??CrossCallReturnLabel_29:
        LCALL   ?DEALLOC_XSTACK8
        CFI CFA_XSP16 add(XSP16, 33)
??zclProcessMessageMSG_0:
        MOV     A,#0x15
        LCALL   ?DEALLOC_XSTACK8
        CFI CFA_XSP16 add(XSP16, 12)
        LJMP    ?Subroutine1 & 0xFFFF
        CFI EndBlock cfiBlock73
// 1714 }

        RSEG BANKED_CODE:CODE:NOROOT(0)
?Subroutine40:
        CFI Block cfiCond74 Using cfiCommon0
        CFI NoFunction
        CFI Conditional ??CrossCallReturnLabel_68
        CFI R6 load(1, XDATA, add(CFA_XSP16, literal(-12)))
        CFI VB load(1, XDATA, add(CFA_XSP16, literal(-11)))
        CFI V0 load(1, XDATA, add(CFA_XSP16, literal(-10)))
        CFI V1 load(1, XDATA, add(CFA_XSP16, literal(-9)))
        CFI V2 load(1, XDATA, add(CFA_XSP16, literal(-8)))
        CFI V3 load(1, XDATA, add(CFA_XSP16, literal(-7)))
        CFI R7 load(1, XDATA, add(CFA_XSP16, literal(-6)))
        CFI ?RET_LOW load(1, XDATA, add(CFA_XSP16, literal(-5)))
        CFI ?RET_HIGH load(1, XDATA, add(CFA_XSP16, literal(-4)))
        CFI ?BRET_EXT load(1, XDATA, add(CFA_XSP16, literal(-3)))
        CFI DPL0 load(1, XDATA, add(CFA_XSP16, literal(-2)))
        CFI DPH0 load(1, XDATA, add(CFA_XSP16, literal(-1)))
        CFI CFA_SP SP+0
        CFI CFA_XSP16 add(XSP16, 33)
        CFI Block cfiCond75 Using cfiCommon0
        CFI (cfiCond75) NoFunction
        CFI (cfiCond75) Conditional ??CrossCallReturnLabel_69
        CFI (cfiCond75) R6 load(1, XDATA, add(CFA_XSP16, literal(-12)))
        CFI (cfiCond75) VB load(1, XDATA, add(CFA_XSP16, literal(-11)))
        CFI (cfiCond75) V0 load(1, XDATA, add(CFA_XSP16, literal(-10)))
        CFI (cfiCond75) V1 load(1, XDATA, add(CFA_XSP16, literal(-9)))
        CFI (cfiCond75) V2 load(1, XDATA, add(CFA_XSP16, literal(-8)))
        CFI (cfiCond75) V3 load(1, XDATA, add(CFA_XSP16, literal(-7)))
        CFI (cfiCond75) R7 load(1, XDATA, add(CFA_XSP16, literal(-6)))
        CFI (cfiCond75) ?RET_LOW load(1, XDATA, add(CFA_XSP16, literal(-5)))
        CFI (cfiCond75) ?RET_HIGH load(1, XDATA, add(CFA_XSP16, literal(-4)))
        CFI (cfiCond75) ?BRET_EXT load(1, XDATA, add(CFA_XSP16, literal(-3)))
        CFI (cfiCond75) DPL0 load(1, XDATA, add(CFA_XSP16, literal(-2)))
        CFI (cfiCond75) DPH0 load(1, XDATA, add(CFA_XSP16, literal(-1)))
        CFI (cfiCond75) CFA_SP SP+0
        CFI (cfiCond75) CFA_XSP16 add(XSP16, 33)
        CFI Block cfiPicker76 Using cfiCommon1
        CFI (cfiPicker76) NoFunction
        CFI (cfiPicker76) Picker
        LCALL   ?Subroutine52 & 0xFFFF
??CrossCallReturnLabel_99:
        MOVX    A,@DPTR
        RET
        CFI EndBlock cfiCond74
        CFI EndBlock cfiCond75
        CFI EndBlock cfiPicker76

        RSEG BANKED_CODE:CODE:NOROOT(0)
?Subroutine38:
        CFI Block cfiCond77 Using cfiCommon0
        CFI NoFunction
        CFI Conditional ??CrossCallReturnLabel_64
        CFI R6 load(1, XDATA, add(CFA_XSP16, literal(-12)))
        CFI VB load(1, XDATA, add(CFA_XSP16, literal(-11)))
        CFI V0 load(1, XDATA, add(CFA_XSP16, literal(-10)))
        CFI V1 load(1, XDATA, add(CFA_XSP16, literal(-9)))
        CFI V2 load(1, XDATA, add(CFA_XSP16, literal(-8)))
        CFI V3 load(1, XDATA, add(CFA_XSP16, literal(-7)))
        CFI R7 load(1, XDATA, add(CFA_XSP16, literal(-6)))
        CFI ?RET_LOW load(1, XDATA, add(CFA_XSP16, literal(-5)))
        CFI ?RET_HIGH load(1, XDATA, add(CFA_XSP16, literal(-4)))
        CFI ?BRET_EXT load(1, XDATA, add(CFA_XSP16, literal(-3)))
        CFI DPL0 load(1, XDATA, add(CFA_XSP16, literal(-2)))
        CFI DPH0 load(1, XDATA, add(CFA_XSP16, literal(-1)))
        CFI CFA_SP SP+0
        CFI CFA_XSP16 add(XSP16, 33)
        CFI Block cfiCond78 Using cfiCommon0
        CFI (cfiCond78) NoFunction
        CFI (cfiCond78) Conditional ??CrossCallReturnLabel_65
        CFI (cfiCond78) R6 load(1, XDATA, add(CFA_XSP16, literal(-12)))
        CFI (cfiCond78) VB load(1, XDATA, add(CFA_XSP16, literal(-11)))
        CFI (cfiCond78) V0 load(1, XDATA, add(CFA_XSP16, literal(-10)))
        CFI (cfiCond78) V1 load(1, XDATA, add(CFA_XSP16, literal(-9)))
        CFI (cfiCond78) V2 load(1, XDATA, add(CFA_XSP16, literal(-8)))
        CFI (cfiCond78) V3 load(1, XDATA, add(CFA_XSP16, literal(-7)))
        CFI (cfiCond78) R7 load(1, XDATA, add(CFA_XSP16, literal(-6)))
        CFI (cfiCond78) ?RET_LOW load(1, XDATA, add(CFA_XSP16, literal(-5)))
        CFI (cfiCond78) ?RET_HIGH load(1, XDATA, add(CFA_XSP16, literal(-4)))
        CFI (cfiCond78) ?BRET_EXT load(1, XDATA, add(CFA_XSP16, literal(-3)))
        CFI (cfiCond78) DPL0 load(1, XDATA, add(CFA_XSP16, literal(-2)))
        CFI (cfiCond78) DPH0 load(1, XDATA, add(CFA_XSP16, literal(-1)))
        CFI (cfiCond78) CFA_SP SP+0
        CFI (cfiCond78) CFA_XSP16 add(XSP16, 33)
        CFI Block cfiPicker79 Using cfiCommon1
        CFI (cfiPicker79) NoFunction
        CFI (cfiPicker79) Picker
        MOV     R0,A
        MOV     A,R7
        ADDC    A,#0x0
        MOV     R1,A
        MOV     ?V0 + 0,R0
        MOV     ?V0 + 1,R1
        ; Setup parameters for call to function zclParseHdr
        ; Setup parameters for call to function zclGetClusterOption
        MOV     DPL,R0
        MOV     DPH,A
        RET
        CFI EndBlock cfiCond77
        CFI EndBlock cfiCond78
        CFI EndBlock cfiPicker79

        RSEG BANKED_CODE:CODE:NOROOT(0)
?Subroutine37:
        CFI Block cfiCond80 Using cfiCommon0
        CFI NoFunction
        CFI Conditional ??CrossCallReturnLabel_62
        CFI R6 load(1, XDATA, add(CFA_XSP16, literal(-12)))
        CFI VB load(1, XDATA, add(CFA_XSP16, literal(-11)))
        CFI V0 load(1, XDATA, add(CFA_XSP16, literal(-10)))
        CFI V1 load(1, XDATA, add(CFA_XSP16, literal(-9)))
        CFI V2 load(1, XDATA, add(CFA_XSP16, literal(-8)))
        CFI V3 load(1, XDATA, add(CFA_XSP16, literal(-7)))
        CFI R7 load(1, XDATA, add(CFA_XSP16, literal(-6)))
        CFI ?RET_LOW load(1, XDATA, add(CFA_XSP16, literal(-5)))
        CFI ?RET_HIGH load(1, XDATA, add(CFA_XSP16, literal(-4)))
        CFI ?BRET_EXT load(1, XDATA, add(CFA_XSP16, literal(-3)))
        CFI DPL0 load(1, XDATA, add(CFA_XSP16, literal(-2)))
        CFI DPH0 load(1, XDATA, add(CFA_XSP16, literal(-1)))
        CFI CFA_SP SP+0
        CFI CFA_XSP16 add(XSP16, 33)
        CFI Block cfiCond81 Using cfiCommon0
        CFI (cfiCond81) NoFunction
        CFI (cfiCond81) Conditional ??CrossCallReturnLabel_63
        CFI (cfiCond81) R6 load(1, XDATA, add(CFA_XSP16, literal(-12)))
        CFI (cfiCond81) VB load(1, XDATA, add(CFA_XSP16, literal(-11)))
        CFI (cfiCond81) V0 load(1, XDATA, add(CFA_XSP16, literal(-10)))
        CFI (cfiCond81) V1 load(1, XDATA, add(CFA_XSP16, literal(-9)))
        CFI (cfiCond81) V2 load(1, XDATA, add(CFA_XSP16, literal(-8)))
        CFI (cfiCond81) V3 load(1, XDATA, add(CFA_XSP16, literal(-7)))
        CFI (cfiCond81) R7 load(1, XDATA, add(CFA_XSP16, literal(-6)))
        CFI (cfiCond81) ?RET_LOW load(1, XDATA, add(CFA_XSP16, literal(-5)))
        CFI (cfiCond81) ?RET_HIGH load(1, XDATA, add(CFA_XSP16, literal(-4)))
        CFI (cfiCond81) ?BRET_EXT load(1, XDATA, add(CFA_XSP16, literal(-3)))
        CFI (cfiCond81) DPL0 load(1, XDATA, add(CFA_XSP16, literal(-2)))
        CFI (cfiCond81) DPH0 load(1, XDATA, add(CFA_XSP16, literal(-1)))
        CFI (cfiCond81) CFA_SP SP+0
        CFI (cfiCond81) CFA_XSP16 add(XSP16, 33)
        CFI Block cfiPicker82 Using cfiCommon1
        CFI (cfiPicker82) NoFunction
        CFI (cfiPicker82) Picker
        LCALL   ?Subroutine49 & 0xFFFF
??CrossCallReturnLabel_83:
        MOV     R0,A
        MOV     A,#0x1
        MOVC    A,@A+DPTR
        MOV     R1,A
        MOV     A,R0
        ORL     A,R1
        RET
        CFI EndBlock cfiCond80
        CFI EndBlock cfiCond81
        CFI EndBlock cfiPicker82

        RSEG BANKED_CODE:CODE:NOROOT(0)
?Subroutine49:
        CFI Block cfiCond83 Using cfiCommon0
        CFI NoFunction
        CFI Conditional ??CrossCallReturnLabel_81
        CFI R6 load(1, XDATA, add(CFA_XSP16, literal(-12)))
        CFI VB load(1, XDATA, add(CFA_XSP16, literal(-11)))
        CFI V0 load(1, XDATA, add(CFA_XSP16, literal(-10)))
        CFI V1 load(1, XDATA, add(CFA_XSP16, literal(-9)))
        CFI V2 load(1, XDATA, add(CFA_XSP16, literal(-8)))
        CFI V3 load(1, XDATA, add(CFA_XSP16, literal(-7)))
        CFI R7 load(1, XDATA, add(CFA_XSP16, literal(-6)))
        CFI ?RET_LOW load(1, XDATA, add(CFA_XSP16, literal(-5)))
        CFI ?RET_HIGH load(1, XDATA, add(CFA_XSP16, literal(-4)))
        CFI ?BRET_EXT load(1, XDATA, add(CFA_XSP16, literal(-3)))
        CFI DPL0 load(1, XDATA, add(CFA_XSP16, literal(-2)))
        CFI DPH0 load(1, XDATA, add(CFA_XSP16, literal(-1)))
        CFI CFA_SP SP+0
        CFI CFA_XSP16 add(XSP16, 33)
        CFI Block cfiCond84 Using cfiCommon0
        CFI (cfiCond84) NoFunction
        CFI (cfiCond84) Conditional ??CrossCallReturnLabel_82
        CFI (cfiCond84) R6 load(1, XDATA, add(CFA_XSP16, literal(-12)))
        CFI (cfiCond84) VB load(1, XDATA, add(CFA_XSP16, literal(-11)))
        CFI (cfiCond84) V0 load(1, XDATA, add(CFA_XSP16, literal(-10)))
        CFI (cfiCond84) V1 load(1, XDATA, add(CFA_XSP16, literal(-9)))
        CFI (cfiCond84) V2 load(1, XDATA, add(CFA_XSP16, literal(-8)))
        CFI (cfiCond84) V3 load(1, XDATA, add(CFA_XSP16, literal(-7)))
        CFI (cfiCond84) R7 load(1, XDATA, add(CFA_XSP16, literal(-6)))
        CFI (cfiCond84) ?RET_LOW load(1, XDATA, add(CFA_XSP16, literal(-5)))
        CFI (cfiCond84) ?RET_HIGH load(1, XDATA, add(CFA_XSP16, literal(-4)))
        CFI (cfiCond84) ?BRET_EXT load(1, XDATA, add(CFA_XSP16, literal(-3)))
        CFI (cfiCond84) DPL0 load(1, XDATA, add(CFA_XSP16, literal(-2)))
        CFI (cfiCond84) DPH0 load(1, XDATA, add(CFA_XSP16, literal(-1)))
        CFI (cfiCond84) CFA_SP SP+0
        CFI (cfiCond84) CFA_XSP16 add(XSP16, 33)
        CFI Block cfiCond85 Using cfiCommon0
        CFI (cfiCond85) NoFunction
        CFI (cfiCond85) Conditional ??CrossCallReturnLabel_83, ??CrossCallReturnLabel_62
        CFI (cfiCond85) R6 load(1, XDATA, add(CFA_XSP16, literal(-12)))
        CFI (cfiCond85) VB load(1, XDATA, add(CFA_XSP16, literal(-11)))
        CFI (cfiCond85) V0 load(1, XDATA, add(CFA_XSP16, literal(-10)))
        CFI (cfiCond85) V1 load(1, XDATA, add(CFA_XSP16, literal(-9)))
        CFI (cfiCond85) V2 load(1, XDATA, add(CFA_XSP16, literal(-8)))
        CFI (cfiCond85) V3 load(1, XDATA, add(CFA_XSP16, literal(-7)))
        CFI (cfiCond85) R7 load(1, XDATA, add(CFA_XSP16, literal(-6)))
        CFI (cfiCond85) ?RET_LOW load(1, XDATA, add(CFA_XSP16, literal(-5)))
        CFI (cfiCond85) ?RET_HIGH load(1, XDATA, add(CFA_XSP16, literal(-4)))
        CFI (cfiCond85) ?BRET_EXT load(1, XDATA, add(CFA_XSP16, literal(-3)))
        CFI (cfiCond85) DPL0 load(1, XDATA, add(CFA_XSP16, literal(-2)))
        CFI (cfiCond85) DPH0 load(1, XDATA, add(CFA_XSP16, literal(-1)))
        CFI (cfiCond85) CFA_SP SP+0
        CFI (cfiCond85) CFA_XSP16 add(XSP16, 33)
        CFI Block cfiCond86 Using cfiCommon0
        CFI (cfiCond86) NoFunction
        CFI (cfiCond86) Conditional ??CrossCallReturnLabel_83, ??CrossCallReturnLabel_63
        CFI (cfiCond86) R6 load(1, XDATA, add(CFA_XSP16, literal(-12)))
        CFI (cfiCond86) VB load(1, XDATA, add(CFA_XSP16, literal(-11)))
        CFI (cfiCond86) V0 load(1, XDATA, add(CFA_XSP16, literal(-10)))
        CFI (cfiCond86) V1 load(1, XDATA, add(CFA_XSP16, literal(-9)))
        CFI (cfiCond86) V2 load(1, XDATA, add(CFA_XSP16, literal(-8)))
        CFI (cfiCond86) V3 load(1, XDATA, add(CFA_XSP16, literal(-7)))
        CFI (cfiCond86) R7 load(1, XDATA, add(CFA_XSP16, literal(-6)))
        CFI (cfiCond86) ?RET_LOW load(1, XDATA, add(CFA_XSP16, literal(-5)))
        CFI (cfiCond86) ?RET_HIGH load(1, XDATA, add(CFA_XSP16, literal(-4)))
        CFI (cfiCond86) ?BRET_EXT load(1, XDATA, add(CFA_XSP16, literal(-3)))
        CFI (cfiCond86) DPL0 load(1, XDATA, add(CFA_XSP16, literal(-2)))
        CFI (cfiCond86) DPH0 load(1, XDATA, add(CFA_XSP16, literal(-1)))
        CFI (cfiCond86) CFA_SP SP+0
        CFI (cfiCond86) CFA_XSP16 add(XSP16, 33)
        CFI Block cfiPicker87 Using cfiCommon1
        CFI (cfiPicker87) NoFunction
        CFI (cfiPicker87) Picker
        ADDC    A,?V0 + 1
        MOV     DPH,A
        CLR     A
        MOVC    A,@A+DPTR
        RET
        CFI EndBlock cfiCond83
        CFI EndBlock cfiCond84
        CFI EndBlock cfiCond85
        CFI EndBlock cfiCond86
        CFI EndBlock cfiPicker87

        RSEG BANKED_CODE:CODE:NOROOT(0)
?Subroutine36:
        CFI Block cfiCond88 Using cfiCommon0
        CFI NoFunction
        CFI Conditional ??CrossCallReturnLabel_60
        CFI R6 load(1, XDATA, add(CFA_XSP16, literal(-12)))
        CFI VB load(1, XDATA, add(CFA_XSP16, literal(-11)))
        CFI V0 load(1, XDATA, add(CFA_XSP16, literal(-10)))
        CFI V1 load(1, XDATA, add(CFA_XSP16, literal(-9)))
        CFI V2 load(1, XDATA, add(CFA_XSP16, literal(-8)))
        CFI V3 load(1, XDATA, add(CFA_XSP16, literal(-7)))
        CFI R7 load(1, XDATA, add(CFA_XSP16, literal(-6)))
        CFI ?RET_LOW load(1, XDATA, add(CFA_XSP16, literal(-5)))
        CFI ?RET_HIGH load(1, XDATA, add(CFA_XSP16, literal(-4)))
        CFI ?BRET_EXT load(1, XDATA, add(CFA_XSP16, literal(-3)))
        CFI DPL0 load(1, XDATA, add(CFA_XSP16, literal(-2)))
        CFI DPH0 load(1, XDATA, add(CFA_XSP16, literal(-1)))
        CFI CFA_SP SP+0
        CFI CFA_XSP16 add(XSP16, 33)
        CFI Block cfiCond89 Using cfiCommon0
        CFI (cfiCond89) NoFunction
        CFI (cfiCond89) Conditional ??CrossCallReturnLabel_61
        CFI (cfiCond89) R6 load(1, XDATA, add(CFA_XSP16, literal(-12)))
        CFI (cfiCond89) VB load(1, XDATA, add(CFA_XSP16, literal(-11)))
        CFI (cfiCond89) V0 load(1, XDATA, add(CFA_XSP16, literal(-10)))
        CFI (cfiCond89) V1 load(1, XDATA, add(CFA_XSP16, literal(-9)))
        CFI (cfiCond89) V2 load(1, XDATA, add(CFA_XSP16, literal(-8)))
        CFI (cfiCond89) V3 load(1, XDATA, add(CFA_XSP16, literal(-7)))
        CFI (cfiCond89) R7 load(1, XDATA, add(CFA_XSP16, literal(-6)))
        CFI (cfiCond89) ?RET_LOW load(1, XDATA, add(CFA_XSP16, literal(-5)))
        CFI (cfiCond89) ?RET_HIGH load(1, XDATA, add(CFA_XSP16, literal(-4)))
        CFI (cfiCond89) ?BRET_EXT load(1, XDATA, add(CFA_XSP16, literal(-3)))
        CFI (cfiCond89) DPL0 load(1, XDATA, add(CFA_XSP16, literal(-2)))
        CFI (cfiCond89) DPH0 load(1, XDATA, add(CFA_XSP16, literal(-1)))
        CFI (cfiCond89) CFA_SP SP+0
        CFI (cfiCond89) CFA_XSP16 add(XSP16, 33)
        CFI Block cfiPicker90 Using cfiCommon1
        CFI (cfiPicker90) NoFunction
        CFI (cfiPicker90) Picker
        MOV     A,R6
        ADD     A,#0x20
        LCALL   ??Subroutine55_0 & 0xFFFF
??CrossCallReturnLabel_98:
        RET
        CFI EndBlock cfiCond88
        CFI EndBlock cfiCond89
        CFI EndBlock cfiPicker90

        RSEG BANKED_CODE:CODE:NOROOT(0)
?Subroutine52:
        CFI Block cfiCond91 Using cfiCommon0
        CFI NoFunction
        CFI Conditional ??CrossCallReturnLabel_99, ??CrossCallReturnLabel_68
        CFI R6 load(1, XDATA, add(CFA_XSP16, literal(-12)))
        CFI VB load(1, XDATA, add(CFA_XSP16, literal(-11)))
        CFI V0 load(1, XDATA, add(CFA_XSP16, literal(-10)))
        CFI V1 load(1, XDATA, add(CFA_XSP16, literal(-9)))
        CFI V2 load(1, XDATA, add(CFA_XSP16, literal(-8)))
        CFI V3 load(1, XDATA, add(CFA_XSP16, literal(-7)))
        CFI R7 load(1, XDATA, add(CFA_XSP16, literal(-6)))
        CFI ?RET_LOW load(1, XDATA, add(CFA_XSP16, literal(-5)))
        CFI ?RET_HIGH load(1, XDATA, add(CFA_XSP16, literal(-4)))
        CFI ?BRET_EXT load(1, XDATA, add(CFA_XSP16, literal(-3)))
        CFI DPL0 load(1, XDATA, add(CFA_XSP16, literal(-2)))
        CFI DPH0 load(1, XDATA, add(CFA_XSP16, literal(-1)))
        CFI CFA_SP SP+0
        CFI CFA_XSP16 add(XSP16, 33)
        CFI Block cfiCond92 Using cfiCommon0
        CFI (cfiCond92) NoFunction
        CFI (cfiCond92) Conditional ??CrossCallReturnLabel_99, ??CrossCallReturnLabel_69
        CFI (cfiCond92) R6 load(1, XDATA, add(CFA_XSP16, literal(-12)))
        CFI (cfiCond92) VB load(1, XDATA, add(CFA_XSP16, literal(-11)))
        CFI (cfiCond92) V0 load(1, XDATA, add(CFA_XSP16, literal(-10)))
        CFI (cfiCond92) V1 load(1, XDATA, add(CFA_XSP16, literal(-9)))
        CFI (cfiCond92) V2 load(1, XDATA, add(CFA_XSP16, literal(-8)))
        CFI (cfiCond92) V3 load(1, XDATA, add(CFA_XSP16, literal(-7)))
        CFI (cfiCond92) R7 load(1, XDATA, add(CFA_XSP16, literal(-6)))
        CFI (cfiCond92) ?RET_LOW load(1, XDATA, add(CFA_XSP16, literal(-5)))
        CFI (cfiCond92) ?RET_HIGH load(1, XDATA, add(CFA_XSP16, literal(-4)))
        CFI (cfiCond92) ?BRET_EXT load(1, XDATA, add(CFA_XSP16, literal(-3)))
        CFI (cfiCond92) DPL0 load(1, XDATA, add(CFA_XSP16, literal(-2)))
        CFI (cfiCond92) DPH0 load(1, XDATA, add(CFA_XSP16, literal(-1)))
        CFI (cfiCond92) CFA_SP SP+0
        CFI (cfiCond92) CFA_XSP16 add(XSP16, 33)
        CFI Block cfiCond93 Using cfiCommon0
        CFI (cfiCond93) NoFunction
        CFI (cfiCond93) Conditional ??CrossCallReturnLabel_100, ??CrossCallReturnLabel_77, ??CrossCallReturnLabel_37
        CFI (cfiCond93) R6 load(1, XDATA, add(CFA_XSP16, literal(-12)))
        CFI (cfiCond93) VB load(1, XDATA, add(CFA_XSP16, literal(-11)))
        CFI (cfiCond93) V0 load(1, XDATA, add(CFA_XSP16, literal(-10)))
        CFI (cfiCond93) V1 load(1, XDATA, add(CFA_XSP16, literal(-9)))
        CFI (cfiCond93) V2 load(1, XDATA, add(CFA_XSP16, literal(-8)))
        CFI (cfiCond93) V3 load(1, XDATA, add(CFA_XSP16, literal(-7)))
        CFI (cfiCond93) R7 load(1, XDATA, add(CFA_XSP16, literal(-6)))
        CFI (cfiCond93) ?RET_LOW load(1, XDATA, add(CFA_XSP16, literal(-5)))
        CFI (cfiCond93) ?RET_HIGH load(1, XDATA, add(CFA_XSP16, literal(-4)))
        CFI (cfiCond93) ?BRET_EXT load(1, XDATA, add(CFA_XSP16, literal(-3)))
        CFI (cfiCond93) DPL0 load(1, XDATA, add(CFA_XSP16, literal(-2)))
        CFI (cfiCond93) DPH0 load(1, XDATA, add(CFA_XSP16, literal(-1)))
        CFI (cfiCond93) CFA_SP SP+0
        CFI (cfiCond93) CFA_XSP16 add(XSP16, 35)
        CFI Block cfiCond94 Using cfiCommon0
        CFI (cfiCond94) NoFunction
        CFI (cfiCond94) Conditional ??CrossCallReturnLabel_100, ??CrossCallReturnLabel_77, ??CrossCallReturnLabel_38
        CFI (cfiCond94) R6 load(1, XDATA, add(CFA_XSP16, literal(-12)))
        CFI (cfiCond94) VB load(1, XDATA, add(CFA_XSP16, literal(-11)))
        CFI (cfiCond94) V0 load(1, XDATA, add(CFA_XSP16, literal(-10)))
        CFI (cfiCond94) V1 load(1, XDATA, add(CFA_XSP16, literal(-9)))
        CFI (cfiCond94) V2 load(1, XDATA, add(CFA_XSP16, literal(-8)))
        CFI (cfiCond94) V3 load(1, XDATA, add(CFA_XSP16, literal(-7)))
        CFI (cfiCond94) R7 load(1, XDATA, add(CFA_XSP16, literal(-6)))
        CFI (cfiCond94) ?RET_LOW load(1, XDATA, add(CFA_XSP16, literal(-5)))
        CFI (cfiCond94) ?RET_HIGH load(1, XDATA, add(CFA_XSP16, literal(-4)))
        CFI (cfiCond94) ?BRET_EXT load(1, XDATA, add(CFA_XSP16, literal(-3)))
        CFI (cfiCond94) DPL0 load(1, XDATA, add(CFA_XSP16, literal(-2)))
        CFI (cfiCond94) DPH0 load(1, XDATA, add(CFA_XSP16, literal(-1)))
        CFI (cfiCond94) CFA_SP SP+0
        CFI (cfiCond94) CFA_XSP16 add(XSP16, 33)
        CFI Block cfiCond95 Using cfiCommon0
        CFI (cfiCond95) NoFunction
        CFI (cfiCond95) Conditional ??CrossCallReturnLabel_100, ??CrossCallReturnLabel_76, ??CrossCallReturnLabel_26
        CFI (cfiCond95) R6 load(1, XDATA, add(CFA_XSP16, literal(-12)))
        CFI (cfiCond95) VB load(1, XDATA, add(CFA_XSP16, literal(-11)))
        CFI (cfiCond95) V0 load(1, XDATA, add(CFA_XSP16, literal(-10)))
        CFI (cfiCond95) V1 load(1, XDATA, add(CFA_XSP16, literal(-9)))
        CFI (cfiCond95) V2 load(1, XDATA, add(CFA_XSP16, literal(-8)))
        CFI (cfiCond95) V3 load(1, XDATA, add(CFA_XSP16, literal(-7)))
        CFI (cfiCond95) R7 load(1, XDATA, add(CFA_XSP16, literal(-6)))
        CFI (cfiCond95) ?RET_LOW load(1, XDATA, add(CFA_XSP16, literal(-5)))
        CFI (cfiCond95) ?RET_HIGH load(1, XDATA, add(CFA_XSP16, literal(-4)))
        CFI (cfiCond95) ?BRET_EXT load(1, XDATA, add(CFA_XSP16, literal(-3)))
        CFI (cfiCond95) DPL0 load(1, XDATA, add(CFA_XSP16, literal(-2)))
        CFI (cfiCond95) DPH0 load(1, XDATA, add(CFA_XSP16, literal(-1)))
        CFI (cfiCond95) CFA_SP SP+0
        CFI (cfiCond95) CFA_XSP16 add(XSP16, 33)
        CFI Block cfiCond96 Using cfiCommon0
        CFI (cfiCond96) NoFunction
        CFI (cfiCond96) Conditional ??CrossCallReturnLabel_100, ??CrossCallReturnLabel_76, ??CrossCallReturnLabel_27
        CFI (cfiCond96) R6 load(1, XDATA, add(CFA_XSP16, literal(-12)))
        CFI (cfiCond96) VB load(1, XDATA, add(CFA_XSP16, literal(-11)))
        CFI (cfiCond96) V0 load(1, XDATA, add(CFA_XSP16, literal(-10)))
        CFI (cfiCond96) V1 load(1, XDATA, add(CFA_XSP16, literal(-9)))
        CFI (cfiCond96) V2 load(1, XDATA, add(CFA_XSP16, literal(-8)))
        CFI (cfiCond96) V3 load(1, XDATA, add(CFA_XSP16, literal(-7)))
        CFI (cfiCond96) R7 load(1, XDATA, add(CFA_XSP16, literal(-6)))
        CFI (cfiCond96) ?RET_LOW load(1, XDATA, add(CFA_XSP16, literal(-5)))
        CFI (cfiCond96) ?RET_HIGH load(1, XDATA, add(CFA_XSP16, literal(-4)))
        CFI (cfiCond96) ?BRET_EXT load(1, XDATA, add(CFA_XSP16, literal(-3)))
        CFI (cfiCond96) DPL0 load(1, XDATA, add(CFA_XSP16, literal(-2)))
        CFI (cfiCond96) DPH0 load(1, XDATA, add(CFA_XSP16, literal(-1)))
        CFI (cfiCond96) CFA_SP SP+0
        CFI (cfiCond96) CFA_XSP16 add(XSP16, 33)
        CFI Block cfiPicker97 Using cfiCommon1
        CFI (cfiPicker97) NoFunction
        CFI (cfiPicker97) Picker
        MOV     A,R6
        ADD     A,#0x14
        CFI EndBlock cfiCond91
        CFI EndBlock cfiCond92
        CFI EndBlock cfiCond93
        CFI EndBlock cfiCond94
        CFI EndBlock cfiCond95
        CFI EndBlock cfiCond96
        CFI EndBlock cfiPicker97
        REQUIRE ??Subroutine55_0
        ; // Fall through to label ??Subroutine55_0

        RSEG BANKED_CODE:CODE:NOROOT(0)
??Subroutine55_0:
        CFI Block cfiCond98 Using cfiCommon0
        CFI NoFunction
        CFI Conditional ??CrossCallReturnLabel_97
        CFI R6 load(1, XDATA, add(CFA_XSP16, literal(-12)))
        CFI VB load(1, XDATA, add(CFA_XSP16, literal(-11)))
        CFI V0 load(1, XDATA, add(CFA_XSP16, literal(-10)))
        CFI V1 load(1, XDATA, add(CFA_XSP16, literal(-9)))
        CFI V2 load(1, XDATA, add(CFA_XSP16, literal(-8)))
        CFI V3 load(1, XDATA, add(CFA_XSP16, literal(-7)))
        CFI R7 load(1, XDATA, add(CFA_XSP16, literal(-6)))
        CFI ?RET_LOW load(1, XDATA, add(CFA_XSP16, literal(-5)))
        CFI ?RET_HIGH load(1, XDATA, add(CFA_XSP16, literal(-4)))
        CFI ?BRET_EXT load(1, XDATA, add(CFA_XSP16, literal(-3)))
        CFI DPL0 load(1, XDATA, add(CFA_XSP16, literal(-2)))
        CFI DPH0 load(1, XDATA, add(CFA_XSP16, literal(-1)))
        CFI CFA_SP SP+0
        CFI CFA_XSP16 add(XSP16, 33)
        CFI Block cfiCond99 Using cfiCommon0
        CFI (cfiCond99) NoFunction
        CFI (cfiCond99) Conditional ??CrossCallReturnLabel_98, ??CrossCallReturnLabel_60
        CFI (cfiCond99) R6 load(1, XDATA, add(CFA_XSP16, literal(-12)))
        CFI (cfiCond99) VB load(1, XDATA, add(CFA_XSP16, literal(-11)))
        CFI (cfiCond99) V0 load(1, XDATA, add(CFA_XSP16, literal(-10)))
        CFI (cfiCond99) V1 load(1, XDATA, add(CFA_XSP16, literal(-9)))
        CFI (cfiCond99) V2 load(1, XDATA, add(CFA_XSP16, literal(-8)))
        CFI (cfiCond99) V3 load(1, XDATA, add(CFA_XSP16, literal(-7)))
        CFI (cfiCond99) R7 load(1, XDATA, add(CFA_XSP16, literal(-6)))
        CFI (cfiCond99) ?RET_LOW load(1, XDATA, add(CFA_XSP16, literal(-5)))
        CFI (cfiCond99) ?RET_HIGH load(1, XDATA, add(CFA_XSP16, literal(-4)))
        CFI (cfiCond99) ?BRET_EXT load(1, XDATA, add(CFA_XSP16, literal(-3)))
        CFI (cfiCond99) DPL0 load(1, XDATA, add(CFA_XSP16, literal(-2)))
        CFI (cfiCond99) DPH0 load(1, XDATA, add(CFA_XSP16, literal(-1)))
        CFI (cfiCond99) CFA_SP SP+0
        CFI (cfiCond99) CFA_XSP16 add(XSP16, 33)
        CFI Block cfiCond100 Using cfiCommon0
        CFI (cfiCond100) NoFunction
        CFI (cfiCond100) Conditional ??CrossCallReturnLabel_98, ??CrossCallReturnLabel_61
        CFI (cfiCond100) R6 load(1, XDATA, add(CFA_XSP16, literal(-12)))
        CFI (cfiCond100) VB load(1, XDATA, add(CFA_XSP16, literal(-11)))
        CFI (cfiCond100) V0 load(1, XDATA, add(CFA_XSP16, literal(-10)))
        CFI (cfiCond100) V1 load(1, XDATA, add(CFA_XSP16, literal(-9)))
        CFI (cfiCond100) V2 load(1, XDATA, add(CFA_XSP16, literal(-8)))
        CFI (cfiCond100) V3 load(1, XDATA, add(CFA_XSP16, literal(-7)))
        CFI (cfiCond100) R7 load(1, XDATA, add(CFA_XSP16, literal(-6)))
        CFI (cfiCond100) ?RET_LOW load(1, XDATA, add(CFA_XSP16, literal(-5)))
        CFI (cfiCond100) ?RET_HIGH load(1, XDATA, add(CFA_XSP16, literal(-4)))
        CFI (cfiCond100) ?BRET_EXT load(1, XDATA, add(CFA_XSP16, literal(-3)))
        CFI (cfiCond100) DPL0 load(1, XDATA, add(CFA_XSP16, literal(-2)))
        CFI (cfiCond100) DPH0 load(1, XDATA, add(CFA_XSP16, literal(-1)))
        CFI (cfiCond100) CFA_SP SP+0
        CFI (cfiCond100) CFA_XSP16 add(XSP16, 33)
        CFI Block cfiCond101 Using cfiCommon0
        CFI (cfiCond101) NoFunction
        CFI (cfiCond101) Conditional ??CrossCallReturnLabel_99, ??CrossCallReturnLabel_68
        CFI (cfiCond101) R6 load(1, XDATA, add(CFA_XSP16, literal(-12)))
        CFI (cfiCond101) VB load(1, XDATA, add(CFA_XSP16, literal(-11)))
        CFI (cfiCond101) V0 load(1, XDATA, add(CFA_XSP16, literal(-10)))
        CFI (cfiCond101) V1 load(1, XDATA, add(CFA_XSP16, literal(-9)))
        CFI (cfiCond101) V2 load(1, XDATA, add(CFA_XSP16, literal(-8)))
        CFI (cfiCond101) V3 load(1, XDATA, add(CFA_XSP16, literal(-7)))
        CFI (cfiCond101) R7 load(1, XDATA, add(CFA_XSP16, literal(-6)))
        CFI (cfiCond101) ?RET_LOW load(1, XDATA, add(CFA_XSP16, literal(-5)))
        CFI (cfiCond101) ?RET_HIGH load(1, XDATA, add(CFA_XSP16, literal(-4)))
        CFI (cfiCond101) ?BRET_EXT load(1, XDATA, add(CFA_XSP16, literal(-3)))
        CFI (cfiCond101) DPL0 load(1, XDATA, add(CFA_XSP16, literal(-2)))
        CFI (cfiCond101) DPH0 load(1, XDATA, add(CFA_XSP16, literal(-1)))
        CFI (cfiCond101) CFA_SP SP+0
        CFI (cfiCond101) CFA_XSP16 add(XSP16, 33)
        CFI Block cfiCond102 Using cfiCommon0
        CFI (cfiCond102) NoFunction
        CFI (cfiCond102) Conditional ??CrossCallReturnLabel_99, ??CrossCallReturnLabel_69
        CFI (cfiCond102) R6 load(1, XDATA, add(CFA_XSP16, literal(-12)))
        CFI (cfiCond102) VB load(1, XDATA, add(CFA_XSP16, literal(-11)))
        CFI (cfiCond102) V0 load(1, XDATA, add(CFA_XSP16, literal(-10)))
        CFI (cfiCond102) V1 load(1, XDATA, add(CFA_XSP16, literal(-9)))
        CFI (cfiCond102) V2 load(1, XDATA, add(CFA_XSP16, literal(-8)))
        CFI (cfiCond102) V3 load(1, XDATA, add(CFA_XSP16, literal(-7)))
        CFI (cfiCond102) R7 load(1, XDATA, add(CFA_XSP16, literal(-6)))
        CFI (cfiCond102) ?RET_LOW load(1, XDATA, add(CFA_XSP16, literal(-5)))
        CFI (cfiCond102) ?RET_HIGH load(1, XDATA, add(CFA_XSP16, literal(-4)))
        CFI (cfiCond102) ?BRET_EXT load(1, XDATA, add(CFA_XSP16, literal(-3)))
        CFI (cfiCond102) DPL0 load(1, XDATA, add(CFA_XSP16, literal(-2)))
        CFI (cfiCond102) DPH0 load(1, XDATA, add(CFA_XSP16, literal(-1)))
        CFI (cfiCond102) CFA_SP SP+0
        CFI (cfiCond102) CFA_XSP16 add(XSP16, 33)
        CFI Block cfiCond103 Using cfiCommon0
        CFI (cfiCond103) NoFunction
        CFI (cfiCond103) Conditional ??CrossCallReturnLabel_100, ??CrossCallReturnLabel_77, ??CrossCallReturnLabel_37
        CFI (cfiCond103) R6 load(1, XDATA, add(CFA_XSP16, literal(-12)))
        CFI (cfiCond103) VB load(1, XDATA, add(CFA_XSP16, literal(-11)))
        CFI (cfiCond103) V0 load(1, XDATA, add(CFA_XSP16, literal(-10)))
        CFI (cfiCond103) V1 load(1, XDATA, add(CFA_XSP16, literal(-9)))
        CFI (cfiCond103) V2 load(1, XDATA, add(CFA_XSP16, literal(-8)))
        CFI (cfiCond103) V3 load(1, XDATA, add(CFA_XSP16, literal(-7)))
        CFI (cfiCond103) R7 load(1, XDATA, add(CFA_XSP16, literal(-6)))
        CFI (cfiCond103) ?RET_LOW load(1, XDATA, add(CFA_XSP16, literal(-5)))
        CFI (cfiCond103) ?RET_HIGH load(1, XDATA, add(CFA_XSP16, literal(-4)))
        CFI (cfiCond103) ?BRET_EXT load(1, XDATA, add(CFA_XSP16, literal(-3)))
        CFI (cfiCond103) DPL0 load(1, XDATA, add(CFA_XSP16, literal(-2)))
        CFI (cfiCond103) DPH0 load(1, XDATA, add(CFA_XSP16, literal(-1)))
        CFI (cfiCond103) CFA_SP SP+0
        CFI (cfiCond103) CFA_XSP16 add(XSP16, 35)
        CFI Block cfiCond104 Using cfiCommon0
        CFI (cfiCond104) NoFunction
        CFI (cfiCond104) Conditional ??CrossCallReturnLabel_100, ??CrossCallReturnLabel_77, ??CrossCallReturnLabel_38
        CFI (cfiCond104) R6 load(1, XDATA, add(CFA_XSP16, literal(-12)))
        CFI (cfiCond104) VB load(1, XDATA, add(CFA_XSP16, literal(-11)))
        CFI (cfiCond104) V0 load(1, XDATA, add(CFA_XSP16, literal(-10)))
        CFI (cfiCond104) V1 load(1, XDATA, add(CFA_XSP16, literal(-9)))
        CFI (cfiCond104) V2 load(1, XDATA, add(CFA_XSP16, literal(-8)))
        CFI (cfiCond104) V3 load(1, XDATA, add(CFA_XSP16, literal(-7)))
        CFI (cfiCond104) R7 load(1, XDATA, add(CFA_XSP16, literal(-6)))
        CFI (cfiCond104) ?RET_LOW load(1, XDATA, add(CFA_XSP16, literal(-5)))
        CFI (cfiCond104) ?RET_HIGH load(1, XDATA, add(CFA_XSP16, literal(-4)))
        CFI (cfiCond104) ?BRET_EXT load(1, XDATA, add(CFA_XSP16, literal(-3)))
        CFI (cfiCond104) DPL0 load(1, XDATA, add(CFA_XSP16, literal(-2)))
        CFI (cfiCond104) DPH0 load(1, XDATA, add(CFA_XSP16, literal(-1)))
        CFI (cfiCond104) CFA_SP SP+0
        CFI (cfiCond104) CFA_XSP16 add(XSP16, 33)
        CFI Block cfiCond105 Using cfiCommon0
        CFI (cfiCond105) NoFunction
        CFI (cfiCond105) Conditional ??CrossCallReturnLabel_100, ??CrossCallReturnLabel_76, ??CrossCallReturnLabel_26
        CFI (cfiCond105) R6 load(1, XDATA, add(CFA_XSP16, literal(-12)))
        CFI (cfiCond105) VB load(1, XDATA, add(CFA_XSP16, literal(-11)))
        CFI (cfiCond105) V0 load(1, XDATA, add(CFA_XSP16, literal(-10)))
        CFI (cfiCond105) V1 load(1, XDATA, add(CFA_XSP16, literal(-9)))
        CFI (cfiCond105) V2 load(1, XDATA, add(CFA_XSP16, literal(-8)))
        CFI (cfiCond105) V3 load(1, XDATA, add(CFA_XSP16, literal(-7)))
        CFI (cfiCond105) R7 load(1, XDATA, add(CFA_XSP16, literal(-6)))
        CFI (cfiCond105) ?RET_LOW load(1, XDATA, add(CFA_XSP16, literal(-5)))
        CFI (cfiCond105) ?RET_HIGH load(1, XDATA, add(CFA_XSP16, literal(-4)))
        CFI (cfiCond105) ?BRET_EXT load(1, XDATA, add(CFA_XSP16, literal(-3)))
        CFI (cfiCond105) DPL0 load(1, XDATA, add(CFA_XSP16, literal(-2)))
        CFI (cfiCond105) DPH0 load(1, XDATA, add(CFA_XSP16, literal(-1)))
        CFI (cfiCond105) CFA_SP SP+0
        CFI (cfiCond105) CFA_XSP16 add(XSP16, 33)
        CFI Block cfiCond106 Using cfiCommon0
        CFI (cfiCond106) NoFunction
        CFI (cfiCond106) Conditional ??CrossCallReturnLabel_100, ??CrossCallReturnLabel_76, ??CrossCallReturnLabel_27
        CFI (cfiCond106) R6 load(1, XDATA, add(CFA_XSP16, literal(-12)))
        CFI (cfiCond106) VB load(1, XDATA, add(CFA_XSP16, literal(-11)))
        CFI (cfiCond106) V0 load(1, XDATA, add(CFA_XSP16, literal(-10)))
        CFI (cfiCond106) V1 load(1, XDATA, add(CFA_XSP16, literal(-9)))
        CFI (cfiCond106) V2 load(1, XDATA, add(CFA_XSP16, literal(-8)))
        CFI (cfiCond106) V3 load(1, XDATA, add(CFA_XSP16, literal(-7)))
        CFI (cfiCond106) R7 load(1, XDATA, add(CFA_XSP16, literal(-6)))
        CFI (cfiCond106) ?RET_LOW load(1, XDATA, add(CFA_XSP16, literal(-5)))
        CFI (cfiCond106) ?RET_HIGH load(1, XDATA, add(CFA_XSP16, literal(-4)))
        CFI (cfiCond106) ?BRET_EXT load(1, XDATA, add(CFA_XSP16, literal(-3)))
        CFI (cfiCond106) DPL0 load(1, XDATA, add(CFA_XSP16, literal(-2)))
        CFI (cfiCond106) DPH0 load(1, XDATA, add(CFA_XSP16, literal(-1)))
        CFI (cfiCond106) CFA_SP SP+0
        CFI (cfiCond106) CFA_XSP16 add(XSP16, 33)
        CFI Block cfiPicker107 Using cfiCommon1
        CFI (cfiPicker107) NoFunction
        CFI (cfiPicker107) Picker
        MOV     DPL,A
        MOV     A,R7
        CFI EndBlock cfiCond98
        CFI EndBlock cfiCond99
        CFI EndBlock cfiCond100
        CFI EndBlock cfiCond101
        CFI EndBlock cfiCond102
        CFI EndBlock cfiCond103
        CFI EndBlock cfiCond104
        CFI EndBlock cfiCond105
        CFI EndBlock cfiCond106
        CFI EndBlock cfiPicker107
        REQUIRE ??Subroutine56_0
        ; // Fall through to label ??Subroutine56_0

        RSEG BANKED_CODE:CODE:NOROOT(0)
??Subroutine56_0:
        CFI Block cfiCond108 Using cfiCommon0
        CFI NoFunction
        CFI Conditional ??CrossCallReturnLabel_95
        CFI R6 load(1, XDATA, add(CFA_XSP16, literal(-10)))
        CFI VB load(1, XDATA, add(CFA_XSP16, literal(-9)))
        CFI V0 load(1, XDATA, add(CFA_XSP16, literal(-8)))
        CFI V1 load(1, XDATA, add(CFA_XSP16, literal(-7)))
        CFI R7 load(1, XDATA, add(CFA_XSP16, literal(-6)))
        CFI ?RET_LOW load(1, XDATA, add(CFA_XSP16, literal(-5)))
        CFI ?RET_HIGH load(1, XDATA, add(CFA_XSP16, literal(-4)))
        CFI ?BRET_EXT load(1, XDATA, add(CFA_XSP16, literal(-3)))
        CFI DPL0 load(1, XDATA, add(CFA_XSP16, literal(-2)))
        CFI DPH0 load(1, XDATA, add(CFA_XSP16, literal(-1)))
        CFI CFA_SP SP+-1
        CFI CFA_XSP16 add(XSP16, 10)
        CFI Block cfiCond109 Using cfiCommon0
        CFI (cfiCond109) NoFunction
        CFI (cfiCond109) Conditional ??CrossCallReturnLabel_96
        CFI (cfiCond109) R6 load(1, XDATA, add(CFA_XSP16, literal(-10)))
        CFI (cfiCond109) VB load(1, XDATA, add(CFA_XSP16, literal(-9)))
        CFI (cfiCond109) V0 load(1, XDATA, add(CFA_XSP16, literal(-8)))
        CFI (cfiCond109) V1 load(1, XDATA, add(CFA_XSP16, literal(-7)))
        CFI (cfiCond109) R7 load(1, XDATA, add(CFA_XSP16, literal(-6)))
        CFI (cfiCond109) ?RET_LOW load(1, XDATA, add(CFA_XSP16, literal(-5)))
        CFI (cfiCond109) ?RET_HIGH load(1, XDATA, add(CFA_XSP16, literal(-4)))
        CFI (cfiCond109) ?BRET_EXT load(1, XDATA, add(CFA_XSP16, literal(-3)))
        CFI (cfiCond109) DPL0 load(1, XDATA, add(CFA_XSP16, literal(-2)))
        CFI (cfiCond109) DPH0 load(1, XDATA, add(CFA_XSP16, literal(-1)))
        CFI (cfiCond109) CFA_SP SP+0
        CFI (cfiCond109) CFA_XSP16 add(XSP16, 10)
        CFI Block cfiCond110 Using cfiCommon0
        CFI (cfiCond110) NoFunction
        CFI (cfiCond110) Conditional ??CrossCallReturnLabel_97
        CFI (cfiCond110) R6 load(1, XDATA, add(CFA_XSP16, literal(-12)))
        CFI (cfiCond110) VB load(1, XDATA, add(CFA_XSP16, literal(-11)))
        CFI (cfiCond110) V0 load(1, XDATA, add(CFA_XSP16, literal(-10)))
        CFI (cfiCond110) V1 load(1, XDATA, add(CFA_XSP16, literal(-9)))
        CFI (cfiCond110) V2 load(1, XDATA, add(CFA_XSP16, literal(-8)))
        CFI (cfiCond110) V3 load(1, XDATA, add(CFA_XSP16, literal(-7)))
        CFI (cfiCond110) R7 load(1, XDATA, add(CFA_XSP16, literal(-6)))
        CFI (cfiCond110) ?RET_LOW load(1, XDATA, add(CFA_XSP16, literal(-5)))
        CFI (cfiCond110) ?RET_HIGH load(1, XDATA, add(CFA_XSP16, literal(-4)))
        CFI (cfiCond110) ?BRET_EXT load(1, XDATA, add(CFA_XSP16, literal(-3)))
        CFI (cfiCond110) DPL0 load(1, XDATA, add(CFA_XSP16, literal(-2)))
        CFI (cfiCond110) DPH0 load(1, XDATA, add(CFA_XSP16, literal(-1)))
        CFI (cfiCond110) CFA_SP SP+0
        CFI (cfiCond110) CFA_XSP16 add(XSP16, 33)
        CFI Block cfiCond111 Using cfiCommon0
        CFI (cfiCond111) NoFunction
        CFI (cfiCond111) Conditional ??CrossCallReturnLabel_98, ??CrossCallReturnLabel_60
        CFI (cfiCond111) R6 load(1, XDATA, add(CFA_XSP16, literal(-12)))
        CFI (cfiCond111) VB load(1, XDATA, add(CFA_XSP16, literal(-11)))
        CFI (cfiCond111) V0 load(1, XDATA, add(CFA_XSP16, literal(-10)))
        CFI (cfiCond111) V1 load(1, XDATA, add(CFA_XSP16, literal(-9)))
        CFI (cfiCond111) V2 load(1, XDATA, add(CFA_XSP16, literal(-8)))
        CFI (cfiCond111) V3 load(1, XDATA, add(CFA_XSP16, literal(-7)))
        CFI (cfiCond111) R7 load(1, XDATA, add(CFA_XSP16, literal(-6)))
        CFI (cfiCond111) ?RET_LOW load(1, XDATA, add(CFA_XSP16, literal(-5)))
        CFI (cfiCond111) ?RET_HIGH load(1, XDATA, add(CFA_XSP16, literal(-4)))
        CFI (cfiCond111) ?BRET_EXT load(1, XDATA, add(CFA_XSP16, literal(-3)))
        CFI (cfiCond111) DPL0 load(1, XDATA, add(CFA_XSP16, literal(-2)))
        CFI (cfiCond111) DPH0 load(1, XDATA, add(CFA_XSP16, literal(-1)))
        CFI (cfiCond111) CFA_SP SP+0
        CFI (cfiCond111) CFA_XSP16 add(XSP16, 33)
        CFI Block cfiCond112 Using cfiCommon0
        CFI (cfiCond112) NoFunction
        CFI (cfiCond112) Conditional ??CrossCallReturnLabel_98, ??CrossCallReturnLabel_61
        CFI (cfiCond112) R6 load(1, XDATA, add(CFA_XSP16, literal(-12)))
        CFI (cfiCond112) VB load(1, XDATA, add(CFA_XSP16, literal(-11)))
        CFI (cfiCond112) V0 load(1, XDATA, add(CFA_XSP16, literal(-10)))
        CFI (cfiCond112) V1 load(1, XDATA, add(CFA_XSP16, literal(-9)))
        CFI (cfiCond112) V2 load(1, XDATA, add(CFA_XSP16, literal(-8)))
        CFI (cfiCond112) V3 load(1, XDATA, add(CFA_XSP16, literal(-7)))
        CFI (cfiCond112) R7 load(1, XDATA, add(CFA_XSP16, literal(-6)))
        CFI (cfiCond112) ?RET_LOW load(1, XDATA, add(CFA_XSP16, literal(-5)))
        CFI (cfiCond112) ?RET_HIGH load(1, XDATA, add(CFA_XSP16, literal(-4)))
        CFI (cfiCond112) ?BRET_EXT load(1, XDATA, add(CFA_XSP16, literal(-3)))
        CFI (cfiCond112) DPL0 load(1, XDATA, add(CFA_XSP16, literal(-2)))
        CFI (cfiCond112) DPH0 load(1, XDATA, add(CFA_XSP16, literal(-1)))
        CFI (cfiCond112) CFA_SP SP+0
        CFI (cfiCond112) CFA_XSP16 add(XSP16, 33)
        CFI Block cfiCond113 Using cfiCommon0
        CFI (cfiCond113) NoFunction
        CFI (cfiCond113) Conditional ??CrossCallReturnLabel_99, ??CrossCallReturnLabel_68
        CFI (cfiCond113) R6 load(1, XDATA, add(CFA_XSP16, literal(-12)))
        CFI (cfiCond113) VB load(1, XDATA, add(CFA_XSP16, literal(-11)))
        CFI (cfiCond113) V0 load(1, XDATA, add(CFA_XSP16, literal(-10)))
        CFI (cfiCond113) V1 load(1, XDATA, add(CFA_XSP16, literal(-9)))
        CFI (cfiCond113) V2 load(1, XDATA, add(CFA_XSP16, literal(-8)))
        CFI (cfiCond113) V3 load(1, XDATA, add(CFA_XSP16, literal(-7)))
        CFI (cfiCond113) R7 load(1, XDATA, add(CFA_XSP16, literal(-6)))
        CFI (cfiCond113) ?RET_LOW load(1, XDATA, add(CFA_XSP16, literal(-5)))
        CFI (cfiCond113) ?RET_HIGH load(1, XDATA, add(CFA_XSP16, literal(-4)))
        CFI (cfiCond113) ?BRET_EXT load(1, XDATA, add(CFA_XSP16, literal(-3)))
        CFI (cfiCond113) DPL0 load(1, XDATA, add(CFA_XSP16, literal(-2)))
        CFI (cfiCond113) DPH0 load(1, XDATA, add(CFA_XSP16, literal(-1)))
        CFI (cfiCond113) CFA_SP SP+0
        CFI (cfiCond113) CFA_XSP16 add(XSP16, 33)
        CFI Block cfiCond114 Using cfiCommon0
        CFI (cfiCond114) NoFunction
        CFI (cfiCond114) Conditional ??CrossCallReturnLabel_99, ??CrossCallReturnLabel_69
        CFI (cfiCond114) R6 load(1, XDATA, add(CFA_XSP16, literal(-12)))
        CFI (cfiCond114) VB load(1, XDATA, add(CFA_XSP16, literal(-11)))
        CFI (cfiCond114) V0 load(1, XDATA, add(CFA_XSP16, literal(-10)))
        CFI (cfiCond114) V1 load(1, XDATA, add(CFA_XSP16, literal(-9)))
        CFI (cfiCond114) V2 load(1, XDATA, add(CFA_XSP16, literal(-8)))
        CFI (cfiCond114) V3 load(1, XDATA, add(CFA_XSP16, literal(-7)))
        CFI (cfiCond114) R7 load(1, XDATA, add(CFA_XSP16, literal(-6)))
        CFI (cfiCond114) ?RET_LOW load(1, XDATA, add(CFA_XSP16, literal(-5)))
        CFI (cfiCond114) ?RET_HIGH load(1, XDATA, add(CFA_XSP16, literal(-4)))
        CFI (cfiCond114) ?BRET_EXT load(1, XDATA, add(CFA_XSP16, literal(-3)))
        CFI (cfiCond114) DPL0 load(1, XDATA, add(CFA_XSP16, literal(-2)))
        CFI (cfiCond114) DPH0 load(1, XDATA, add(CFA_XSP16, literal(-1)))
        CFI (cfiCond114) CFA_SP SP+0
        CFI (cfiCond114) CFA_XSP16 add(XSP16, 33)
        CFI Block cfiCond115 Using cfiCommon0
        CFI (cfiCond115) NoFunction
        CFI (cfiCond115) Conditional ??CrossCallReturnLabel_100, ??CrossCallReturnLabel_77, ??CrossCallReturnLabel_37
        CFI (cfiCond115) R6 load(1, XDATA, add(CFA_XSP16, literal(-12)))
        CFI (cfiCond115) VB load(1, XDATA, add(CFA_XSP16, literal(-11)))
        CFI (cfiCond115) V0 load(1, XDATA, add(CFA_XSP16, literal(-10)))
        CFI (cfiCond115) V1 load(1, XDATA, add(CFA_XSP16, literal(-9)))
        CFI (cfiCond115) V2 load(1, XDATA, add(CFA_XSP16, literal(-8)))
        CFI (cfiCond115) V3 load(1, XDATA, add(CFA_XSP16, literal(-7)))
        CFI (cfiCond115) R7 load(1, XDATA, add(CFA_XSP16, literal(-6)))
        CFI (cfiCond115) ?RET_LOW load(1, XDATA, add(CFA_XSP16, literal(-5)))
        CFI (cfiCond115) ?RET_HIGH load(1, XDATA, add(CFA_XSP16, literal(-4)))
        CFI (cfiCond115) ?BRET_EXT load(1, XDATA, add(CFA_XSP16, literal(-3)))
        CFI (cfiCond115) DPL0 load(1, XDATA, add(CFA_XSP16, literal(-2)))
        CFI (cfiCond115) DPH0 load(1, XDATA, add(CFA_XSP16, literal(-1)))
        CFI (cfiCond115) CFA_SP SP+0
        CFI (cfiCond115) CFA_XSP16 add(XSP16, 35)
        CFI Block cfiCond116 Using cfiCommon0
        CFI (cfiCond116) NoFunction
        CFI (cfiCond116) Conditional ??CrossCallReturnLabel_100, ??CrossCallReturnLabel_77, ??CrossCallReturnLabel_38
        CFI (cfiCond116) R6 load(1, XDATA, add(CFA_XSP16, literal(-12)))
        CFI (cfiCond116) VB load(1, XDATA, add(CFA_XSP16, literal(-11)))
        CFI (cfiCond116) V0 load(1, XDATA, add(CFA_XSP16, literal(-10)))
        CFI (cfiCond116) V1 load(1, XDATA, add(CFA_XSP16, literal(-9)))
        CFI (cfiCond116) V2 load(1, XDATA, add(CFA_XSP16, literal(-8)))
        CFI (cfiCond116) V3 load(1, XDATA, add(CFA_XSP16, literal(-7)))
        CFI (cfiCond116) R7 load(1, XDATA, add(CFA_XSP16, literal(-6)))
        CFI (cfiCond116) ?RET_LOW load(1, XDATA, add(CFA_XSP16, literal(-5)))
        CFI (cfiCond116) ?RET_HIGH load(1, XDATA, add(CFA_XSP16, literal(-4)))
        CFI (cfiCond116) ?BRET_EXT load(1, XDATA, add(CFA_XSP16, literal(-3)))
        CFI (cfiCond116) DPL0 load(1, XDATA, add(CFA_XSP16, literal(-2)))
        CFI (cfiCond116) DPH0 load(1, XDATA, add(CFA_XSP16, literal(-1)))
        CFI (cfiCond116) CFA_SP SP+0
        CFI (cfiCond116) CFA_XSP16 add(XSP16, 33)
        CFI Block cfiCond117 Using cfiCommon0
        CFI (cfiCond117) NoFunction
        CFI (cfiCond117) Conditional ??CrossCallReturnLabel_100, ??CrossCallReturnLabel_76, ??CrossCallReturnLabel_26
        CFI (cfiCond117) R6 load(1, XDATA, add(CFA_XSP16, literal(-12)))
        CFI (cfiCond117) VB load(1, XDATA, add(CFA_XSP16, literal(-11)))
        CFI (cfiCond117) V0 load(1, XDATA, add(CFA_XSP16, literal(-10)))
        CFI (cfiCond117) V1 load(1, XDATA, add(CFA_XSP16, literal(-9)))
        CFI (cfiCond117) V2 load(1, XDATA, add(CFA_XSP16, literal(-8)))
        CFI (cfiCond117) V3 load(1, XDATA, add(CFA_XSP16, literal(-7)))
        CFI (cfiCond117) R7 load(1, XDATA, add(CFA_XSP16, literal(-6)))
        CFI (cfiCond117) ?RET_LOW load(1, XDATA, add(CFA_XSP16, literal(-5)))
        CFI (cfiCond117) ?RET_HIGH load(1, XDATA, add(CFA_XSP16, literal(-4)))
        CFI (cfiCond117) ?BRET_EXT load(1, XDATA, add(CFA_XSP16, literal(-3)))
        CFI (cfiCond117) DPL0 load(1, XDATA, add(CFA_XSP16, literal(-2)))
        CFI (cfiCond117) DPH0 load(1, XDATA, add(CFA_XSP16, literal(-1)))
        CFI (cfiCond117) CFA_SP SP+0
        CFI (cfiCond117) CFA_XSP16 add(XSP16, 33)
        CFI Block cfiCond118 Using cfiCommon0
        CFI (cfiCond118) NoFunction
        CFI (cfiCond118) Conditional ??CrossCallReturnLabel_100, ??CrossCallReturnLabel_76, ??CrossCallReturnLabel_27
        CFI (cfiCond118) R6 load(1, XDATA, add(CFA_XSP16, literal(-12)))
        CFI (cfiCond118) VB load(1, XDATA, add(CFA_XSP16, literal(-11)))
        CFI (cfiCond118) V0 load(1, XDATA, add(CFA_XSP16, literal(-10)))
        CFI (cfiCond118) V1 load(1, XDATA, add(CFA_XSP16, literal(-9)))
        CFI (cfiCond118) V2 load(1, XDATA, add(CFA_XSP16, literal(-8)))
        CFI (cfiCond118) V3 load(1, XDATA, add(CFA_XSP16, literal(-7)))
        CFI (cfiCond118) R7 load(1, XDATA, add(CFA_XSP16, literal(-6)))
        CFI (cfiCond118) ?RET_LOW load(1, XDATA, add(CFA_XSP16, literal(-5)))
        CFI (cfiCond118) ?RET_HIGH load(1, XDATA, add(CFA_XSP16, literal(-4)))
        CFI (cfiCond118) ?BRET_EXT load(1, XDATA, add(CFA_XSP16, literal(-3)))
        CFI (cfiCond118) DPL0 load(1, XDATA, add(CFA_XSP16, literal(-2)))
        CFI (cfiCond118) DPH0 load(1, XDATA, add(CFA_XSP16, literal(-1)))
        CFI (cfiCond118) CFA_SP SP+0
        CFI (cfiCond118) CFA_XSP16 add(XSP16, 33)
        CFI Block cfiPicker119 Using cfiCommon1
        CFI (cfiPicker119) NoFunction
        CFI (cfiPicker119) Picker
        ADDC    A,#0x0
        MOV     DPH,A
        RET
        CFI EndBlock cfiCond108
        CFI EndBlock cfiCond109
        CFI EndBlock cfiCond110
        CFI EndBlock cfiCond111
        CFI EndBlock cfiCond112
        CFI EndBlock cfiCond113
        CFI EndBlock cfiCond114
        CFI EndBlock cfiCond115
        CFI EndBlock cfiCond116
        CFI EndBlock cfiCond117
        CFI EndBlock cfiCond118
        CFI EndBlock cfiPicker119

        RSEG BANKED_CODE:CODE:NOROOT(0)
?Subroutine29:
        CFI Block cfiCond120 Using cfiCommon0
        CFI NoFunction
        CFI Conditional ??CrossCallReturnLabel_48
        CFI R6 load(1, XDATA, add(CFA_XSP16, literal(-12)))
        CFI VB load(1, XDATA, add(CFA_XSP16, literal(-11)))
        CFI V0 load(1, XDATA, add(CFA_XSP16, literal(-10)))
        CFI V1 load(1, XDATA, add(CFA_XSP16, literal(-9)))
        CFI V2 load(1, XDATA, add(CFA_XSP16, literal(-8)))
        CFI V3 load(1, XDATA, add(CFA_XSP16, literal(-7)))
        CFI R7 load(1, XDATA, add(CFA_XSP16, literal(-6)))
        CFI ?RET_LOW load(1, XDATA, add(CFA_XSP16, literal(-5)))
        CFI ?RET_HIGH load(1, XDATA, add(CFA_XSP16, literal(-4)))
        CFI ?BRET_EXT load(1, XDATA, add(CFA_XSP16, literal(-3)))
        CFI DPL0 load(1, XDATA, add(CFA_XSP16, literal(-2)))
        CFI DPH0 load(1, XDATA, add(CFA_XSP16, literal(-1)))
        CFI CFA_SP SP+0
        CFI CFA_XSP16 add(XSP16, 40)
        CFI Block cfiCond121 Using cfiCommon0
        CFI (cfiCond121) NoFunction
        CFI (cfiCond121) Conditional ??CrossCallReturnLabel_49
        CFI (cfiCond121) R6 load(1, XDATA, add(CFA_XSP16, literal(-12)))
        CFI (cfiCond121) VB load(1, XDATA, add(CFA_XSP16, literal(-11)))
        CFI (cfiCond121) V0 load(1, XDATA, add(CFA_XSP16, literal(-10)))
        CFI (cfiCond121) V1 load(1, XDATA, add(CFA_XSP16, literal(-9)))
        CFI (cfiCond121) V2 load(1, XDATA, add(CFA_XSP16, literal(-8)))
        CFI (cfiCond121) V3 load(1, XDATA, add(CFA_XSP16, literal(-7)))
        CFI (cfiCond121) R7 load(1, XDATA, add(CFA_XSP16, literal(-6)))
        CFI (cfiCond121) ?RET_LOW load(1, XDATA, add(CFA_XSP16, literal(-5)))
        CFI (cfiCond121) ?RET_HIGH load(1, XDATA, add(CFA_XSP16, literal(-4)))
        CFI (cfiCond121) ?BRET_EXT load(1, XDATA, add(CFA_XSP16, literal(-3)))
        CFI (cfiCond121) DPL0 load(1, XDATA, add(CFA_XSP16, literal(-2)))
        CFI (cfiCond121) DPH0 load(1, XDATA, add(CFA_XSP16, literal(-1)))
        CFI (cfiCond121) CFA_SP SP+0
        CFI (cfiCond121) CFA_XSP16 add(XSP16, 40)
        CFI Block cfiPicker122 Using cfiCommon1
        CFI (cfiPicker122) NoFunction
        CFI (cfiPicker122) Picker
        MOVX    A,@DPTR
        ADD     A,#0x6
        MOV     R2,A
        INC     DPTR
        MOVX    A,@DPTR
        ADDC    A,#0x0
        MOV     R3,A
        MOV     A,#0x7
        RET
        CFI EndBlock cfiCond120
        CFI EndBlock cfiCond121
        CFI EndBlock cfiPicker122

        RSEG BANKED_CODE:CODE:NOROOT(0)
?Subroutine25:
        CFI Block cfiCond123 Using cfiCommon0
        CFI NoFunction
        CFI Conditional ??CrossCallReturnLabel_102
        CFI R6 load(1, XDATA, add(CFA_XSP16, literal(-12)))
        CFI VB load(1, XDATA, add(CFA_XSP16, literal(-11)))
        CFI V0 load(1, XDATA, add(CFA_XSP16, literal(-10)))
        CFI V1 load(1, XDATA, add(CFA_XSP16, literal(-9)))
        CFI V2 load(1, XDATA, add(CFA_XSP16, literal(-8)))
        CFI V3 load(1, XDATA, add(CFA_XSP16, literal(-7)))
        CFI R7 load(1, XDATA, add(CFA_XSP16, literal(-6)))
        CFI ?RET_LOW load(1, XDATA, add(CFA_XSP16, literal(-5)))
        CFI ?RET_HIGH load(1, XDATA, add(CFA_XSP16, literal(-4)))
        CFI ?BRET_EXT load(1, XDATA, add(CFA_XSP16, literal(-3)))
        CFI DPL0 load(1, XDATA, add(CFA_XSP16, literal(-2)))
        CFI DPH0 load(1, XDATA, add(CFA_XSP16, literal(-1)))
        CFI CFA_SP SP+0
        CFI CFA_XSP16 add(XSP16, 33)
        CFI Block cfiCond124 Using cfiCommon0
        CFI (cfiCond124) NoFunction
        CFI (cfiCond124) Conditional ??CrossCallReturnLabel_103
        CFI (cfiCond124) R6 load(1, XDATA, add(CFA_XSP16, literal(-12)))
        CFI (cfiCond124) VB load(1, XDATA, add(CFA_XSP16, literal(-11)))
        CFI (cfiCond124) V0 load(1, XDATA, add(CFA_XSP16, literal(-10)))
        CFI (cfiCond124) V1 load(1, XDATA, add(CFA_XSP16, literal(-9)))
        CFI (cfiCond124) V2 load(1, XDATA, add(CFA_XSP16, literal(-8)))
        CFI (cfiCond124) V3 load(1, XDATA, add(CFA_XSP16, literal(-7)))
        CFI (cfiCond124) R7 load(1, XDATA, add(CFA_XSP16, literal(-6)))
        CFI (cfiCond124) ?RET_LOW load(1, XDATA, add(CFA_XSP16, literal(-5)))
        CFI (cfiCond124) ?RET_HIGH load(1, XDATA, add(CFA_XSP16, literal(-4)))
        CFI (cfiCond124) ?BRET_EXT load(1, XDATA, add(CFA_XSP16, literal(-3)))
        CFI (cfiCond124) DPL0 load(1, XDATA, add(CFA_XSP16, literal(-2)))
        CFI (cfiCond124) DPH0 load(1, XDATA, add(CFA_XSP16, literal(-1)))
        CFI (cfiCond124) CFA_SP SP+0
        CFI (cfiCond124) CFA_XSP16 add(XSP16, 33)
        CFI Block cfiPicker125 Using cfiCommon1
        CFI (cfiPicker125) NoFunction
        CFI (cfiPicker125) Picker
        MOV     DPL,?XSP + 0
        MOV     DPH,?XSP + 1
        MOVX    A,@DPTR
        ADD     A,#0x15
        CFI EndBlock cfiCond123
        CFI EndBlock cfiCond124
        CFI EndBlock cfiPicker125
        REQUIRE ??Subroutine57_0
        ; // Fall through to label ??Subroutine57_0

        RSEG BANKED_CODE:CODE:NOROOT(0)
??Subroutine57_0:
        CFI Block cfiCond126 Using cfiCommon0
        CFI NoFunction
        CFI Conditional ??CrossCallReturnLabel_101
        CFI R6 load(1, XDATA, add(CFA_XSP16, literal(-10)))
        CFI VB load(1, XDATA, add(CFA_XSP16, literal(-9)))
        CFI V0 load(1, XDATA, add(CFA_XSP16, literal(-8)))
        CFI V1 load(1, XDATA, add(CFA_XSP16, literal(-7)))
        CFI R7 load(1, XDATA, add(CFA_XSP16, literal(-6)))
        CFI ?RET_LOW load(1, XDATA, add(CFA_XSP16, literal(-5)))
        CFI ?RET_HIGH load(1, XDATA, add(CFA_XSP16, literal(-4)))
        CFI ?BRET_EXT load(1, XDATA, add(CFA_XSP16, literal(-3)))
        CFI DPL0 load(1, XDATA, add(CFA_XSP16, literal(-2)))
        CFI DPH0 load(1, XDATA, add(CFA_XSP16, literal(-1)))
        CFI CFA_SP SP+0
        CFI CFA_XSP16 add(XSP16, 10)
        CFI Block cfiCond127 Using cfiCommon0
        CFI (cfiCond127) NoFunction
        CFI (cfiCond127) Conditional ??CrossCallReturnLabel_102
        CFI (cfiCond127) R6 load(1, XDATA, add(CFA_XSP16, literal(-12)))
        CFI (cfiCond127) VB load(1, XDATA, add(CFA_XSP16, literal(-11)))
        CFI (cfiCond127) V0 load(1, XDATA, add(CFA_XSP16, literal(-10)))
        CFI (cfiCond127) V1 load(1, XDATA, add(CFA_XSP16, literal(-9)))
        CFI (cfiCond127) V2 load(1, XDATA, add(CFA_XSP16, literal(-8)))
        CFI (cfiCond127) V3 load(1, XDATA, add(CFA_XSP16, literal(-7)))
        CFI (cfiCond127) R7 load(1, XDATA, add(CFA_XSP16, literal(-6)))
        CFI (cfiCond127) ?RET_LOW load(1, XDATA, add(CFA_XSP16, literal(-5)))
        CFI (cfiCond127) ?RET_HIGH load(1, XDATA, add(CFA_XSP16, literal(-4)))
        CFI (cfiCond127) ?BRET_EXT load(1, XDATA, add(CFA_XSP16, literal(-3)))
        CFI (cfiCond127) DPL0 load(1, XDATA, add(CFA_XSP16, literal(-2)))
        CFI (cfiCond127) DPH0 load(1, XDATA, add(CFA_XSP16, literal(-1)))
        CFI (cfiCond127) CFA_SP SP+0
        CFI (cfiCond127) CFA_XSP16 add(XSP16, 33)
        CFI Block cfiCond128 Using cfiCommon0
        CFI (cfiCond128) NoFunction
        CFI (cfiCond128) Conditional ??CrossCallReturnLabel_103
        CFI (cfiCond128) R6 load(1, XDATA, add(CFA_XSP16, literal(-12)))
        CFI (cfiCond128) VB load(1, XDATA, add(CFA_XSP16, literal(-11)))
        CFI (cfiCond128) V0 load(1, XDATA, add(CFA_XSP16, literal(-10)))
        CFI (cfiCond128) V1 load(1, XDATA, add(CFA_XSP16, literal(-9)))
        CFI (cfiCond128) V2 load(1, XDATA, add(CFA_XSP16, literal(-8)))
        CFI (cfiCond128) V3 load(1, XDATA, add(CFA_XSP16, literal(-7)))
        CFI (cfiCond128) R7 load(1, XDATA, add(CFA_XSP16, literal(-6)))
        CFI (cfiCond128) ?RET_LOW load(1, XDATA, add(CFA_XSP16, literal(-5)))
        CFI (cfiCond128) ?RET_HIGH load(1, XDATA, add(CFA_XSP16, literal(-4)))
        CFI (cfiCond128) ?BRET_EXT load(1, XDATA, add(CFA_XSP16, literal(-3)))
        CFI (cfiCond128) DPL0 load(1, XDATA, add(CFA_XSP16, literal(-2)))
        CFI (cfiCond128) DPH0 load(1, XDATA, add(CFA_XSP16, literal(-1)))
        CFI (cfiCond128) CFA_SP SP+0
        CFI (cfiCond128) CFA_XSP16 add(XSP16, 33)
        CFI Block cfiPicker129 Using cfiCommon1
        CFI (cfiPicker129) NoFunction
        CFI (cfiPicker129) Picker
        LCALL   ?Subroutine48 & 0xFFFF
??CrossCallReturnLabel_105:
        RET
        CFI EndBlock cfiCond126
        CFI EndBlock cfiCond127
        CFI EndBlock cfiCond128
        CFI EndBlock cfiPicker129

        RSEG BANKED_CODE:CODE:NOROOT(0)
?Subroutine48:
        CFI Block cfiCond130 Using cfiCommon0
        CFI NoFunction
        CFI Conditional ??CrossCallReturnLabel_105, ??CrossCallReturnLabel_102
        CFI R6 load(1, XDATA, add(CFA_XSP16, literal(-12)))
        CFI VB load(1, XDATA, add(CFA_XSP16, literal(-11)))
        CFI V0 load(1, XDATA, add(CFA_XSP16, literal(-10)))
        CFI V1 load(1, XDATA, add(CFA_XSP16, literal(-9)))
        CFI V2 load(1, XDATA, add(CFA_XSP16, literal(-8)))
        CFI V3 load(1, XDATA, add(CFA_XSP16, literal(-7)))
        CFI R7 load(1, XDATA, add(CFA_XSP16, literal(-6)))
        CFI ?RET_LOW load(1, XDATA, add(CFA_XSP16, literal(-5)))
        CFI ?RET_HIGH load(1, XDATA, add(CFA_XSP16, literal(-4)))
        CFI ?BRET_EXT load(1, XDATA, add(CFA_XSP16, literal(-3)))
        CFI DPL0 load(1, XDATA, add(CFA_XSP16, literal(-2)))
        CFI DPH0 load(1, XDATA, add(CFA_XSP16, literal(-1)))
        CFI CFA_SP SP+0
        CFI CFA_XSP16 add(XSP16, 33)
        CFI Block cfiCond131 Using cfiCommon0
        CFI (cfiCond131) NoFunction
        CFI (cfiCond131) Conditional ??CrossCallReturnLabel_105, ??CrossCallReturnLabel_103
        CFI (cfiCond131) R6 load(1, XDATA, add(CFA_XSP16, literal(-12)))
        CFI (cfiCond131) VB load(1, XDATA, add(CFA_XSP16, literal(-11)))
        CFI (cfiCond131) V0 load(1, XDATA, add(CFA_XSP16, literal(-10)))
        CFI (cfiCond131) V1 load(1, XDATA, add(CFA_XSP16, literal(-9)))
        CFI (cfiCond131) V2 load(1, XDATA, add(CFA_XSP16, literal(-8)))
        CFI (cfiCond131) V3 load(1, XDATA, add(CFA_XSP16, literal(-7)))
        CFI (cfiCond131) R7 load(1, XDATA, add(CFA_XSP16, literal(-6)))
        CFI (cfiCond131) ?RET_LOW load(1, XDATA, add(CFA_XSP16, literal(-5)))
        CFI (cfiCond131) ?RET_HIGH load(1, XDATA, add(CFA_XSP16, literal(-4)))
        CFI (cfiCond131) ?BRET_EXT load(1, XDATA, add(CFA_XSP16, literal(-3)))
        CFI (cfiCond131) DPL0 load(1, XDATA, add(CFA_XSP16, literal(-2)))
        CFI (cfiCond131) DPH0 load(1, XDATA, add(CFA_XSP16, literal(-1)))
        CFI (cfiCond131) CFA_SP SP+0
        CFI (cfiCond131) CFA_XSP16 add(XSP16, 33)
        CFI Block cfiCond132 Using cfiCommon0
        CFI (cfiCond132) NoFunction
        CFI (cfiCond132) Conditional ??CrossCallReturnLabel_105, ??CrossCallReturnLabel_101
        CFI (cfiCond132) R6 load(1, XDATA, add(CFA_XSP16, literal(-10)))
        CFI (cfiCond132) VB load(1, XDATA, add(CFA_XSP16, literal(-9)))
        CFI (cfiCond132) V0 load(1, XDATA, add(CFA_XSP16, literal(-8)))
        CFI (cfiCond132) V1 load(1, XDATA, add(CFA_XSP16, literal(-7)))
        CFI (cfiCond132) R7 load(1, XDATA, add(CFA_XSP16, literal(-6)))
        CFI (cfiCond132) ?RET_LOW load(1, XDATA, add(CFA_XSP16, literal(-5)))
        CFI (cfiCond132) ?RET_HIGH load(1, XDATA, add(CFA_XSP16, literal(-4)))
        CFI (cfiCond132) ?BRET_EXT load(1, XDATA, add(CFA_XSP16, literal(-3)))
        CFI (cfiCond132) DPL0 load(1, XDATA, add(CFA_XSP16, literal(-2)))
        CFI (cfiCond132) DPH0 load(1, XDATA, add(CFA_XSP16, literal(-1)))
        CFI (cfiCond132) CFA_SP SP+0
        CFI (cfiCond132) CFA_XSP16 add(XSP16, 10)
        CFI Block cfiCond133 Using cfiCommon0
        CFI (cfiCond133) NoFunction
        CFI (cfiCond133) Conditional ??CrossCallReturnLabel_104, ??CrossCallReturnLabel_28
        CFI (cfiCond133) R6 load(1, XDATA, add(CFA_XSP16, literal(-12)))
        CFI (cfiCond133) VB load(1, XDATA, add(CFA_XSP16, literal(-11)))
        CFI (cfiCond133) V0 load(1, XDATA, add(CFA_XSP16, literal(-10)))
        CFI (cfiCond133) V1 load(1, XDATA, add(CFA_XSP16, literal(-9)))
        CFI (cfiCond133) V2 load(1, XDATA, add(CFA_XSP16, literal(-8)))
        CFI (cfiCond133) V3 load(1, XDATA, add(CFA_XSP16, literal(-7)))
        CFI (cfiCond133) R7 load(1, XDATA, add(CFA_XSP16, literal(-6)))
        CFI (cfiCond133) ?RET_LOW load(1, XDATA, add(CFA_XSP16, literal(-5)))
        CFI (cfiCond133) ?RET_HIGH load(1, XDATA, add(CFA_XSP16, literal(-4)))
        CFI (cfiCond133) ?BRET_EXT load(1, XDATA, add(CFA_XSP16, literal(-3)))
        CFI (cfiCond133) DPL0 load(1, XDATA, add(CFA_XSP16, literal(-2)))
        CFI (cfiCond133) DPH0 load(1, XDATA, add(CFA_XSP16, literal(-1)))
        CFI (cfiCond133) CFA_SP SP+0
        CFI (cfiCond133) CFA_XSP16 add(XSP16, 40)
        CFI Block cfiCond134 Using cfiCommon0
        CFI (cfiCond134) NoFunction
        CFI (cfiCond134) Conditional ??CrossCallReturnLabel_104, ??CrossCallReturnLabel_29
        CFI (cfiCond134) R6 load(1, XDATA, add(CFA_XSP16, literal(-12)))
        CFI (cfiCond134) VB load(1, XDATA, add(CFA_XSP16, literal(-11)))
        CFI (cfiCond134) V0 load(1, XDATA, add(CFA_XSP16, literal(-10)))
        CFI (cfiCond134) V1 load(1, XDATA, add(CFA_XSP16, literal(-9)))
        CFI (cfiCond134) V2 load(1, XDATA, add(CFA_XSP16, literal(-8)))
        CFI (cfiCond134) V3 load(1, XDATA, add(CFA_XSP16, literal(-7)))
        CFI (cfiCond134) R7 load(1, XDATA, add(CFA_XSP16, literal(-6)))
        CFI (cfiCond134) ?RET_LOW load(1, XDATA, add(CFA_XSP16, literal(-5)))
        CFI (cfiCond134) ?RET_HIGH load(1, XDATA, add(CFA_XSP16, literal(-4)))
        CFI (cfiCond134) ?BRET_EXT load(1, XDATA, add(CFA_XSP16, literal(-3)))
        CFI (cfiCond134) DPL0 load(1, XDATA, add(CFA_XSP16, literal(-2)))
        CFI (cfiCond134) DPH0 load(1, XDATA, add(CFA_XSP16, literal(-1)))
        CFI (cfiCond134) CFA_SP SP+0
        CFI (cfiCond134) CFA_XSP16 add(XSP16, 40)
        CFI Block cfiPicker135 Using cfiCommon1
        CFI (cfiPicker135) NoFunction
        CFI (cfiPicker135) Picker
        MOV     R0,A
        INC     DPTR
        MOVX    A,@DPTR
        LCALL   ?Subroutine51 & 0xFFFF
??CrossCallReturnLabel_108:
        MOVX    A,@DPTR
        RET
        CFI EndBlock cfiCond130
        CFI EndBlock cfiCond131
        CFI EndBlock cfiCond132
        CFI EndBlock cfiCond133
        CFI EndBlock cfiCond134
        CFI EndBlock cfiPicker135

        RSEG BANKED_CODE:CODE:NOROOT(0)
?Subroutine23:
        CFI Block cfiCond136 Using cfiCommon0
        CFI NoFunction
        CFI Conditional ??CrossCallReturnLabel_37
        CFI R6 load(1, XDATA, add(CFA_XSP16, literal(-12)))
        CFI VB load(1, XDATA, add(CFA_XSP16, literal(-11)))
        CFI V0 load(1, XDATA, add(CFA_XSP16, literal(-10)))
        CFI V1 load(1, XDATA, add(CFA_XSP16, literal(-9)))
        CFI V2 load(1, XDATA, add(CFA_XSP16, literal(-8)))
        CFI V3 load(1, XDATA, add(CFA_XSP16, literal(-7)))
        CFI R7 load(1, XDATA, add(CFA_XSP16, literal(-6)))
        CFI ?RET_LOW load(1, XDATA, add(CFA_XSP16, literal(-5)))
        CFI ?RET_HIGH load(1, XDATA, add(CFA_XSP16, literal(-4)))
        CFI ?BRET_EXT load(1, XDATA, add(CFA_XSP16, literal(-3)))
        CFI DPL0 load(1, XDATA, add(CFA_XSP16, literal(-2)))
        CFI DPH0 load(1, XDATA, add(CFA_XSP16, literal(-1)))
        CFI CFA_SP SP+0
        CFI CFA_XSP16 add(XSP16, 35)
        CFI Block cfiCond137 Using cfiCommon0
        CFI (cfiCond137) NoFunction
        CFI (cfiCond137) Conditional ??CrossCallReturnLabel_38
        CFI (cfiCond137) R6 load(1, XDATA, add(CFA_XSP16, literal(-12)))
        CFI (cfiCond137) VB load(1, XDATA, add(CFA_XSP16, literal(-11)))
        CFI (cfiCond137) V0 load(1, XDATA, add(CFA_XSP16, literal(-10)))
        CFI (cfiCond137) V1 load(1, XDATA, add(CFA_XSP16, literal(-9)))
        CFI (cfiCond137) V2 load(1, XDATA, add(CFA_XSP16, literal(-8)))
        CFI (cfiCond137) V3 load(1, XDATA, add(CFA_XSP16, literal(-7)))
        CFI (cfiCond137) R7 load(1, XDATA, add(CFA_XSP16, literal(-6)))
        CFI (cfiCond137) ?RET_LOW load(1, XDATA, add(CFA_XSP16, literal(-5)))
        CFI (cfiCond137) ?RET_HIGH load(1, XDATA, add(CFA_XSP16, literal(-4)))
        CFI (cfiCond137) ?BRET_EXT load(1, XDATA, add(CFA_XSP16, literal(-3)))
        CFI (cfiCond137) DPL0 load(1, XDATA, add(CFA_XSP16, literal(-2)))
        CFI (cfiCond137) DPH0 load(1, XDATA, add(CFA_XSP16, literal(-1)))
        CFI (cfiCond137) CFA_SP SP+0
        CFI (cfiCond137) CFA_XSP16 add(XSP16, 33)
        CFI Block cfiPicker138 Using cfiCommon1
        CFI (cfiPicker138) NoFunction
        CFI (cfiPicker138) Picker
        LCALL   ?Subroutine44 & 0xFFFF
??CrossCallReturnLabel_77:
        RET
        CFI EndBlock cfiCond136
        CFI EndBlock cfiCond137
        CFI EndBlock cfiPicker138

        RSEG BANKED_CODE:CODE:NOROOT(0)
?Subroutine44:
        CFI Block cfiCond139 Using cfiCommon0
        CFI NoFunction
        CFI Conditional ??CrossCallReturnLabel_77, ??CrossCallReturnLabel_37
        CFI R6 load(1, XDATA, add(CFA_XSP16, literal(-12)))
        CFI VB load(1, XDATA, add(CFA_XSP16, literal(-11)))
        CFI V0 load(1, XDATA, add(CFA_XSP16, literal(-10)))
        CFI V1 load(1, XDATA, add(CFA_XSP16, literal(-9)))
        CFI V2 load(1, XDATA, add(CFA_XSP16, literal(-8)))
        CFI V3 load(1, XDATA, add(CFA_XSP16, literal(-7)))
        CFI R7 load(1, XDATA, add(CFA_XSP16, literal(-6)))
        CFI ?RET_LOW load(1, XDATA, add(CFA_XSP16, literal(-5)))
        CFI ?RET_HIGH load(1, XDATA, add(CFA_XSP16, literal(-4)))
        CFI ?BRET_EXT load(1, XDATA, add(CFA_XSP16, literal(-3)))
        CFI DPL0 load(1, XDATA, add(CFA_XSP16, literal(-2)))
        CFI DPH0 load(1, XDATA, add(CFA_XSP16, literal(-1)))
        CFI CFA_SP SP+0
        CFI CFA_XSP16 add(XSP16, 35)
        CFI Block cfiCond140 Using cfiCommon0
        CFI (cfiCond140) NoFunction
        CFI (cfiCond140) Conditional ??CrossCallReturnLabel_77, ??CrossCallReturnLabel_38
        CFI (cfiCond140) R6 load(1, XDATA, add(CFA_XSP16, literal(-12)))
        CFI (cfiCond140) VB load(1, XDATA, add(CFA_XSP16, literal(-11)))
        CFI (cfiCond140) V0 load(1, XDATA, add(CFA_XSP16, literal(-10)))
        CFI (cfiCond140) V1 load(1, XDATA, add(CFA_XSP16, literal(-9)))
        CFI (cfiCond140) V2 load(1, XDATA, add(CFA_XSP16, literal(-8)))
        CFI (cfiCond140) V3 load(1, XDATA, add(CFA_XSP16, literal(-7)))
        CFI (cfiCond140) R7 load(1, XDATA, add(CFA_XSP16, literal(-6)))
        CFI (cfiCond140) ?RET_LOW load(1, XDATA, add(CFA_XSP16, literal(-5)))
        CFI (cfiCond140) ?RET_HIGH load(1, XDATA, add(CFA_XSP16, literal(-4)))
        CFI (cfiCond140) ?BRET_EXT load(1, XDATA, add(CFA_XSP16, literal(-3)))
        CFI (cfiCond140) DPL0 load(1, XDATA, add(CFA_XSP16, literal(-2)))
        CFI (cfiCond140) DPH0 load(1, XDATA, add(CFA_XSP16, literal(-1)))
        CFI (cfiCond140) CFA_SP SP+0
        CFI (cfiCond140) CFA_XSP16 add(XSP16, 33)
        CFI Block cfiCond141 Using cfiCommon0
        CFI (cfiCond141) NoFunction
        CFI (cfiCond141) Conditional ??CrossCallReturnLabel_76, ??CrossCallReturnLabel_26
        CFI (cfiCond141) R6 load(1, XDATA, add(CFA_XSP16, literal(-12)))
        CFI (cfiCond141) VB load(1, XDATA, add(CFA_XSP16, literal(-11)))
        CFI (cfiCond141) V0 load(1, XDATA, add(CFA_XSP16, literal(-10)))
        CFI (cfiCond141) V1 load(1, XDATA, add(CFA_XSP16, literal(-9)))
        CFI (cfiCond141) V2 load(1, XDATA, add(CFA_XSP16, literal(-8)))
        CFI (cfiCond141) V3 load(1, XDATA, add(CFA_XSP16, literal(-7)))
        CFI (cfiCond141) R7 load(1, XDATA, add(CFA_XSP16, literal(-6)))
        CFI (cfiCond141) ?RET_LOW load(1, XDATA, add(CFA_XSP16, literal(-5)))
        CFI (cfiCond141) ?RET_HIGH load(1, XDATA, add(CFA_XSP16, literal(-4)))
        CFI (cfiCond141) ?BRET_EXT load(1, XDATA, add(CFA_XSP16, literal(-3)))
        CFI (cfiCond141) DPL0 load(1, XDATA, add(CFA_XSP16, literal(-2)))
        CFI (cfiCond141) DPH0 load(1, XDATA, add(CFA_XSP16, literal(-1)))
        CFI (cfiCond141) CFA_SP SP+0
        CFI (cfiCond141) CFA_XSP16 add(XSP16, 33)
        CFI Block cfiCond142 Using cfiCommon0
        CFI (cfiCond142) NoFunction
        CFI (cfiCond142) Conditional ??CrossCallReturnLabel_76, ??CrossCallReturnLabel_27
        CFI (cfiCond142) R6 load(1, XDATA, add(CFA_XSP16, literal(-12)))
        CFI (cfiCond142) VB load(1, XDATA, add(CFA_XSP16, literal(-11)))
        CFI (cfiCond142) V0 load(1, XDATA, add(CFA_XSP16, literal(-10)))
        CFI (cfiCond142) V1 load(1, XDATA, add(CFA_XSP16, literal(-9)))
        CFI (cfiCond142) V2 load(1, XDATA, add(CFA_XSP16, literal(-8)))
        CFI (cfiCond142) V3 load(1, XDATA, add(CFA_XSP16, literal(-7)))
        CFI (cfiCond142) R7 load(1, XDATA, add(CFA_XSP16, literal(-6)))
        CFI (cfiCond142) ?RET_LOW load(1, XDATA, add(CFA_XSP16, literal(-5)))
        CFI (cfiCond142) ?RET_HIGH load(1, XDATA, add(CFA_XSP16, literal(-4)))
        CFI (cfiCond142) ?BRET_EXT load(1, XDATA, add(CFA_XSP16, literal(-3)))
        CFI (cfiCond142) DPL0 load(1, XDATA, add(CFA_XSP16, literal(-2)))
        CFI (cfiCond142) DPH0 load(1, XDATA, add(CFA_XSP16, literal(-1)))
        CFI (cfiCond142) CFA_SP SP+0
        CFI (cfiCond142) CFA_XSP16 add(XSP16, 33)
        CFI Block cfiPicker143 Using cfiCommon1
        CFI (cfiPicker143) NoFunction
        CFI (cfiPicker143) Picker
        MOVX    A,@DPTR
        MOV     R2,A
        INC     DPTR
        MOVX    A,@DPTR
        MOV     R3,A
        LCALL   ?Subroutine52 & 0xFFFF
??CrossCallReturnLabel_100:
        MOVX    A,@DPTR
        MOV     R1,A
        RET
        CFI EndBlock cfiCond139
        CFI EndBlock cfiCond140
        CFI EndBlock cfiCond141
        CFI EndBlock cfiCond142
        CFI EndBlock cfiPicker143

        RSEG BANKED_CODE:CODE:NOROOT(0)
?Subroutine22:
        CFI Block cfiCond144 Using cfiCommon0
        CFI NoFunction
        CFI Conditional ??CrossCallReturnLabel_35
        CFI R6 load(1, XDATA, add(CFA_XSP16, literal(-12)))
        CFI VB load(1, XDATA, add(CFA_XSP16, literal(-11)))
        CFI V0 load(1, XDATA, add(CFA_XSP16, literal(-10)))
        CFI V1 load(1, XDATA, add(CFA_XSP16, literal(-9)))
        CFI V2 load(1, XDATA, add(CFA_XSP16, literal(-8)))
        CFI V3 load(1, XDATA, add(CFA_XSP16, literal(-7)))
        CFI R7 load(1, XDATA, add(CFA_XSP16, literal(-6)))
        CFI ?RET_LOW load(1, XDATA, add(CFA_XSP16, literal(-5)))
        CFI ?RET_HIGH load(1, XDATA, add(CFA_XSP16, literal(-4)))
        CFI ?BRET_EXT load(1, XDATA, add(CFA_XSP16, literal(-3)))
        CFI DPL0 load(1, XDATA, add(CFA_XSP16, literal(-2)))
        CFI DPH0 load(1, XDATA, add(CFA_XSP16, literal(-1)))
        CFI CFA_SP SP+0
        CFI CFA_XSP16 add(XSP16, 40)
        CFI Block cfiCond145 Using cfiCommon0
        CFI (cfiCond145) NoFunction
        CFI (cfiCond145) Conditional ??CrossCallReturnLabel_36
        CFI (cfiCond145) R6 load(1, XDATA, add(CFA_XSP16, literal(-12)))
        CFI (cfiCond145) VB load(1, XDATA, add(CFA_XSP16, literal(-11)))
        CFI (cfiCond145) V0 load(1, XDATA, add(CFA_XSP16, literal(-10)))
        CFI (cfiCond145) V1 load(1, XDATA, add(CFA_XSP16, literal(-9)))
        CFI (cfiCond145) V2 load(1, XDATA, add(CFA_XSP16, literal(-8)))
        CFI (cfiCond145) V3 load(1, XDATA, add(CFA_XSP16, literal(-7)))
        CFI (cfiCond145) R7 load(1, XDATA, add(CFA_XSP16, literal(-6)))
        CFI (cfiCond145) ?RET_LOW load(1, XDATA, add(CFA_XSP16, literal(-5)))
        CFI (cfiCond145) ?RET_HIGH load(1, XDATA, add(CFA_XSP16, literal(-4)))
        CFI (cfiCond145) ?BRET_EXT load(1, XDATA, add(CFA_XSP16, literal(-3)))
        CFI (cfiCond145) DPL0 load(1, XDATA, add(CFA_XSP16, literal(-2)))
        CFI (cfiCond145) DPH0 load(1, XDATA, add(CFA_XSP16, literal(-1)))
        CFI (cfiCond145) CFA_SP SP+0
        CFI (cfiCond145) CFA_XSP16 add(XSP16, 40)
        CFI Block cfiPicker146 Using cfiCommon1
        CFI (cfiPicker146) NoFunction
        CFI (cfiPicker146) Picker
        LCALL   ?Subroutine45 & 0xFFFF
??CrossCallReturnLabel_80:
        INC     DPTR
        INC     DPTR
        LCALL   ?Subroutine46 & 0xFFFF
??CrossCallReturnLabel_142:
        MOV     A,#0x7
        RET
        CFI EndBlock cfiCond144
        CFI EndBlock cfiCond145
        CFI EndBlock cfiPicker146

        RSEG BANKED_CODE:CODE:NOROOT(0)
?Subroutine45:
        CFI Block cfiCond147 Using cfiCommon0
        CFI NoFunction
        CFI Conditional ??CrossCallReturnLabel_78
        CFI R6 load(1, XDATA, add(CFA_XSP16, literal(-12)))
        CFI VB load(1, XDATA, add(CFA_XSP16, literal(-11)))
        CFI V0 load(1, XDATA, add(CFA_XSP16, literal(-10)))
        CFI V1 load(1, XDATA, add(CFA_XSP16, literal(-9)))
        CFI V2 load(1, XDATA, add(CFA_XSP16, literal(-8)))
        CFI V3 load(1, XDATA, add(CFA_XSP16, literal(-7)))
        CFI R7 load(1, XDATA, add(CFA_XSP16, literal(-6)))
        CFI ?RET_LOW load(1, XDATA, add(CFA_XSP16, literal(-5)))
        CFI ?RET_HIGH load(1, XDATA, add(CFA_XSP16, literal(-4)))
        CFI ?BRET_EXT load(1, XDATA, add(CFA_XSP16, literal(-3)))
        CFI DPL0 load(1, XDATA, add(CFA_XSP16, literal(-2)))
        CFI DPH0 load(1, XDATA, add(CFA_XSP16, literal(-1)))
        CFI CFA_SP SP+0
        CFI CFA_XSP16 add(XSP16, 33)
        CFI Block cfiCond148 Using cfiCommon0
        CFI (cfiCond148) NoFunction
        CFI (cfiCond148) Conditional ??CrossCallReturnLabel_80, ??CrossCallReturnLabel_35
        CFI (cfiCond148) R6 load(1, XDATA, add(CFA_XSP16, literal(-12)))
        CFI (cfiCond148) VB load(1, XDATA, add(CFA_XSP16, literal(-11)))
        CFI (cfiCond148) V0 load(1, XDATA, add(CFA_XSP16, literal(-10)))
        CFI (cfiCond148) V1 load(1, XDATA, add(CFA_XSP16, literal(-9)))
        CFI (cfiCond148) V2 load(1, XDATA, add(CFA_XSP16, literal(-8)))
        CFI (cfiCond148) V3 load(1, XDATA, add(CFA_XSP16, literal(-7)))
        CFI (cfiCond148) R7 load(1, XDATA, add(CFA_XSP16, literal(-6)))
        CFI (cfiCond148) ?RET_LOW load(1, XDATA, add(CFA_XSP16, literal(-5)))
        CFI (cfiCond148) ?RET_HIGH load(1, XDATA, add(CFA_XSP16, literal(-4)))
        CFI (cfiCond148) ?BRET_EXT load(1, XDATA, add(CFA_XSP16, literal(-3)))
        CFI (cfiCond148) DPL0 load(1, XDATA, add(CFA_XSP16, literal(-2)))
        CFI (cfiCond148) DPH0 load(1, XDATA, add(CFA_XSP16, literal(-1)))
        CFI (cfiCond148) CFA_SP SP+0
        CFI (cfiCond148) CFA_XSP16 add(XSP16, 40)
        CFI Block cfiCond149 Using cfiCommon0
        CFI (cfiCond149) NoFunction
        CFI (cfiCond149) Conditional ??CrossCallReturnLabel_80, ??CrossCallReturnLabel_36
        CFI (cfiCond149) R6 load(1, XDATA, add(CFA_XSP16, literal(-12)))
        CFI (cfiCond149) VB load(1, XDATA, add(CFA_XSP16, literal(-11)))
        CFI (cfiCond149) V0 load(1, XDATA, add(CFA_XSP16, literal(-10)))
        CFI (cfiCond149) V1 load(1, XDATA, add(CFA_XSP16, literal(-9)))
        CFI (cfiCond149) V2 load(1, XDATA, add(CFA_XSP16, literal(-8)))
        CFI (cfiCond149) V3 load(1, XDATA, add(CFA_XSP16, literal(-7)))
        CFI (cfiCond149) R7 load(1, XDATA, add(CFA_XSP16, literal(-6)))
        CFI (cfiCond149) ?RET_LOW load(1, XDATA, add(CFA_XSP16, literal(-5)))
        CFI (cfiCond149) ?RET_HIGH load(1, XDATA, add(CFA_XSP16, literal(-4)))
        CFI (cfiCond149) ?BRET_EXT load(1, XDATA, add(CFA_XSP16, literal(-3)))
        CFI (cfiCond149) DPL0 load(1, XDATA, add(CFA_XSP16, literal(-2)))
        CFI (cfiCond149) DPH0 load(1, XDATA, add(CFA_XSP16, literal(-1)))
        CFI (cfiCond149) CFA_SP SP+0
        CFI (cfiCond149) CFA_XSP16 add(XSP16, 40)
        CFI Block cfiCond150 Using cfiCommon0
        CFI (cfiCond150) NoFunction
        CFI (cfiCond150) Conditional ??CrossCallReturnLabel_79, ??CrossCallReturnLabel_124
        CFI (cfiCond150) R6 load(1, XDATA, add(CFA_XSP16, literal(-12)))
        CFI (cfiCond150) VB load(1, XDATA, add(CFA_XSP16, literal(-11)))
        CFI (cfiCond150) V0 load(1, XDATA, add(CFA_XSP16, literal(-10)))
        CFI (cfiCond150) V1 load(1, XDATA, add(CFA_XSP16, literal(-9)))
        CFI (cfiCond150) V2 load(1, XDATA, add(CFA_XSP16, literal(-8)))
        CFI (cfiCond150) V3 load(1, XDATA, add(CFA_XSP16, literal(-7)))
        CFI (cfiCond150) R7 load(1, XDATA, add(CFA_XSP16, literal(-6)))
        CFI (cfiCond150) ?RET_LOW load(1, XDATA, add(CFA_XSP16, literal(-5)))
        CFI (cfiCond150) ?RET_HIGH load(1, XDATA, add(CFA_XSP16, literal(-4)))
        CFI (cfiCond150) ?BRET_EXT load(1, XDATA, add(CFA_XSP16, literal(-3)))
        CFI (cfiCond150) DPL0 load(1, XDATA, add(CFA_XSP16, literal(-2)))
        CFI (cfiCond150) DPH0 load(1, XDATA, add(CFA_XSP16, literal(-1)))
        CFI (cfiCond150) CFA_SP SP+0
        CFI (cfiCond150) CFA_XSP16 add(XSP16, 33)
        CFI Block cfiCond151 Using cfiCommon0
        CFI (cfiCond151) NoFunction
        CFI (cfiCond151) Conditional ??CrossCallReturnLabel_79, ??CrossCallReturnLabel_125
        CFI (cfiCond151) R6 load(1, XDATA, add(CFA_XSP16, literal(-12)))
        CFI (cfiCond151) VB load(1, XDATA, add(CFA_XSP16, literal(-11)))
        CFI (cfiCond151) V0 load(1, XDATA, add(CFA_XSP16, literal(-10)))
        CFI (cfiCond151) V1 load(1, XDATA, add(CFA_XSP16, literal(-9)))
        CFI (cfiCond151) V2 load(1, XDATA, add(CFA_XSP16, literal(-8)))
        CFI (cfiCond151) V3 load(1, XDATA, add(CFA_XSP16, literal(-7)))
        CFI (cfiCond151) R7 load(1, XDATA, add(CFA_XSP16, literal(-6)))
        CFI (cfiCond151) ?RET_LOW load(1, XDATA, add(CFA_XSP16, literal(-5)))
        CFI (cfiCond151) ?RET_HIGH load(1, XDATA, add(CFA_XSP16, literal(-4)))
        CFI (cfiCond151) ?BRET_EXT load(1, XDATA, add(CFA_XSP16, literal(-3)))
        CFI (cfiCond151) DPL0 load(1, XDATA, add(CFA_XSP16, literal(-2)))
        CFI (cfiCond151) DPH0 load(1, XDATA, add(CFA_XSP16, literal(-1)))
        CFI (cfiCond151) CFA_SP SP+0
        CFI (cfiCond151) CFA_XSP16 add(XSP16, 33)
        CFI Block cfiPicker152 Using cfiCommon1
        CFI (cfiPicker152) NoFunction
        CFI (cfiPicker152) Picker
        MOVX    A,@DPTR
        MOV     R0,A
        INC     DPTR
        MOVX    A,@DPTR
        MOV     DPH,A
        MOV     DPL,R0
        RET
        CFI EndBlock cfiCond147
        CFI EndBlock cfiCond148
        CFI EndBlock cfiCond149
        CFI EndBlock cfiCond150
        CFI EndBlock cfiCond151
        CFI EndBlock cfiPicker152

        RSEG BANKED_CODE:CODE:NOROOT(0)
?Subroutine20:
        CFI Block cfiCond153 Using cfiCommon0
        CFI NoFunction
        CFI Conditional ??CrossCallReturnLabel_28
        CFI R6 load(1, XDATA, add(CFA_XSP16, literal(-12)))
        CFI VB load(1, XDATA, add(CFA_XSP16, literal(-11)))
        CFI V0 load(1, XDATA, add(CFA_XSP16, literal(-10)))
        CFI V1 load(1, XDATA, add(CFA_XSP16, literal(-9)))
        CFI V2 load(1, XDATA, add(CFA_XSP16, literal(-8)))
        CFI V3 load(1, XDATA, add(CFA_XSP16, literal(-7)))
        CFI R7 load(1, XDATA, add(CFA_XSP16, literal(-6)))
        CFI ?RET_LOW load(1, XDATA, add(CFA_XSP16, literal(-5)))
        CFI ?RET_HIGH load(1, XDATA, add(CFA_XSP16, literal(-4)))
        CFI ?BRET_EXT load(1, XDATA, add(CFA_XSP16, literal(-3)))
        CFI DPL0 load(1, XDATA, add(CFA_XSP16, literal(-2)))
        CFI DPH0 load(1, XDATA, add(CFA_XSP16, literal(-1)))
        CFI CFA_SP SP+0
        CFI CFA_XSP16 add(XSP16, 40)
        CFI Block cfiCond154 Using cfiCommon0
        CFI (cfiCond154) NoFunction
        CFI (cfiCond154) Conditional ??CrossCallReturnLabel_29
        CFI (cfiCond154) R6 load(1, XDATA, add(CFA_XSP16, literal(-12)))
        CFI (cfiCond154) VB load(1, XDATA, add(CFA_XSP16, literal(-11)))
        CFI (cfiCond154) V0 load(1, XDATA, add(CFA_XSP16, literal(-10)))
        CFI (cfiCond154) V1 load(1, XDATA, add(CFA_XSP16, literal(-9)))
        CFI (cfiCond154) V2 load(1, XDATA, add(CFA_XSP16, literal(-8)))
        CFI (cfiCond154) V3 load(1, XDATA, add(CFA_XSP16, literal(-7)))
        CFI (cfiCond154) R7 load(1, XDATA, add(CFA_XSP16, literal(-6)))
        CFI (cfiCond154) ?RET_LOW load(1, XDATA, add(CFA_XSP16, literal(-5)))
        CFI (cfiCond154) ?RET_HIGH load(1, XDATA, add(CFA_XSP16, literal(-4)))
        CFI (cfiCond154) ?BRET_EXT load(1, XDATA, add(CFA_XSP16, literal(-3)))
        CFI (cfiCond154) DPL0 load(1, XDATA, add(CFA_XSP16, literal(-2)))
        CFI (cfiCond154) DPH0 load(1, XDATA, add(CFA_XSP16, literal(-1)))
        CFI (cfiCond154) CFA_SP SP+0
        CFI (cfiCond154) CFA_XSP16 add(XSP16, 40)
        CFI Block cfiPicker155 Using cfiCommon1
        CFI (cfiPicker155) NoFunction
        CFI (cfiPicker155) Picker
        MOVX    A,@DPTR
        ADD     A,#0x14
        LCALL   ?Subroutine48 & 0xFFFF
??CrossCallReturnLabel_104:
        MOV     R1,A
        LCALL   ??zcl_SendDefaultRspCmd?relay
        MOV     A,#0x7
        RET
        CFI EndBlock cfiCond153
        CFI EndBlock cfiCond154
        CFI EndBlock cfiPicker155

        RSEG BANKED_CODE:CODE:NOROOT(0)
?Subroutine19:
        CFI Block cfiCond156 Using cfiCommon0
        CFI NoFunction
        CFI Conditional ??CrossCallReturnLabel_26
        CFI R6 load(1, XDATA, add(CFA_XSP16, literal(-12)))
        CFI VB load(1, XDATA, add(CFA_XSP16, literal(-11)))
        CFI V0 load(1, XDATA, add(CFA_XSP16, literal(-10)))
        CFI V1 load(1, XDATA, add(CFA_XSP16, literal(-9)))
        CFI V2 load(1, XDATA, add(CFA_XSP16, literal(-8)))
        CFI V3 load(1, XDATA, add(CFA_XSP16, literal(-7)))
        CFI R7 load(1, XDATA, add(CFA_XSP16, literal(-6)))
        CFI ?RET_LOW load(1, XDATA, add(CFA_XSP16, literal(-5)))
        CFI ?RET_HIGH load(1, XDATA, add(CFA_XSP16, literal(-4)))
        CFI ?BRET_EXT load(1, XDATA, add(CFA_XSP16, literal(-3)))
        CFI DPL0 load(1, XDATA, add(CFA_XSP16, literal(-2)))
        CFI DPH0 load(1, XDATA, add(CFA_XSP16, literal(-1)))
        CFI CFA_SP SP+0
        CFI CFA_XSP16 add(XSP16, 33)
        CFI Block cfiCond157 Using cfiCommon0
        CFI (cfiCond157) NoFunction
        CFI (cfiCond157) Conditional ??CrossCallReturnLabel_27
        CFI (cfiCond157) R6 load(1, XDATA, add(CFA_XSP16, literal(-12)))
        CFI (cfiCond157) VB load(1, XDATA, add(CFA_XSP16, literal(-11)))
        CFI (cfiCond157) V0 load(1, XDATA, add(CFA_XSP16, literal(-10)))
        CFI (cfiCond157) V1 load(1, XDATA, add(CFA_XSP16, literal(-9)))
        CFI (cfiCond157) V2 load(1, XDATA, add(CFA_XSP16, literal(-8)))
        CFI (cfiCond157) V3 load(1, XDATA, add(CFA_XSP16, literal(-7)))
        CFI (cfiCond157) R7 load(1, XDATA, add(CFA_XSP16, literal(-6)))
        CFI (cfiCond157) ?RET_LOW load(1, XDATA, add(CFA_XSP16, literal(-5)))
        CFI (cfiCond157) ?RET_HIGH load(1, XDATA, add(CFA_XSP16, literal(-4)))
        CFI (cfiCond157) ?BRET_EXT load(1, XDATA, add(CFA_XSP16, literal(-3)))
        CFI (cfiCond157) DPL0 load(1, XDATA, add(CFA_XSP16, literal(-2)))
        CFI (cfiCond157) DPH0 load(1, XDATA, add(CFA_XSP16, literal(-1)))
        CFI (cfiCond157) CFA_SP SP+0
        CFI (cfiCond157) CFA_XSP16 add(XSP16, 33)
        CFI Block cfiPicker158 Using cfiCommon1
        CFI (cfiPicker158) NoFunction
        CFI (cfiPicker158) Picker
        MOV     DPL,R6
        MOV     DPH,R7
        INC     DPTR
        INC     DPTR
        INC     DPTR
        INC     DPTR
        LCALL   ?Subroutine44 & 0xFFFF
??CrossCallReturnLabel_76:
        LCALL   ??zclSetSecurityOption?relay
        RET
        CFI EndBlock cfiCond156
        CFI EndBlock cfiCond157
        CFI EndBlock cfiPicker158

        RSEG BANKED_CODE:CODE:NOROOT(0)
?Subroutine18:
        CFI Block cfiCond159 Using cfiCommon0
        CFI NoFunction
        CFI Conditional ??CrossCallReturnLabel_22
        CFI R6 load(1, XDATA, add(CFA_XSP16, literal(-12)))
        CFI VB load(1, XDATA, add(CFA_XSP16, literal(-11)))
        CFI V0 load(1, XDATA, add(CFA_XSP16, literal(-10)))
        CFI V1 load(1, XDATA, add(CFA_XSP16, literal(-9)))
        CFI V2 load(1, XDATA, add(CFA_XSP16, literal(-8)))
        CFI V3 load(1, XDATA, add(CFA_XSP16, literal(-7)))
        CFI R7 load(1, XDATA, add(CFA_XSP16, literal(-6)))
        CFI ?RET_LOW load(1, XDATA, add(CFA_XSP16, literal(-5)))
        CFI ?RET_HIGH load(1, XDATA, add(CFA_XSP16, literal(-4)))
        CFI ?BRET_EXT load(1, XDATA, add(CFA_XSP16, literal(-3)))
        CFI DPL0 load(1, XDATA, add(CFA_XSP16, literal(-2)))
        CFI DPH0 load(1, XDATA, add(CFA_XSP16, literal(-1)))
        CFI CFA_SP SP+0
        CFI CFA_XSP16 add(XSP16, 33)
        CFI Block cfiCond160 Using cfiCommon0
        CFI (cfiCond160) NoFunction
        CFI (cfiCond160) Conditional ??CrossCallReturnLabel_23
        CFI (cfiCond160) R6 load(1, XDATA, add(CFA_XSP16, literal(-12)))
        CFI (cfiCond160) VB load(1, XDATA, add(CFA_XSP16, literal(-11)))
        CFI (cfiCond160) V0 load(1, XDATA, add(CFA_XSP16, literal(-10)))
        CFI (cfiCond160) V1 load(1, XDATA, add(CFA_XSP16, literal(-9)))
        CFI (cfiCond160) V2 load(1, XDATA, add(CFA_XSP16, literal(-8)))
        CFI (cfiCond160) V3 load(1, XDATA, add(CFA_XSP16, literal(-7)))
        CFI (cfiCond160) R7 load(1, XDATA, add(CFA_XSP16, literal(-6)))
        CFI (cfiCond160) ?RET_LOW load(1, XDATA, add(CFA_XSP16, literal(-5)))
        CFI (cfiCond160) ?RET_HIGH load(1, XDATA, add(CFA_XSP16, literal(-4)))
        CFI (cfiCond160) ?BRET_EXT load(1, XDATA, add(CFA_XSP16, literal(-3)))
        CFI (cfiCond160) DPL0 load(1, XDATA, add(CFA_XSP16, literal(-2)))
        CFI (cfiCond160) DPH0 load(1, XDATA, add(CFA_XSP16, literal(-1)))
        CFI (cfiCond160) CFA_SP SP+0
        CFI (cfiCond160) CFA_XSP16 add(XSP16, 33)
        CFI Block cfiCond161 Using cfiCommon0
        CFI (cfiCond161) NoFunction
        CFI (cfiCond161) Conditional ??CrossCallReturnLabel_24
        CFI (cfiCond161) R6 load(1, XDATA, add(CFA_XSP16, literal(-12)))
        CFI (cfiCond161) VB load(1, XDATA, add(CFA_XSP16, literal(-11)))
        CFI (cfiCond161) V0 load(1, XDATA, add(CFA_XSP16, literal(-10)))
        CFI (cfiCond161) V1 load(1, XDATA, add(CFA_XSP16, literal(-9)))
        CFI (cfiCond161) V2 load(1, XDATA, add(CFA_XSP16, literal(-8)))
        CFI (cfiCond161) V3 load(1, XDATA, add(CFA_XSP16, literal(-7)))
        CFI (cfiCond161) R7 load(1, XDATA, add(CFA_XSP16, literal(-6)))
        CFI (cfiCond161) ?RET_LOW load(1, XDATA, add(CFA_XSP16, literal(-5)))
        CFI (cfiCond161) ?RET_HIGH load(1, XDATA, add(CFA_XSP16, literal(-4)))
        CFI (cfiCond161) ?BRET_EXT load(1, XDATA, add(CFA_XSP16, literal(-3)))
        CFI (cfiCond161) DPL0 load(1, XDATA, add(CFA_XSP16, literal(-2)))
        CFI (cfiCond161) DPH0 load(1, XDATA, add(CFA_XSP16, literal(-1)))
        CFI (cfiCond161) CFA_SP SP+0
        CFI (cfiCond161) CFA_XSP16 add(XSP16, 33)
        CFI Block cfiCond162 Using cfiCommon0
        CFI (cfiCond162) NoFunction
        CFI (cfiCond162) Conditional ??CrossCallReturnLabel_25
        CFI (cfiCond162) R6 load(1, XDATA, add(CFA_XSP16, literal(-12)))
        CFI (cfiCond162) VB load(1, XDATA, add(CFA_XSP16, literal(-11)))
        CFI (cfiCond162) V0 load(1, XDATA, add(CFA_XSP16, literal(-10)))
        CFI (cfiCond162) V1 load(1, XDATA, add(CFA_XSP16, literal(-9)))
        CFI (cfiCond162) V2 load(1, XDATA, add(CFA_XSP16, literal(-8)))
        CFI (cfiCond162) V3 load(1, XDATA, add(CFA_XSP16, literal(-7)))
        CFI (cfiCond162) R7 load(1, XDATA, add(CFA_XSP16, literal(-6)))
        CFI (cfiCond162) ?RET_LOW load(1, XDATA, add(CFA_XSP16, literal(-5)))
        CFI (cfiCond162) ?RET_HIGH load(1, XDATA, add(CFA_XSP16, literal(-4)))
        CFI (cfiCond162) ?BRET_EXT load(1, XDATA, add(CFA_XSP16, literal(-3)))
        CFI (cfiCond162) DPL0 load(1, XDATA, add(CFA_XSP16, literal(-2)))
        CFI (cfiCond162) DPH0 load(1, XDATA, add(CFA_XSP16, literal(-1)))
        CFI (cfiCond162) CFA_SP SP+0
        CFI (cfiCond162) CFA_XSP16 add(XSP16, 33)
        CFI Block cfiPicker163 Using cfiCommon1
        CFI (cfiPicker163) NoFunction
        CFI (cfiPicker163) Picker
        MOVX    A,@DPTR
        MOV     ?V0 + 0,A
        MOV     ?V0 + 1,#0x0
        MOV     A,#0x2
        MOV     R0,#?V0 + 0
        RET
        CFI EndBlock cfiCond159
        CFI EndBlock cfiCond160
        CFI EndBlock cfiCond161
        CFI EndBlock cfiCond162
        CFI EndBlock cfiPicker163

        RSEG BANKED_CODE:CODE:NOROOT(0)
?Subroutine15:
        CFI Block cfiCond164 Using cfiCommon0
        CFI NoFunction
        CFI Conditional ??CrossCallReturnLabel_110
        CFI R6 load(1, XDATA, add(CFA_XSP16, literal(-12)))
        CFI VB load(1, XDATA, add(CFA_XSP16, literal(-11)))
        CFI V0 load(1, XDATA, add(CFA_XSP16, literal(-10)))
        CFI V1 load(1, XDATA, add(CFA_XSP16, literal(-9)))
        CFI V2 load(1, XDATA, add(CFA_XSP16, literal(-8)))
        CFI V3 load(1, XDATA, add(CFA_XSP16, literal(-7)))
        CFI R7 load(1, XDATA, add(CFA_XSP16, literal(-6)))
        CFI ?RET_LOW load(1, XDATA, add(CFA_XSP16, literal(-5)))
        CFI ?RET_HIGH load(1, XDATA, add(CFA_XSP16, literal(-4)))
        CFI ?BRET_EXT load(1, XDATA, add(CFA_XSP16, literal(-3)))
        CFI DPL0 load(1, XDATA, add(CFA_XSP16, literal(-2)))
        CFI DPH0 load(1, XDATA, add(CFA_XSP16, literal(-1)))
        CFI CFA_SP SP+0
        CFI CFA_XSP16 add(XSP16, 33)
        CFI Block cfiCond165 Using cfiCommon0
        CFI (cfiCond165) NoFunction
        CFI (cfiCond165) Conditional ??CrossCallReturnLabel_111
        CFI (cfiCond165) R6 load(1, XDATA, add(CFA_XSP16, literal(-12)))
        CFI (cfiCond165) VB load(1, XDATA, add(CFA_XSP16, literal(-11)))
        CFI (cfiCond165) V0 load(1, XDATA, add(CFA_XSP16, literal(-10)))
        CFI (cfiCond165) V1 load(1, XDATA, add(CFA_XSP16, literal(-9)))
        CFI (cfiCond165) V2 load(1, XDATA, add(CFA_XSP16, literal(-8)))
        CFI (cfiCond165) V3 load(1, XDATA, add(CFA_XSP16, literal(-7)))
        CFI (cfiCond165) R7 load(1, XDATA, add(CFA_XSP16, literal(-6)))
        CFI (cfiCond165) ?RET_LOW load(1, XDATA, add(CFA_XSP16, literal(-5)))
        CFI (cfiCond165) ?RET_HIGH load(1, XDATA, add(CFA_XSP16, literal(-4)))
        CFI (cfiCond165) ?BRET_EXT load(1, XDATA, add(CFA_XSP16, literal(-3)))
        CFI (cfiCond165) DPL0 load(1, XDATA, add(CFA_XSP16, literal(-2)))
        CFI (cfiCond165) DPH0 load(1, XDATA, add(CFA_XSP16, literal(-1)))
        CFI (cfiCond165) CFA_SP SP+0
        CFI (cfiCond165) CFA_XSP16 add(XSP16, 33)
        CFI Block cfiCond166 Using cfiCommon0
        CFI (cfiCond166) NoFunction
        CFI (cfiCond166) Conditional ??CrossCallReturnLabel_112
        CFI (cfiCond166) R6 load(1, XDATA, add(CFA_XSP16, literal(-12)))
        CFI (cfiCond166) VB load(1, XDATA, add(CFA_XSP16, literal(-11)))
        CFI (cfiCond166) V0 load(1, XDATA, add(CFA_XSP16, literal(-10)))
        CFI (cfiCond166) V1 load(1, XDATA, add(CFA_XSP16, literal(-9)))
        CFI (cfiCond166) V2 load(1, XDATA, add(CFA_XSP16, literal(-8)))
        CFI (cfiCond166) V3 load(1, XDATA, add(CFA_XSP16, literal(-7)))
        CFI (cfiCond166) R7 load(1, XDATA, add(CFA_XSP16, literal(-6)))
        CFI (cfiCond166) ?RET_LOW load(1, XDATA, add(CFA_XSP16, literal(-5)))
        CFI (cfiCond166) ?RET_HIGH load(1, XDATA, add(CFA_XSP16, literal(-4)))
        CFI (cfiCond166) ?BRET_EXT load(1, XDATA, add(CFA_XSP16, literal(-3)))
        CFI (cfiCond166) DPL0 load(1, XDATA, add(CFA_XSP16, literal(-2)))
        CFI (cfiCond166) DPH0 load(1, XDATA, add(CFA_XSP16, literal(-1)))
        CFI (cfiCond166) CFA_SP SP+0
        CFI (cfiCond166) CFA_XSP16 add(XSP16, 33)
        CFI Block cfiCond167 Using cfiCommon0
        CFI (cfiCond167) NoFunction
        CFI (cfiCond167) Conditional ??CrossCallReturnLabel_113
        CFI (cfiCond167) R6 load(1, XDATA, add(CFA_XSP16, literal(-12)))
        CFI (cfiCond167) VB load(1, XDATA, add(CFA_XSP16, literal(-11)))
        CFI (cfiCond167) V0 load(1, XDATA, add(CFA_XSP16, literal(-10)))
        CFI (cfiCond167) V1 load(1, XDATA, add(CFA_XSP16, literal(-9)))
        CFI (cfiCond167) V2 load(1, XDATA, add(CFA_XSP16, literal(-8)))
        CFI (cfiCond167) V3 load(1, XDATA, add(CFA_XSP16, literal(-7)))
        CFI (cfiCond167) R7 load(1, XDATA, add(CFA_XSP16, literal(-6)))
        CFI (cfiCond167) ?RET_LOW load(1, XDATA, add(CFA_XSP16, literal(-5)))
        CFI (cfiCond167) ?RET_HIGH load(1, XDATA, add(CFA_XSP16, literal(-4)))
        CFI (cfiCond167) ?BRET_EXT load(1, XDATA, add(CFA_XSP16, literal(-3)))
        CFI (cfiCond167) DPL0 load(1, XDATA, add(CFA_XSP16, literal(-2)))
        CFI (cfiCond167) DPH0 load(1, XDATA, add(CFA_XSP16, literal(-1)))
        CFI (cfiCond167) CFA_SP SP+0
        CFI (cfiCond167) CFA_XSP16 add(XSP16, 33)
        CFI Block cfiCond168 Using cfiCommon0
        CFI (cfiCond168) NoFunction
        CFI (cfiCond168) Conditional ??CrossCallReturnLabel_114
        CFI (cfiCond168) R6 load(1, XDATA, add(CFA_XSP16, literal(-12)))
        CFI (cfiCond168) VB load(1, XDATA, add(CFA_XSP16, literal(-11)))
        CFI (cfiCond168) V0 load(1, XDATA, add(CFA_XSP16, literal(-10)))
        CFI (cfiCond168) V1 load(1, XDATA, add(CFA_XSP16, literal(-9)))
        CFI (cfiCond168) V2 load(1, XDATA, add(CFA_XSP16, literal(-8)))
        CFI (cfiCond168) V3 load(1, XDATA, add(CFA_XSP16, literal(-7)))
        CFI (cfiCond168) R7 load(1, XDATA, add(CFA_XSP16, literal(-6)))
        CFI (cfiCond168) ?RET_LOW load(1, XDATA, add(CFA_XSP16, literal(-5)))
        CFI (cfiCond168) ?RET_HIGH load(1, XDATA, add(CFA_XSP16, literal(-4)))
        CFI (cfiCond168) ?BRET_EXT load(1, XDATA, add(CFA_XSP16, literal(-3)))
        CFI (cfiCond168) DPL0 load(1, XDATA, add(CFA_XSP16, literal(-2)))
        CFI (cfiCond168) DPH0 load(1, XDATA, add(CFA_XSP16, literal(-1)))
        CFI (cfiCond168) CFA_SP SP+0
        CFI (cfiCond168) CFA_XSP16 add(XSP16, 33)
        CFI Block cfiPicker169 Using cfiCommon1
        CFI (cfiPicker169) NoFunction
        CFI (cfiPicker169) Picker
        MOV     A,R0
        CFI EndBlock cfiCond164
        CFI EndBlock cfiCond165
        CFI EndBlock cfiCond166
        CFI EndBlock cfiCond167
        CFI EndBlock cfiCond168
        CFI EndBlock cfiPicker169
        REQUIRE ??Subroutine58_0
        ; // Fall through to label ??Subroutine58_0

        RSEG BANKED_CODE:CODE:NOROOT(0)
??Subroutine58_0:
        CFI Block cfiCond170 Using cfiCommon0
        CFI NoFunction
        CFI Conditional ??CrossCallReturnLabel_109
        CFI R6 load(1, XDATA, add(CFA_XSP16, literal(-12)))
        CFI VB load(1, XDATA, add(CFA_XSP16, literal(-11)))
        CFI V0 load(1, XDATA, add(CFA_XSP16, literal(-10)))
        CFI V1 load(1, XDATA, add(CFA_XSP16, literal(-9)))
        CFI V2 load(1, XDATA, add(CFA_XSP16, literal(-8)))
        CFI V3 load(1, XDATA, add(CFA_XSP16, literal(-7)))
        CFI R7 load(1, XDATA, add(CFA_XSP16, literal(-6)))
        CFI ?RET_LOW load(1, XDATA, add(CFA_XSP16, literal(-5)))
        CFI ?RET_HIGH load(1, XDATA, add(CFA_XSP16, literal(-4)))
        CFI ?BRET_EXT load(1, XDATA, add(CFA_XSP16, literal(-3)))
        CFI DPL0 load(1, XDATA, add(CFA_XSP16, literal(-2)))
        CFI DPH0 load(1, XDATA, add(CFA_XSP16, literal(-1)))
        CFI CFA_SP SP+0
        CFI CFA_XSP16 add(XSP16, 12)
        CFI Block cfiCond171 Using cfiCommon0
        CFI (cfiCond171) NoFunction
        CFI (cfiCond171) Conditional ??CrossCallReturnLabel_110
        CFI (cfiCond171) R6 load(1, XDATA, add(CFA_XSP16, literal(-12)))
        CFI (cfiCond171) VB load(1, XDATA, add(CFA_XSP16, literal(-11)))
        CFI (cfiCond171) V0 load(1, XDATA, add(CFA_XSP16, literal(-10)))
        CFI (cfiCond171) V1 load(1, XDATA, add(CFA_XSP16, literal(-9)))
        CFI (cfiCond171) V2 load(1, XDATA, add(CFA_XSP16, literal(-8)))
        CFI (cfiCond171) V3 load(1, XDATA, add(CFA_XSP16, literal(-7)))
        CFI (cfiCond171) R7 load(1, XDATA, add(CFA_XSP16, literal(-6)))
        CFI (cfiCond171) ?RET_LOW load(1, XDATA, add(CFA_XSP16, literal(-5)))
        CFI (cfiCond171) ?RET_HIGH load(1, XDATA, add(CFA_XSP16, literal(-4)))
        CFI (cfiCond171) ?BRET_EXT load(1, XDATA, add(CFA_XSP16, literal(-3)))
        CFI (cfiCond171) DPL0 load(1, XDATA, add(CFA_XSP16, literal(-2)))
        CFI (cfiCond171) DPH0 load(1, XDATA, add(CFA_XSP16, literal(-1)))
        CFI (cfiCond171) CFA_SP SP+0
        CFI (cfiCond171) CFA_XSP16 add(XSP16, 33)
        CFI Block cfiCond172 Using cfiCommon0
        CFI (cfiCond172) NoFunction
        CFI (cfiCond172) Conditional ??CrossCallReturnLabel_111
        CFI (cfiCond172) R6 load(1, XDATA, add(CFA_XSP16, literal(-12)))
        CFI (cfiCond172) VB load(1, XDATA, add(CFA_XSP16, literal(-11)))
        CFI (cfiCond172) V0 load(1, XDATA, add(CFA_XSP16, literal(-10)))
        CFI (cfiCond172) V1 load(1, XDATA, add(CFA_XSP16, literal(-9)))
        CFI (cfiCond172) V2 load(1, XDATA, add(CFA_XSP16, literal(-8)))
        CFI (cfiCond172) V3 load(1, XDATA, add(CFA_XSP16, literal(-7)))
        CFI (cfiCond172) R7 load(1, XDATA, add(CFA_XSP16, literal(-6)))
        CFI (cfiCond172) ?RET_LOW load(1, XDATA, add(CFA_XSP16, literal(-5)))
        CFI (cfiCond172) ?RET_HIGH load(1, XDATA, add(CFA_XSP16, literal(-4)))
        CFI (cfiCond172) ?BRET_EXT load(1, XDATA, add(CFA_XSP16, literal(-3)))
        CFI (cfiCond172) DPL0 load(1, XDATA, add(CFA_XSP16, literal(-2)))
        CFI (cfiCond172) DPH0 load(1, XDATA, add(CFA_XSP16, literal(-1)))
        CFI (cfiCond172) CFA_SP SP+0
        CFI (cfiCond172) CFA_XSP16 add(XSP16, 33)
        CFI Block cfiCond173 Using cfiCommon0
        CFI (cfiCond173) NoFunction
        CFI (cfiCond173) Conditional ??CrossCallReturnLabel_112
        CFI (cfiCond173) R6 load(1, XDATA, add(CFA_XSP16, literal(-12)))
        CFI (cfiCond173) VB load(1, XDATA, add(CFA_XSP16, literal(-11)))
        CFI (cfiCond173) V0 load(1, XDATA, add(CFA_XSP16, literal(-10)))
        CFI (cfiCond173) V1 load(1, XDATA, add(CFA_XSP16, literal(-9)))
        CFI (cfiCond173) V2 load(1, XDATA, add(CFA_XSP16, literal(-8)))
        CFI (cfiCond173) V3 load(1, XDATA, add(CFA_XSP16, literal(-7)))
        CFI (cfiCond173) R7 load(1, XDATA, add(CFA_XSP16, literal(-6)))
        CFI (cfiCond173) ?RET_LOW load(1, XDATA, add(CFA_XSP16, literal(-5)))
        CFI (cfiCond173) ?RET_HIGH load(1, XDATA, add(CFA_XSP16, literal(-4)))
        CFI (cfiCond173) ?BRET_EXT load(1, XDATA, add(CFA_XSP16, literal(-3)))
        CFI (cfiCond173) DPL0 load(1, XDATA, add(CFA_XSP16, literal(-2)))
        CFI (cfiCond173) DPH0 load(1, XDATA, add(CFA_XSP16, literal(-1)))
        CFI (cfiCond173) CFA_SP SP+0
        CFI (cfiCond173) CFA_XSP16 add(XSP16, 33)
        CFI Block cfiCond174 Using cfiCommon0
        CFI (cfiCond174) NoFunction
        CFI (cfiCond174) Conditional ??CrossCallReturnLabel_113
        CFI (cfiCond174) R6 load(1, XDATA, add(CFA_XSP16, literal(-12)))
        CFI (cfiCond174) VB load(1, XDATA, add(CFA_XSP16, literal(-11)))
        CFI (cfiCond174) V0 load(1, XDATA, add(CFA_XSP16, literal(-10)))
        CFI (cfiCond174) V1 load(1, XDATA, add(CFA_XSP16, literal(-9)))
        CFI (cfiCond174) V2 load(1, XDATA, add(CFA_XSP16, literal(-8)))
        CFI (cfiCond174) V3 load(1, XDATA, add(CFA_XSP16, literal(-7)))
        CFI (cfiCond174) R7 load(1, XDATA, add(CFA_XSP16, literal(-6)))
        CFI (cfiCond174) ?RET_LOW load(1, XDATA, add(CFA_XSP16, literal(-5)))
        CFI (cfiCond174) ?RET_HIGH load(1, XDATA, add(CFA_XSP16, literal(-4)))
        CFI (cfiCond174) ?BRET_EXT load(1, XDATA, add(CFA_XSP16, literal(-3)))
        CFI (cfiCond174) DPL0 load(1, XDATA, add(CFA_XSP16, literal(-2)))
        CFI (cfiCond174) DPH0 load(1, XDATA, add(CFA_XSP16, literal(-1)))
        CFI (cfiCond174) CFA_SP SP+0
        CFI (cfiCond174) CFA_XSP16 add(XSP16, 33)
        CFI Block cfiCond175 Using cfiCommon0
        CFI (cfiCond175) NoFunction
        CFI (cfiCond175) Conditional ??CrossCallReturnLabel_114
        CFI (cfiCond175) R6 load(1, XDATA, add(CFA_XSP16, literal(-12)))
        CFI (cfiCond175) VB load(1, XDATA, add(CFA_XSP16, literal(-11)))
        CFI (cfiCond175) V0 load(1, XDATA, add(CFA_XSP16, literal(-10)))
        CFI (cfiCond175) V1 load(1, XDATA, add(CFA_XSP16, literal(-9)))
        CFI (cfiCond175) V2 load(1, XDATA, add(CFA_XSP16, literal(-8)))
        CFI (cfiCond175) V3 load(1, XDATA, add(CFA_XSP16, literal(-7)))
        CFI (cfiCond175) R7 load(1, XDATA, add(CFA_XSP16, literal(-6)))
        CFI (cfiCond175) ?RET_LOW load(1, XDATA, add(CFA_XSP16, literal(-5)))
        CFI (cfiCond175) ?RET_HIGH load(1, XDATA, add(CFA_XSP16, literal(-4)))
        CFI (cfiCond175) ?BRET_EXT load(1, XDATA, add(CFA_XSP16, literal(-3)))
        CFI (cfiCond175) DPL0 load(1, XDATA, add(CFA_XSP16, literal(-2)))
        CFI (cfiCond175) DPH0 load(1, XDATA, add(CFA_XSP16, literal(-1)))
        CFI (cfiCond175) CFA_SP SP+0
        CFI (cfiCond175) CFA_XSP16 add(XSP16, 33)
        CFI Block cfiPicker176 Using cfiCommon1
        CFI (cfiPicker176) NoFunction
        CFI (cfiPicker176) Picker
        MOVX    @DPTR,A
        INC     DPTR
        MOV     A,R1
        MOVX    @DPTR,A
        RET
        CFI EndBlock cfiCond170
        CFI EndBlock cfiCond171
        CFI EndBlock cfiCond172
        CFI EndBlock cfiCond173
        CFI EndBlock cfiCond174
        CFI EndBlock cfiCond175
        CFI EndBlock cfiPicker176
// 1715 
// 1716 /*********************************************************************
// 1717  * @fn      zclParseHdr
// 1718  *
// 1719  * @brief   Parse header of the ZCL format
// 1720  *
// 1721  * @param   hdr - place to put the frame control information
// 1722  * @param   pData - incoming buffer to parse
// 1723  *
// 1724  * @return  pointer past the header
// 1725  */

        RSEG BANKED_CODE:CODE:NOROOT(0)
// 1726 uint8 *zclParseHdr( zclFrameHdr_t *hdr, uint8 *pData )
zclParseHdr:
        CFI Block cfiBlock177 Using cfiCommon0
        CFI Function zclParseHdr
        CODE
// 1727 {
        FUNCALL zclParseHdr, osal_memset
        LOCFRAME ISTACK, 0, STACK
        LOCFRAME PSTACK, 0, STACK
        LOCFRAME XSTACK, 12, STACK
        LOCFRAME IOVERLAY, 0, STATIC
        LOCFRAME DOVERLAY, 0, STATIC
        ARGFRAME ISTACK, 0, STACK
        ARGFRAME PSTACK, 0, STACK
        ARGFRAME XSTACK, 12, STACK
        ARGFRAME IOVERLAY, 0, STATIC
        ARGFRAME DOVERLAY, 0, STATIC
        MOV     A,#-0xc
        LCALL   ?BANKED_ENTER_XDATA
        CFI DPH0 load(1, XDATA, add(CFA_XSP16, literal(-1)))
        CFI DPL0 load(1, XDATA, add(CFA_XSP16, literal(-2)))
        CFI ?BRET_EXT load(1, XDATA, add(CFA_XSP16, literal(-3)))
        CFI ?RET_HIGH load(1, XDATA, add(CFA_XSP16, literal(-4)))
        CFI ?RET_LOW load(1, XDATA, add(CFA_XSP16, literal(-5)))
        CFI R7 load(1, XDATA, add(CFA_XSP16, literal(-6)))
        CFI V3 load(1, XDATA, add(CFA_XSP16, literal(-7)))
        CFI V2 load(1, XDATA, add(CFA_XSP16, literal(-8)))
        CFI V1 load(1, XDATA, add(CFA_XSP16, literal(-9)))
        CFI V0 load(1, XDATA, add(CFA_XSP16, literal(-10)))
        CFI VB load(1, XDATA, add(CFA_XSP16, literal(-11)))
        CFI R6 load(1, XDATA, add(CFA_XSP16, literal(-12)))
        CFI CFA_SP SP+0
        CFI CFA_XSP16 add(XSP16, 12)
        ; Saved register size: 12
        ; Auto size: 0
        MOV     ?V0 + 0,R2
        MOV     ?V0 + 1,R3
        MOV     A,R4
        MOV     R6,A
        MOV     A,R5
        MOV     R7,A
// 1728   // Clear the header
// 1729   osal_memset( (uint8 *)hdr, 0, sizeof ( zclFrameHdr_t ) );
        ; Setup parameters for call to function osal_memset
        MOV     R4,#0x6
        MOV     R5,#0x0
        MOV     R1,#0x0
        LCALL   ??osal_memset?relay
// 1730 
// 1731   // Parse the Frame Control
// 1732   hdr->fc.type = zcl_FCType( *pData );
        MOV     DPL,?V0 + 0
        MOV     DPH,?V0 + 1
        MOVX    A,@DPTR
        ANL     A,#0xfc
        MOV     R0,A
        INC     DPTR
        MOVX    A,@DPTR
        MOV     R1,A
        MOV     DPL,R6
        MOV     DPH,R7
        MOVX    A,@DPTR
        ANL     A,#0x3
        MOV     R2,A
        MOV     A,R0
        ORL     A,R2
        MOV     DPL,?V0 + 0
        MOV     DPH,?V0 + 1
        LCALL   ?Subroutine6 & 0xFFFF
// 1733   hdr->fc.manuSpecific = zcl_FCManuSpecific( *pData ) ? 1 : 0;
??CrossCallReturnLabel_2:
        MOV     C,0xE0 /* A   */.2
        JNC     ??zclParseHdr_0
        SETB    B.0
        SJMP    ??zclParseHdr_1
??zclParseHdr_0:
        CLR     B.0
??zclParseHdr_1:
        MOV     DPL,?V0 + 0
        MOV     DPH,?V0 + 1
        MOVX    A,@DPTR
        ANL     A,#0xfb
        MOV     R2,A
        MOV     C,B.0
        CLR     A
        RLC     A
        MOV     ?V0 + 2,A
        MOV     ?V0 + 3,#0x0
        MOV     A,#0x2
        MOV     R0,#?V0 + 2
        LCALL   ?S_SHL
        MOV     A,R2
        ORL     A,?V0 + 2
        LCALL   ?Subroutine6 & 0xFFFF
// 1734   if ( zcl_FCDirection( *pData ) )
??CrossCallReturnLabel_3:
        MOV     C,0xE0 /* A   */.3
        MOV     DPL,?V0 + 0
        MOV     DPH,?V0 + 1
        MOVX    A,@DPTR
        JNC     ??zclParseHdr_2
// 1735   {
// 1736     hdr->fc.direction = ZCL_FRAME_SERVER_CLIENT_DIR;
        ORL     A,#0x8
        SJMP    ??zclParseHdr_3
// 1737   }
// 1738   else
// 1739   {
// 1740     hdr->fc.direction = ZCL_FRAME_CLIENT_SERVER_DIR;
??zclParseHdr_2:
        ANL     A,#0xf7
// 1741   }
??zclParseHdr_3:
        LCALL   ?Subroutine43 & 0xFFFF
// 1742 
// 1743   hdr->fc.disableDefaultRsp = zcl_FCDisableDefaultRsp( *pData ) ? 1 : 0;
??CrossCallReturnLabel_72:
        MOVX    A,@DPTR
        MOV     C,0xE0 /* A   */.4
        JNC     ??zclParseHdr_4
        SETB    B.0
        SJMP    ??zclParseHdr_5
??zclParseHdr_4:
        CLR     B.0
??zclParseHdr_5:
        MOV     DPL,?V0 + 0
        MOV     DPH,?V0 + 1
        MOVX    A,@DPTR
        ANL     A,#0xef
        MOV     R2,A
        INC     DPTR
        MOVX    A,@DPTR
        MOV     R3,A
        MOV     C,B.0
        CLR     A
        RLC     A
        MOV     ?V0 + 2,A
        MOV     A,#0x4
        MOV     R0,#?V0 + 2
        LCALL   ?S_SHL
        MOV     A,R2
        ORL     A,?V0 + 2
        MOV     R0,A
        MOV     A,R3
        MOV     R1,A
        MOV     DPL,?V0 + 0
        MOV     DPH,?V0 + 1
        MOV     A,R0
        MOVX    @DPTR,A
        INC     DPTR
        MOV     A,R1
        LCALL   ?Subroutine11 & 0xFFFF
// 1744   pData++;  // move past the frame control field
// 1745 
// 1746   // parse the manfacturer code
// 1747   if ( hdr->fc.manuSpecific )
??CrossCallReturnLabel_11:
        MOV     A,R0
        ANL     A,#0x4
        JZ      ??zclParseHdr_6
// 1748   {
// 1749     hdr->manuCode = BUILD_UINT16( pData[0], pData[1] );
        MOVX    A,@DPTR
        MOV     R2,A
        INC     DPTR
        MOVX    A,@DPTR
        MOV     R1,A
        MOV     A,R2
        MOV     DPL,?V0 + 0
        MOV     DPH,?V0 + 1
        INC     DPTR
        INC     DPTR
        LCALL   ??Subroutine58_0 & 0xFFFF
// 1750     pData += 2;
??CrossCallReturnLabel_109:
        MOV     A,R6
        ADD     A,#0x2
        INC     R6
        INC     R6
        MOV     A,R7
        ADDC    A,#0x0
        MOV     R7,A
// 1751   }
// 1752 
// 1753   // parse the Transaction Sequence Number
// 1754   hdr->transSeqNum = *pData++;
??zclParseHdr_6:
        MOV     DPL,R6
        MOV     DPH,R7
        LCALL   ?Subroutine30 & 0xFFFF
??CrossCallReturnLabel_50:
        LCALL   ?Subroutine11 & 0xFFFF
// 1755 
// 1756   // parse the Cluster's command ID
// 1757   hdr->commandID = *pData++;
??CrossCallReturnLabel_12:
        LCALL   ?Subroutine30 & 0xFFFF
??CrossCallReturnLabel_51:
        INC     DPTR
        LCALL   ?Subroutine13 & 0xFFFF
// 1758 
// 1759   // Should point to the frame payload
// 1760   return ( pData );
??CrossCallReturnLabel_17:
        MOV     R2,DPL
        MOV     R3,DPH
        LJMP    ?Subroutine1 & 0xFFFF
        CFI EndBlock cfiBlock177
// 1761 }

        RSEG BANKED_CODE:CODE:NOROOT(0)
?Subroutine30:
        CFI Block cfiCond178 Using cfiCommon0
        CFI NoFunction
        CFI Conditional ??CrossCallReturnLabel_50
        CFI R6 load(1, XDATA, add(CFA_XSP16, literal(-12)))
        CFI VB load(1, XDATA, add(CFA_XSP16, literal(-11)))
        CFI V0 load(1, XDATA, add(CFA_XSP16, literal(-10)))
        CFI V1 load(1, XDATA, add(CFA_XSP16, literal(-9)))
        CFI V2 load(1, XDATA, add(CFA_XSP16, literal(-8)))
        CFI V3 load(1, XDATA, add(CFA_XSP16, literal(-7)))
        CFI R7 load(1, XDATA, add(CFA_XSP16, literal(-6)))
        CFI ?RET_LOW load(1, XDATA, add(CFA_XSP16, literal(-5)))
        CFI ?RET_HIGH load(1, XDATA, add(CFA_XSP16, literal(-4)))
        CFI ?BRET_EXT load(1, XDATA, add(CFA_XSP16, literal(-3)))
        CFI DPL0 load(1, XDATA, add(CFA_XSP16, literal(-2)))
        CFI DPH0 load(1, XDATA, add(CFA_XSP16, literal(-1)))
        CFI CFA_SP SP+0
        CFI CFA_XSP16 add(XSP16, 12)
        CFI Block cfiCond179 Using cfiCommon0
        CFI (cfiCond179) NoFunction
        CFI (cfiCond179) Conditional ??CrossCallReturnLabel_51
        CFI (cfiCond179) R6 load(1, XDATA, add(CFA_XSP16, literal(-12)))
        CFI (cfiCond179) VB load(1, XDATA, add(CFA_XSP16, literal(-11)))
        CFI (cfiCond179) V0 load(1, XDATA, add(CFA_XSP16, literal(-10)))
        CFI (cfiCond179) V1 load(1, XDATA, add(CFA_XSP16, literal(-9)))
        CFI (cfiCond179) V2 load(1, XDATA, add(CFA_XSP16, literal(-8)))
        CFI (cfiCond179) V3 load(1, XDATA, add(CFA_XSP16, literal(-7)))
        CFI (cfiCond179) R7 load(1, XDATA, add(CFA_XSP16, literal(-6)))
        CFI (cfiCond179) ?RET_LOW load(1, XDATA, add(CFA_XSP16, literal(-5)))
        CFI (cfiCond179) ?RET_HIGH load(1, XDATA, add(CFA_XSP16, literal(-4)))
        CFI (cfiCond179) ?BRET_EXT load(1, XDATA, add(CFA_XSP16, literal(-3)))
        CFI (cfiCond179) DPL0 load(1, XDATA, add(CFA_XSP16, literal(-2)))
        CFI (cfiCond179) DPH0 load(1, XDATA, add(CFA_XSP16, literal(-1)))
        CFI (cfiCond179) CFA_SP SP+0
        CFI (cfiCond179) CFA_XSP16 add(XSP16, 12)
        CFI Block cfiPicker180 Using cfiCommon1
        CFI (cfiPicker180) NoFunction
        CFI (cfiPicker180) Picker
        MOVX    A,@DPTR
        MOV     DPL,?V0 + 0
        MOV     DPH,?V0 + 1
        INC     DPTR
        INC     DPTR
        INC     DPTR
        INC     DPTR
        RET
        CFI EndBlock cfiCond178
        CFI EndBlock cfiCond179
        CFI EndBlock cfiPicker180

        RSEG BANKED_CODE:CODE:NOROOT(0)
?Subroutine11:
        CFI Block cfiCond181 Using cfiCommon0
        CFI NoFunction
        CFI Conditional ??CrossCallReturnLabel_11
        CFI R6 load(1, XDATA, add(CFA_XSP16, literal(-12)))
        CFI VB load(1, XDATA, add(CFA_XSP16, literal(-11)))
        CFI V0 load(1, XDATA, add(CFA_XSP16, literal(-10)))
        CFI V1 load(1, XDATA, add(CFA_XSP16, literal(-9)))
        CFI V2 load(1, XDATA, add(CFA_XSP16, literal(-8)))
        CFI V3 load(1, XDATA, add(CFA_XSP16, literal(-7)))
        CFI R7 load(1, XDATA, add(CFA_XSP16, literal(-6)))
        CFI ?RET_LOW load(1, XDATA, add(CFA_XSP16, literal(-5)))
        CFI ?RET_HIGH load(1, XDATA, add(CFA_XSP16, literal(-4)))
        CFI ?BRET_EXT load(1, XDATA, add(CFA_XSP16, literal(-3)))
        CFI DPL0 load(1, XDATA, add(CFA_XSP16, literal(-2)))
        CFI DPH0 load(1, XDATA, add(CFA_XSP16, literal(-1)))
        CFI CFA_SP SP+0
        CFI CFA_XSP16 add(XSP16, 12)
        CFI Block cfiCond182 Using cfiCommon0
        CFI (cfiCond182) NoFunction
        CFI (cfiCond182) Conditional ??CrossCallReturnLabel_12
        CFI (cfiCond182) R6 load(1, XDATA, add(CFA_XSP16, literal(-12)))
        CFI (cfiCond182) VB load(1, XDATA, add(CFA_XSP16, literal(-11)))
        CFI (cfiCond182) V0 load(1, XDATA, add(CFA_XSP16, literal(-10)))
        CFI (cfiCond182) V1 load(1, XDATA, add(CFA_XSP16, literal(-9)))
        CFI (cfiCond182) V2 load(1, XDATA, add(CFA_XSP16, literal(-8)))
        CFI (cfiCond182) V3 load(1, XDATA, add(CFA_XSP16, literal(-7)))
        CFI (cfiCond182) R7 load(1, XDATA, add(CFA_XSP16, literal(-6)))
        CFI (cfiCond182) ?RET_LOW load(1, XDATA, add(CFA_XSP16, literal(-5)))
        CFI (cfiCond182) ?RET_HIGH load(1, XDATA, add(CFA_XSP16, literal(-4)))
        CFI (cfiCond182) ?BRET_EXT load(1, XDATA, add(CFA_XSP16, literal(-3)))
        CFI (cfiCond182) DPL0 load(1, XDATA, add(CFA_XSP16, literal(-2)))
        CFI (cfiCond182) DPH0 load(1, XDATA, add(CFA_XSP16, literal(-1)))
        CFI (cfiCond182) CFA_SP SP+0
        CFI (cfiCond182) CFA_XSP16 add(XSP16, 12)
        CFI Block cfiPicker183 Using cfiCommon1
        CFI (cfiPicker183) NoFunction
        CFI (cfiPicker183) Picker
        LCALL   ?Subroutine43 & 0xFFFF
??CrossCallReturnLabel_73:
        INC     DPTR
        MOV     R6,DPL
        MOV     R7,DPH
        RET
        CFI EndBlock cfiCond181
        CFI EndBlock cfiCond182
        CFI EndBlock cfiPicker183
// 1762 
// 1763 /*********************************************************************
// 1764  * @fn      zclBuildHdr
// 1765  *
// 1766  * @brief   Build header of the ZCL format
// 1767  *
// 1768  * @param   hdr - outgoing header information
// 1769  * @param   pData - outgoing header space
// 1770  *
// 1771  * @return  pointer past the header
// 1772  */

        RSEG BANKED_CODE:CODE:NOROOT(0)
// 1773 static uint8 *zclBuildHdr( zclFrameHdr_t *hdr, uint8 *pData )
zclBuildHdr:
        CFI Block cfiBlock184 Using cfiCommon0
        CFI Function zclBuildHdr
        CODE
// 1774 {
        MOV     A,#-0x9
        LCALL   ?BANKED_ENTER_XDATA
        CFI DPH0 load(1, XDATA, add(CFA_XSP16, literal(-1)))
        CFI DPL0 load(1, XDATA, add(CFA_XSP16, literal(-2)))
        CFI ?BRET_EXT load(1, XDATA, add(CFA_XSP16, literal(-3)))
        CFI ?RET_HIGH load(1, XDATA, add(CFA_XSP16, literal(-4)))
        CFI ?RET_LOW load(1, XDATA, add(CFA_XSP16, literal(-5)))
        CFI R7 load(1, XDATA, add(CFA_XSP16, literal(-6)))
        CFI V0 load(1, XDATA, add(CFA_XSP16, literal(-7)))
        CFI VB load(1, XDATA, add(CFA_XSP16, literal(-8)))
        CFI R6 load(1, XDATA, add(CFA_XSP16, literal(-9)))
        CFI CFA_SP SP+0
        CFI CFA_XSP16 add(XSP16, 9)
        ; Saved register size: 9
        ; Auto size: 0
// 1775   // Build the Frame Control byte
// 1776   *pData = hdr->fc.type;
        MOV     DPL,R2
        MOV     DPH,R3
        MOVX    A,@DPTR
        ANL     A,#0x3
        MOV     DPL,R4
        MOV     DPH,R5
        LCALL   ??Subroutine59_0 & 0xFFFF
// 1777   *pData |= hdr->fc.manuSpecific << 2;
??CrossCallReturnLabel_117:
        ANL     A,#0x4
        LCALL   ?Subroutine14 & 0xFFFF
// 1778   *pData |= hdr->fc.direction << 3;
??CrossCallReturnLabel_115:
        ANL     A,#0x8
        LCALL   ?Subroutine14 & 0xFFFF
// 1779   *pData |= hdr->fc.disableDefaultRsp << 4;
??CrossCallReturnLabel_116:
        ANL     A,#0x10
        MOV     R0,A
        MOV     DPL,R4
        MOV     DPH,R5
        MOVX    A,@DPTR
        ORL     A,R0
        LCALL   ?Subroutine9 & 0xFFFF
// 1780   pData++;  // move past the frame control field
// 1781 
// 1782   // Add the manfacturer code
// 1783   if ( hdr->fc.manuSpecific )
??CrossCallReturnLabel_7:
        MOVX    A,@DPTR
        ANL     A,#0x4
        JZ      ??CrossCallReturnLabel_53
// 1784   {
// 1785     *pData++ = LO_UINT16( hdr->manuCode );
        MOV     A,R2
        ADD     A,#0x2
        MOV     R0,A
        MOV     A,R3
        LCALL   ?Subroutine51 & 0xFFFF
??CrossCallReturnLabel_106:
        LCALL   ?Subroutine32 & 0xFFFF
// 1786     *pData++ = HI_UINT16( hdr->manuCode );
??CrossCallReturnLabel_52:
        MOV     DPL,R0
        MOV     DPH,R1
        INC     DPTR
        LCALL   ?Subroutine32 & 0xFFFF
// 1787   }
// 1788 
// 1789   // Add the Transaction Sequence Number
// 1790   *pData++ = hdr->transSeqNum;
??CrossCallReturnLabel_53:
        MOV     DPL,R2
        MOV     DPH,R3
        INC     DPTR
        INC     DPTR
        INC     DPTR
        INC     DPTR
        MOVX    A,@DPTR
        MOV     DPL,R4
        MOV     DPH,R5
        LCALL   ?Subroutine9 & 0xFFFF
// 1791 
// 1792   // Add the Cluster's command ID
// 1793   *pData++ = hdr->commandID;
??CrossCallReturnLabel_8:
        INC     DPTR
        INC     DPTR
        INC     DPTR
        INC     DPTR
        INC     DPTR
        MOVX    A,@DPTR
        MOV     DPL,R4
        MOV     DPH,R5
        MOVX    @DPTR,A
        INC     DPTR
// 1794 
// 1795   // Should point to the frame payload
// 1796   return ( pData );
        MOV     R2,DPL
        MOV     R3,DPH
        CFI EndBlock cfiBlock184
        REQUIRE ?Subroutine3
        ; // Fall through to label ?Subroutine3
// 1797 }

        RSEG BANKED_CODE:CODE:NOROOT(0)
?Subroutine3:
        CFI Block cfiBlock185 Using cfiCommon0
        CFI NoFunction
        CFI CFA_SP SP+0
        CFI CFA_XSP16 add(XSP16, 9)
        CFI VB load(1, XDATA, add(CFA_XSP16, literal(-8)))
        CFI DPL0 load(1, XDATA, add(CFA_XSP16, literal(-2)))
        CFI DPH0 load(1, XDATA, add(CFA_XSP16, literal(-1)))
        CFI R6 load(1, XDATA, add(CFA_XSP16, literal(-9)))
        CFI R7 load(1, XDATA, add(CFA_XSP16, literal(-6)))
        CFI V0 load(1, XDATA, add(CFA_XSP16, literal(-7)))
        CFI ?BRET_EXT load(1, XDATA, add(CFA_XSP16, literal(-3)))
        CFI ?RET_HIGH load(1, XDATA, add(CFA_XSP16, literal(-4)))
        CFI ?RET_LOW load(1, XDATA, add(CFA_XSP16, literal(-5)))
        MOV     R7,#0x1
        LJMP    ?BANKED_LEAVE_XDATA
        CFI EndBlock cfiBlock185

        RSEG BANKED_CODE:CODE:NOROOT(0)
?Subroutine51:
        CFI Block cfiCond186 Using cfiCommon0
        CFI NoFunction
        CFI Conditional ??CrossCallReturnLabel_108, ??CrossCallReturnLabel_105, ??CrossCallReturnLabel_102
        CFI R6 load(1, XDATA, add(CFA_XSP16, literal(-12)))
        CFI VB load(1, XDATA, add(CFA_XSP16, literal(-11)))
        CFI V0 load(1, XDATA, add(CFA_XSP16, literal(-10)))
        CFI V1 load(1, XDATA, add(CFA_XSP16, literal(-9)))
        CFI V2 load(1, XDATA, add(CFA_XSP16, literal(-8)))
        CFI V3 load(1, XDATA, add(CFA_XSP16, literal(-7)))
        CFI R7 load(1, XDATA, add(CFA_XSP16, literal(-6)))
        CFI ?RET_LOW load(1, XDATA, add(CFA_XSP16, literal(-5)))
        CFI ?RET_HIGH load(1, XDATA, add(CFA_XSP16, literal(-4)))
        CFI ?BRET_EXT load(1, XDATA, add(CFA_XSP16, literal(-3)))
        CFI DPL0 load(1, XDATA, add(CFA_XSP16, literal(-2)))
        CFI DPH0 load(1, XDATA, add(CFA_XSP16, literal(-1)))
        CFI CFA_SP SP+0
        CFI CFA_XSP16 add(XSP16, 33)
        CFI Block cfiCond187 Using cfiCommon0
        CFI (cfiCond187) NoFunction
        CFI (cfiCond187) Conditional ??CrossCallReturnLabel_108, ??CrossCallReturnLabel_105, ??CrossCallReturnLabel_103
        CFI (cfiCond187) R6 load(1, XDATA, add(CFA_XSP16, literal(-12)))
        CFI (cfiCond187) VB load(1, XDATA, add(CFA_XSP16, literal(-11)))
        CFI (cfiCond187) V0 load(1, XDATA, add(CFA_XSP16, literal(-10)))
        CFI (cfiCond187) V1 load(1, XDATA, add(CFA_XSP16, literal(-9)))
        CFI (cfiCond187) V2 load(1, XDATA, add(CFA_XSP16, literal(-8)))
        CFI (cfiCond187) V3 load(1, XDATA, add(CFA_XSP16, literal(-7)))
        CFI (cfiCond187) R7 load(1, XDATA, add(CFA_XSP16, literal(-6)))
        CFI (cfiCond187) ?RET_LOW load(1, XDATA, add(CFA_XSP16, literal(-5)))
        CFI (cfiCond187) ?RET_HIGH load(1, XDATA, add(CFA_XSP16, literal(-4)))
        CFI (cfiCond187) ?BRET_EXT load(1, XDATA, add(CFA_XSP16, literal(-3)))
        CFI (cfiCond187) DPL0 load(1, XDATA, add(CFA_XSP16, literal(-2)))
        CFI (cfiCond187) DPH0 load(1, XDATA, add(CFA_XSP16, literal(-1)))
        CFI (cfiCond187) CFA_SP SP+0
        CFI (cfiCond187) CFA_XSP16 add(XSP16, 33)
        CFI Block cfiCond188 Using cfiCommon0
        CFI (cfiCond188) NoFunction
        CFI (cfiCond188) Conditional ??CrossCallReturnLabel_108, ??CrossCallReturnLabel_105, ??CrossCallReturnLabel_101
        CFI (cfiCond188) R6 load(1, XDATA, add(CFA_XSP16, literal(-10)))
        CFI (cfiCond188) VB load(1, XDATA, add(CFA_XSP16, literal(-9)))
        CFI (cfiCond188) V0 load(1, XDATA, add(CFA_XSP16, literal(-8)))
        CFI (cfiCond188) V1 load(1, XDATA, add(CFA_XSP16, literal(-7)))
        CFI (cfiCond188) R7 load(1, XDATA, add(CFA_XSP16, literal(-6)))
        CFI (cfiCond188) ?RET_LOW load(1, XDATA, add(CFA_XSP16, literal(-5)))
        CFI (cfiCond188) ?RET_HIGH load(1, XDATA, add(CFA_XSP16, literal(-4)))
        CFI (cfiCond188) ?BRET_EXT load(1, XDATA, add(CFA_XSP16, literal(-3)))
        CFI (cfiCond188) DPL0 load(1, XDATA, add(CFA_XSP16, literal(-2)))
        CFI (cfiCond188) DPH0 load(1, XDATA, add(CFA_XSP16, literal(-1)))
        CFI (cfiCond188) CFA_SP SP+0
        CFI (cfiCond188) CFA_XSP16 add(XSP16, 10)
        CFI Block cfiCond189 Using cfiCommon0
        CFI (cfiCond189) NoFunction
        CFI (cfiCond189) Conditional ??CrossCallReturnLabel_108, ??CrossCallReturnLabel_104, ??CrossCallReturnLabel_28
        CFI (cfiCond189) R6 load(1, XDATA, add(CFA_XSP16, literal(-12)))
        CFI (cfiCond189) VB load(1, XDATA, add(CFA_XSP16, literal(-11)))
        CFI (cfiCond189) V0 load(1, XDATA, add(CFA_XSP16, literal(-10)))
        CFI (cfiCond189) V1 load(1, XDATA, add(CFA_XSP16, literal(-9)))
        CFI (cfiCond189) V2 load(1, XDATA, add(CFA_XSP16, literal(-8)))
        CFI (cfiCond189) V3 load(1, XDATA, add(CFA_XSP16, literal(-7)))
        CFI (cfiCond189) R7 load(1, XDATA, add(CFA_XSP16, literal(-6)))
        CFI (cfiCond189) ?RET_LOW load(1, XDATA, add(CFA_XSP16, literal(-5)))
        CFI (cfiCond189) ?RET_HIGH load(1, XDATA, add(CFA_XSP16, literal(-4)))
        CFI (cfiCond189) ?BRET_EXT load(1, XDATA, add(CFA_XSP16, literal(-3)))
        CFI (cfiCond189) DPL0 load(1, XDATA, add(CFA_XSP16, literal(-2)))
        CFI (cfiCond189) DPH0 load(1, XDATA, add(CFA_XSP16, literal(-1)))
        CFI (cfiCond189) CFA_SP SP+0
        CFI (cfiCond189) CFA_XSP16 add(XSP16, 40)
        CFI Block cfiCond190 Using cfiCommon0
        CFI (cfiCond190) NoFunction
        CFI (cfiCond190) Conditional ??CrossCallReturnLabel_108, ??CrossCallReturnLabel_104, ??CrossCallReturnLabel_29
        CFI (cfiCond190) R6 load(1, XDATA, add(CFA_XSP16, literal(-12)))
        CFI (cfiCond190) VB load(1, XDATA, add(CFA_XSP16, literal(-11)))
        CFI (cfiCond190) V0 load(1, XDATA, add(CFA_XSP16, literal(-10)))
        CFI (cfiCond190) V1 load(1, XDATA, add(CFA_XSP16, literal(-9)))
        CFI (cfiCond190) V2 load(1, XDATA, add(CFA_XSP16, literal(-8)))
        CFI (cfiCond190) V3 load(1, XDATA, add(CFA_XSP16, literal(-7)))
        CFI (cfiCond190) R7 load(1, XDATA, add(CFA_XSP16, literal(-6)))
        CFI (cfiCond190) ?RET_LOW load(1, XDATA, add(CFA_XSP16, literal(-5)))
        CFI (cfiCond190) ?RET_HIGH load(1, XDATA, add(CFA_XSP16, literal(-4)))
        CFI (cfiCond190) ?BRET_EXT load(1, XDATA, add(CFA_XSP16, literal(-3)))
        CFI (cfiCond190) DPL0 load(1, XDATA, add(CFA_XSP16, literal(-2)))
        CFI (cfiCond190) DPH0 load(1, XDATA, add(CFA_XSP16, literal(-1)))
        CFI (cfiCond190) CFA_SP SP+0
        CFI (cfiCond190) CFA_XSP16 add(XSP16, 40)
        CFI Block cfiCond191 Using cfiCommon0
        CFI (cfiCond191) NoFunction
        CFI (cfiCond191) Conditional ??CrossCallReturnLabel_106
        CFI (cfiCond191) R6 load(1, XDATA, add(CFA_XSP16, literal(-9)))
        CFI (cfiCond191) VB load(1, XDATA, add(CFA_XSP16, literal(-8)))
        CFI (cfiCond191) V0 load(1, XDATA, add(CFA_XSP16, literal(-7)))
        CFI (cfiCond191) R7 load(1, XDATA, add(CFA_XSP16, literal(-6)))
        CFI (cfiCond191) ?RET_LOW load(1, XDATA, add(CFA_XSP16, literal(-5)))
        CFI (cfiCond191) ?RET_HIGH load(1, XDATA, add(CFA_XSP16, literal(-4)))
        CFI (cfiCond191) ?BRET_EXT load(1, XDATA, add(CFA_XSP16, literal(-3)))
        CFI (cfiCond191) DPL0 load(1, XDATA, add(CFA_XSP16, literal(-2)))
        CFI (cfiCond191) DPH0 load(1, XDATA, add(CFA_XSP16, literal(-1)))
        CFI (cfiCond191) CFA_SP SP+0
        CFI (cfiCond191) CFA_XSP16 add(XSP16, 9)
        CFI Block cfiCond192 Using cfiCommon0
        CFI (cfiCond192) NoFunction
        CFI (cfiCond192) Conditional ??CrossCallReturnLabel_107
        CFI (cfiCond192) R6 load(1, XDATA, add(CFA_XSP16, literal(-10)))
        CFI (cfiCond192) VB load(1, XDATA, add(CFA_XSP16, literal(-9)))
        CFI (cfiCond192) V0 load(1, XDATA, add(CFA_XSP16, literal(-8)))
        CFI (cfiCond192) V1 load(1, XDATA, add(CFA_XSP16, literal(-7)))
        CFI (cfiCond192) R7 load(1, XDATA, add(CFA_XSP16, literal(-6)))
        CFI (cfiCond192) ?RET_LOW load(1, XDATA, add(CFA_XSP16, literal(-5)))
        CFI (cfiCond192) ?RET_HIGH load(1, XDATA, add(CFA_XSP16, literal(-4)))
        CFI (cfiCond192) ?BRET_EXT load(1, XDATA, add(CFA_XSP16, literal(-3)))
        CFI (cfiCond192) DPL0 load(1, XDATA, add(CFA_XSP16, literal(-2)))
        CFI (cfiCond192) DPH0 load(1, XDATA, add(CFA_XSP16, literal(-1)))
        CFI (cfiCond192) CFA_SP SP+0
        CFI (cfiCond192) CFA_XSP16 add(XSP16, 10)
        CFI Block cfiPicker193 Using cfiCommon1
        CFI (cfiPicker193) NoFunction
        CFI (cfiPicker193) Picker
        ADDC    A,#0x0
        MOV     R1,A
        MOV     DPL,R0
        MOV     DPH,R1
        RET
        CFI EndBlock cfiCond186
        CFI EndBlock cfiCond187
        CFI EndBlock cfiCond188
        CFI EndBlock cfiCond189
        CFI EndBlock cfiCond190
        CFI EndBlock cfiCond191
        CFI EndBlock cfiCond192
        CFI EndBlock cfiPicker193

        RSEG BANKED_CODE:CODE:NOROOT(0)
?Subroutine32:
        CFI Block cfiCond194 Using cfiCommon0
        CFI NoFunction
        CFI Conditional ??CrossCallReturnLabel_52
        CFI R6 load(1, XDATA, add(CFA_XSP16, literal(-9)))
        CFI VB load(1, XDATA, add(CFA_XSP16, literal(-8)))
        CFI V0 load(1, XDATA, add(CFA_XSP16, literal(-7)))
        CFI R7 load(1, XDATA, add(CFA_XSP16, literal(-6)))
        CFI ?RET_LOW load(1, XDATA, add(CFA_XSP16, literal(-5)))
        CFI ?RET_HIGH load(1, XDATA, add(CFA_XSP16, literal(-4)))
        CFI ?BRET_EXT load(1, XDATA, add(CFA_XSP16, literal(-3)))
        CFI DPL0 load(1, XDATA, add(CFA_XSP16, literal(-2)))
        CFI DPH0 load(1, XDATA, add(CFA_XSP16, literal(-1)))
        CFI CFA_SP SP+0
        CFI CFA_XSP16 add(XSP16, 9)
        CFI Block cfiCond195 Using cfiCommon0
        CFI (cfiCond195) NoFunction
        CFI (cfiCond195) Conditional ??CrossCallReturnLabel_53
        CFI (cfiCond195) R6 load(1, XDATA, add(CFA_XSP16, literal(-9)))
        CFI (cfiCond195) VB load(1, XDATA, add(CFA_XSP16, literal(-8)))
        CFI (cfiCond195) V0 load(1, XDATA, add(CFA_XSP16, literal(-7)))
        CFI (cfiCond195) R7 load(1, XDATA, add(CFA_XSP16, literal(-6)))
        CFI (cfiCond195) ?RET_LOW load(1, XDATA, add(CFA_XSP16, literal(-5)))
        CFI (cfiCond195) ?RET_HIGH load(1, XDATA, add(CFA_XSP16, literal(-4)))
        CFI (cfiCond195) ?BRET_EXT load(1, XDATA, add(CFA_XSP16, literal(-3)))
        CFI (cfiCond195) DPL0 load(1, XDATA, add(CFA_XSP16, literal(-2)))
        CFI (cfiCond195) DPH0 load(1, XDATA, add(CFA_XSP16, literal(-1)))
        CFI (cfiCond195) CFA_SP SP+0
        CFI (cfiCond195) CFA_XSP16 add(XSP16, 9)
        CFI Block cfiPicker196 Using cfiCommon1
        CFI (cfiPicker196) NoFunction
        CFI (cfiPicker196) Picker
        MOVX    A,@DPTR
        MOV     DPL,R4
        MOV     DPH,R5
        MOVX    @DPTR,A
        INC     DPTR
        INC     R4
        MOV     R5,DPH
        RET
        CFI EndBlock cfiCond194
        CFI EndBlock cfiCond195
        CFI EndBlock cfiPicker196

        RSEG BANKED_CODE:CODE:NOROOT(0)
?Subroutine14:
        CFI Block cfiCond197 Using cfiCommon0
        CFI NoFunction
        CFI Conditional ??CrossCallReturnLabel_115
        CFI R6 load(1, XDATA, add(CFA_XSP16, literal(-9)))
        CFI VB load(1, XDATA, add(CFA_XSP16, literal(-8)))
        CFI V0 load(1, XDATA, add(CFA_XSP16, literal(-7)))
        CFI R7 load(1, XDATA, add(CFA_XSP16, literal(-6)))
        CFI ?RET_LOW load(1, XDATA, add(CFA_XSP16, literal(-5)))
        CFI ?RET_HIGH load(1, XDATA, add(CFA_XSP16, literal(-4)))
        CFI ?BRET_EXT load(1, XDATA, add(CFA_XSP16, literal(-3)))
        CFI DPL0 load(1, XDATA, add(CFA_XSP16, literal(-2)))
        CFI DPH0 load(1, XDATA, add(CFA_XSP16, literal(-1)))
        CFI CFA_SP SP+0
        CFI CFA_XSP16 add(XSP16, 9)
        CFI Block cfiCond198 Using cfiCommon0
        CFI (cfiCond198) NoFunction
        CFI (cfiCond198) Conditional ??CrossCallReturnLabel_116
        CFI (cfiCond198) R6 load(1, XDATA, add(CFA_XSP16, literal(-9)))
        CFI (cfiCond198) VB load(1, XDATA, add(CFA_XSP16, literal(-8)))
        CFI (cfiCond198) V0 load(1, XDATA, add(CFA_XSP16, literal(-7)))
        CFI (cfiCond198) R7 load(1, XDATA, add(CFA_XSP16, literal(-6)))
        CFI (cfiCond198) ?RET_LOW load(1, XDATA, add(CFA_XSP16, literal(-5)))
        CFI (cfiCond198) ?RET_HIGH load(1, XDATA, add(CFA_XSP16, literal(-4)))
        CFI (cfiCond198) ?BRET_EXT load(1, XDATA, add(CFA_XSP16, literal(-3)))
        CFI (cfiCond198) DPL0 load(1, XDATA, add(CFA_XSP16, literal(-2)))
        CFI (cfiCond198) DPH0 load(1, XDATA, add(CFA_XSP16, literal(-1)))
        CFI (cfiCond198) CFA_SP SP+0
        CFI (cfiCond198) CFA_XSP16 add(XSP16, 9)
        CFI Block cfiPicker199 Using cfiCommon1
        CFI (cfiPicker199) NoFunction
        CFI (cfiPicker199) Picker
        MOV     R0,A
        MOV     DPL,R4
        MOV     DPH,R5
        MOVX    A,@DPTR
        ORL     A,R0
        CFI EndBlock cfiCond197
        CFI EndBlock cfiCond198
        CFI EndBlock cfiPicker199
        REQUIRE ??Subroutine59_0
        ; // Fall through to label ??Subroutine59_0

        RSEG BANKED_CODE:CODE:NOROOT(0)
??Subroutine59_0:
        CFI Block cfiCond200 Using cfiCommon0
        CFI NoFunction
        CFI Conditional ??CrossCallReturnLabel_117
        CFI R6 load(1, XDATA, add(CFA_XSP16, literal(-9)))
        CFI VB load(1, XDATA, add(CFA_XSP16, literal(-8)))
        CFI V0 load(1, XDATA, add(CFA_XSP16, literal(-7)))
        CFI R7 load(1, XDATA, add(CFA_XSP16, literal(-6)))
        CFI ?RET_LOW load(1, XDATA, add(CFA_XSP16, literal(-5)))
        CFI ?RET_HIGH load(1, XDATA, add(CFA_XSP16, literal(-4)))
        CFI ?BRET_EXT load(1, XDATA, add(CFA_XSP16, literal(-3)))
        CFI DPL0 load(1, XDATA, add(CFA_XSP16, literal(-2)))
        CFI DPH0 load(1, XDATA, add(CFA_XSP16, literal(-1)))
        CFI CFA_SP SP+0
        CFI CFA_XSP16 add(XSP16, 9)
        CFI Block cfiCond201 Using cfiCommon0
        CFI (cfiCond201) NoFunction
        CFI (cfiCond201) Conditional ??CrossCallReturnLabel_115
        CFI (cfiCond201) R6 load(1, XDATA, add(CFA_XSP16, literal(-9)))
        CFI (cfiCond201) VB load(1, XDATA, add(CFA_XSP16, literal(-8)))
        CFI (cfiCond201) V0 load(1, XDATA, add(CFA_XSP16, literal(-7)))
        CFI (cfiCond201) R7 load(1, XDATA, add(CFA_XSP16, literal(-6)))
        CFI (cfiCond201) ?RET_LOW load(1, XDATA, add(CFA_XSP16, literal(-5)))
        CFI (cfiCond201) ?RET_HIGH load(1, XDATA, add(CFA_XSP16, literal(-4)))
        CFI (cfiCond201) ?BRET_EXT load(1, XDATA, add(CFA_XSP16, literal(-3)))
        CFI (cfiCond201) DPL0 load(1, XDATA, add(CFA_XSP16, literal(-2)))
        CFI (cfiCond201) DPH0 load(1, XDATA, add(CFA_XSP16, literal(-1)))
        CFI (cfiCond201) CFA_SP SP+0
        CFI (cfiCond201) CFA_XSP16 add(XSP16, 9)
        CFI Block cfiCond202 Using cfiCommon0
        CFI (cfiCond202) NoFunction
        CFI (cfiCond202) Conditional ??CrossCallReturnLabel_116
        CFI (cfiCond202) R6 load(1, XDATA, add(CFA_XSP16, literal(-9)))
        CFI (cfiCond202) VB load(1, XDATA, add(CFA_XSP16, literal(-8)))
        CFI (cfiCond202) V0 load(1, XDATA, add(CFA_XSP16, literal(-7)))
        CFI (cfiCond202) R7 load(1, XDATA, add(CFA_XSP16, literal(-6)))
        CFI (cfiCond202) ?RET_LOW load(1, XDATA, add(CFA_XSP16, literal(-5)))
        CFI (cfiCond202) ?RET_HIGH load(1, XDATA, add(CFA_XSP16, literal(-4)))
        CFI (cfiCond202) ?BRET_EXT load(1, XDATA, add(CFA_XSP16, literal(-3)))
        CFI (cfiCond202) DPL0 load(1, XDATA, add(CFA_XSP16, literal(-2)))
        CFI (cfiCond202) DPH0 load(1, XDATA, add(CFA_XSP16, literal(-1)))
        CFI (cfiCond202) CFA_SP SP+0
        CFI (cfiCond202) CFA_XSP16 add(XSP16, 9)
        CFI Block cfiPicker203 Using cfiCommon1
        CFI (cfiPicker203) NoFunction
        CFI (cfiPicker203) Picker
        MOVX    @DPTR,A
        MOV     DPL,R2
        MOV     DPH,R3
        MOVX    A,@DPTR
        RET
        CFI EndBlock cfiCond200
        CFI EndBlock cfiCond201
        CFI EndBlock cfiCond202
        CFI EndBlock cfiPicker203

        RSEG BANKED_CODE:CODE:NOROOT(0)
?Subroutine9:
        CFI Block cfiCond204 Using cfiCommon0
        CFI NoFunction
        CFI Conditional ??CrossCallReturnLabel_7
        CFI R6 load(1, XDATA, add(CFA_XSP16, literal(-9)))
        CFI VB load(1, XDATA, add(CFA_XSP16, literal(-8)))
        CFI V0 load(1, XDATA, add(CFA_XSP16, literal(-7)))
        CFI R7 load(1, XDATA, add(CFA_XSP16, literal(-6)))
        CFI ?RET_LOW load(1, XDATA, add(CFA_XSP16, literal(-5)))
        CFI ?RET_HIGH load(1, XDATA, add(CFA_XSP16, literal(-4)))
        CFI ?BRET_EXT load(1, XDATA, add(CFA_XSP16, literal(-3)))
        CFI DPL0 load(1, XDATA, add(CFA_XSP16, literal(-2)))
        CFI DPH0 load(1, XDATA, add(CFA_XSP16, literal(-1)))
        CFI CFA_SP SP+0
        CFI CFA_XSP16 add(XSP16, 9)
        CFI Block cfiCond205 Using cfiCommon0
        CFI (cfiCond205) NoFunction
        CFI (cfiCond205) Conditional ??CrossCallReturnLabel_8
        CFI (cfiCond205) R6 load(1, XDATA, add(CFA_XSP16, literal(-9)))
        CFI (cfiCond205) VB load(1, XDATA, add(CFA_XSP16, literal(-8)))
        CFI (cfiCond205) V0 load(1, XDATA, add(CFA_XSP16, literal(-7)))
        CFI (cfiCond205) R7 load(1, XDATA, add(CFA_XSP16, literal(-6)))
        CFI (cfiCond205) ?RET_LOW load(1, XDATA, add(CFA_XSP16, literal(-5)))
        CFI (cfiCond205) ?RET_HIGH load(1, XDATA, add(CFA_XSP16, literal(-4)))
        CFI (cfiCond205) ?BRET_EXT load(1, XDATA, add(CFA_XSP16, literal(-3)))
        CFI (cfiCond205) DPL0 load(1, XDATA, add(CFA_XSP16, literal(-2)))
        CFI (cfiCond205) DPH0 load(1, XDATA, add(CFA_XSP16, literal(-1)))
        CFI (cfiCond205) CFA_SP SP+0
        CFI (cfiCond205) CFA_XSP16 add(XSP16, 9)
        CFI Block cfiPicker206 Using cfiCommon1
        CFI (cfiPicker206) NoFunction
        CFI (cfiPicker206) Picker
        MOVX    @DPTR,A
        INC     DPTR
        MOV     R4,DPL
        MOV     R5,DPH
        MOV     DPL,R2
        MOV     DPH,R3
        RET
        CFI EndBlock cfiCond204
        CFI EndBlock cfiCond205
        CFI EndBlock cfiPicker206
// 1798 
// 1799 /*********************************************************************
// 1800  * @fn      zclCalcHdrSize
// 1801  *
// 1802  * @brief   Calculate the number of bytes needed for an outgoing
// 1803  *          ZCL header.
// 1804  *
// 1805  * @param   hdr - outgoing header information
// 1806  *
// 1807  * @return  returns the number of bytes needed
// 1808  */
// 1809 static uint8 zclCalcHdrSize( zclFrameHdr_t *hdr )
// 1810 {
// 1811   uint8 needed = (1 + 1 + 1); // frame control + transaction seq num + cmd ID
// 1812 
// 1813   // Add the manfacturer code
// 1814   if ( hdr->fc.manuSpecific )
// 1815   {
// 1816     needed += 2;
// 1817   }
// 1818 
// 1819   return ( needed );
// 1820 }
// 1821 
// 1822 /*********************************************************************
// 1823  * @fn      zclFindPlugin
// 1824  *
// 1825  * @brief   Find the right plugin for a cluster ID
// 1826  *
// 1827  * @param   clusterID - cluster ID to look for
// 1828  * @param   profileID - profile ID
// 1829  *
// 1830  * @return  pointer to plugin, NULL if not found
// 1831  */
// 1832 static zclLibPlugin_t *zclFindPlugin( uint16 clusterID, uint16 profileID )
// 1833 {
// 1834   (void)profileID;  // Intentionally unreferenced parameter
// 1835 
// 1836   zclLibPlugin_t *pLoop = plugins;
// 1837 
// 1838   while ( pLoop != NULL )
// 1839   {
// 1840     if ( ( clusterID >= pLoop->startClusterID ) && ( clusterID <= pLoop->endClusterID ) )
// 1841     {
// 1842       return ( pLoop );
// 1843     }
// 1844 
// 1845     pLoop = pLoop->next;
// 1846   }
// 1847 
// 1848   return ( (zclLibPlugin_t *)NULL );
// 1849 }
// 1850 
// 1851 /*********************************************************************
// 1852  * @fn      zclFindAttrRecsList
// 1853  *
// 1854  * @brief   Find the right attribute record list for an endpoint
// 1855  *
// 1856  * @param   clusterID - endpointto look for
// 1857  *
// 1858  * @return  pointer to record list, NULL if not found
// 1859  */

        RSEG BANKED_CODE:CODE:NOROOT(0)
// 1860 static zclAttrRecsList *zclFindAttrRecsList( uint8 endpoint )
zclFindAttrRecsList:
        CFI Block cfiBlock207 Using cfiCommon0
        CFI Function zclFindAttrRecsList
        CODE
// 1861 {
        PUSH    DPL
        CFI DPL0 Frame(CFA_SP, 4)
        CFI CFA_SP SP+-4
        PUSH    DPH
        CFI DPH0 Frame(CFA_SP, 5)
        CFI CFA_SP SP+-5
        ; Saved register size: 2
        ; Auto size: 0
// 1862   zclAttrRecsList *pLoop = attrList;
        MOV     DPTR,#attrList
        SJMP    ??zclFindAttrRecsList_0
// 1863 
// 1864   while ( pLoop != NULL )
// 1865   {
// 1866     if ( pLoop->endpoint == endpoint )
// 1867     {
// 1868       return ( pLoop );
// 1869     }
// 1870 
// 1871     pLoop = pLoop->next;
??zclFindAttrRecsList_1:
        MOV     DPL,R2
        MOV     DPH,R3
??zclFindAttrRecsList_0:
        LCALL   ?Subroutine21 & 0xFFFF
??CrossCallReturnLabel_30:
        JZ      ??zclFindAttrRecsList_2
        MOV     DPL,R2
        MOV     DPH,R3
        INC     DPTR
        INC     DPTR
        MOVX    A,@DPTR
        XRL     A,R1
        JNZ     ??zclFindAttrRecsList_1
        SJMP    ??zclFindAttrRecsList_3
// 1872   }
// 1873 
// 1874   return ( NULL );
??zclFindAttrRecsList_2:
        MOV     R2,#0x0
        MOV     R3,#0x0
??zclFindAttrRecsList_3:
        LJMP    ?Subroutine0 & 0xFFFF
        CFI EndBlock cfiBlock207
// 1875 }
// 1876 
// 1877 /*********************************************************************
// 1878  * @fn      zclFindAttrRec
// 1879  *
// 1880  * @brief   Find the attribute record that matchs the parameters
// 1881  *
// 1882  * @param   endpoint - Application's endpoint
// 1883  * @param   clusterID - cluster ID
// 1884  * @param   attrId - attribute looking for
// 1885  * @param   pAttr - attribute record to be returned
// 1886  *
// 1887  * @return  TRUE if record found. FALSE, otherwise.
// 1888  */

        RSEG BANKED_CODE:CODE:NOROOT(0)
// 1889 uint8 zclFindAttrRec( uint8 endpoint, uint16 clusterID, uint16 attrId, zclAttrRec_t *pAttr )
zclFindAttrRec:
        CFI Block cfiBlock208 Using cfiCommon0
        CFI Function zclFindAttrRec
        CODE
// 1890 {
        FUNCALL zclFindAttrRec, zclFindAttrRecsList
        LOCFRAME ISTACK, 0, STACK
        LOCFRAME PSTACK, 0, STACK
        LOCFRAME XSTACK, 18, STACK
        LOCFRAME IOVERLAY, 0, STATIC
        LOCFRAME DOVERLAY, 0, STATIC
        ARGFRAME ISTACK, 0, STACK
        ARGFRAME PSTACK, 0, STACK
        ARGFRAME XSTACK, 18, STACK
        ARGFRAME IOVERLAY, 0, STATIC
        ARGFRAME DOVERLAY, 0, STATIC
        MOV     A,#-0x12
        LCALL   ?BANKED_ENTER_XDATA
        CFI DPH0 load(1, XDATA, add(CFA_XSP16, literal(-1)))
        CFI DPL0 load(1, XDATA, add(CFA_XSP16, literal(-2)))
        CFI ?BRET_EXT load(1, XDATA, add(CFA_XSP16, literal(-3)))
        CFI ?RET_HIGH load(1, XDATA, add(CFA_XSP16, literal(-4)))
        CFI ?RET_LOW load(1, XDATA, add(CFA_XSP16, literal(-5)))
        CFI R7 load(1, XDATA, add(CFA_XSP16, literal(-6)))
        CFI V9 load(1, XDATA, add(CFA_XSP16, literal(-7)))
        CFI V8 load(1, XDATA, add(CFA_XSP16, literal(-8)))
        CFI V7 load(1, XDATA, add(CFA_XSP16, literal(-9)))
        CFI V6 load(1, XDATA, add(CFA_XSP16, literal(-10)))
        CFI V5 load(1, XDATA, add(CFA_XSP16, literal(-11)))
        CFI V4 load(1, XDATA, add(CFA_XSP16, literal(-12)))
        CFI V3 load(1, XDATA, add(CFA_XSP16, literal(-13)))
        CFI V2 load(1, XDATA, add(CFA_XSP16, literal(-14)))
        CFI V1 load(1, XDATA, add(CFA_XSP16, literal(-15)))
        CFI V0 load(1, XDATA, add(CFA_XSP16, literal(-16)))
        CFI VB load(1, XDATA, add(CFA_XSP16, literal(-17)))
        CFI R6 load(1, XDATA, add(CFA_XSP16, literal(-18)))
        CFI CFA_SP SP+0
        CFI CFA_XSP16 add(XSP16, 18)
        ; Saved register size: 18
        ; Auto size: 0
        MOV     ?V0 + 2,R2
        MOV     ?V0 + 3,R3
        MOV     ?V0 + 0,R4
        MOV     ?V0 + 1,R5
        MOV     A,#0x12
        LCALL   ?XSTACK_DISP0_8
        MOVX    A,@DPTR
        MOV     R6,A
        INC     DPTR
        MOVX    A,@DPTR
        MOV     R7,A
// 1891   uint8 x;
// 1892   zclAttrRecsList *pRec = zclFindAttrRecsList( endpoint );
        ; Setup parameters for call to function zclFindAttrRecsList
        LCALL   ??zclFindAttrRecsList?relay
// 1893 
// 1894   if ( pRec != NULL )
        MOV     A,R2
        ORL     A,R3
        JNZ     $+5
        LJMP    ??zclFindAttrRec_0 & 0xFFFF
// 1895   {
// 1896     for ( x = 0; x < pRec->numAttributes; x++ )
        MOV     ?V0 + 6,#0x0
        SJMP    ??zclFindAttrRec_1
??zclFindAttrRec_2:
        INC     ?V0 + 6
??zclFindAttrRec_1:
        MOV     DPL,R2
        MOV     DPH,R3
        INC     DPTR
        INC     DPTR
        INC     DPTR
        INC     DPTR
        INC     DPTR
        INC     DPTR
        INC     DPTR
        MOVX    A,@DPTR
        MOV     R0,A
        MOV     A,?V0 + 6
        CLR     C
        SUBB    A,R0
        JNC     ??zclFindAttrRec_0
// 1897     {
// 1898       if ( pRec->attrs[x].clusterID == clusterID && pRec->attrs[x].attr.attrId == attrId )
        MOV     ?V0 + 8,?V0 + 6
        MOV     ?V0 + 9,#0x0
        MOV     A,#0x3
        MOV     R0,#?V0 + 8
        LCALL   ?S_SHL
        LCALL   ?Subroutine27 & 0xFFFF
??CrossCallReturnLabel_41:
        CLR     A
        MOVC    A,@A+DPTR
        MOV     R0,A
        MOV     A,#0x1
        MOVC    A,@A+DPTR
        MOV     R1,A
        MOV     A,?V0 + 2
        XRL     A,R0
        JNZ     ??zclFindAttrRec_3
        MOV     A,?V0 + 3
        XRL     A,R1
??zclFindAttrRec_3:
        JNZ     ??zclFindAttrRec_2
        MOV     ?V0 + 8,?V0 + 6
        MOV     ?V0 + 9,#0x0
        MOV     A,#0x3
        MOV     R0,#?V0 + 8
        LCALL   ?S_SHL
        LCALL   ?Subroutine27 & 0xFFFF
??CrossCallReturnLabel_42:
        INC     DPTR
        INC     DPTR
        CLR     A
        MOVC    A,@A+DPTR
        MOV     R0,A
        MOV     A,#0x1
        MOVC    A,@A+DPTR
        MOV     R1,A
        MOV     A,?V0 + 0
        XRL     A,R0
        JNZ     ??zclFindAttrRec_4
        MOV     A,?V0 + 1
        XRL     A,R1
??zclFindAttrRec_4:
        JNZ     ??zclFindAttrRec_2
// 1899       {
// 1900         *pAttr = pRec->attrs[x];
        MOV     ?V0 + 7,#0x0
        MOV     A,#0x3
        MOV     R0,#?V0 + 6
        LCALL   ?S_SHL
        MOV     DPL,R2
        MOV     DPH,R3
        INC     DPTR
        INC     DPTR
        INC     DPTR
        INC     DPTR
        INC     DPTR
        INC     DPTR
        INC     DPTR
        INC     DPTR
        MOVX    A,@DPTR
        ADD     A,?V0 + 6
        MOV     R0,A
        INC     DPTR
        MOVX    A,@DPTR
        ADDC    A,?V0 + 7
        MOV     DPL,R0
        MOV     DPH,A
        MOV     A,R6
        MOV     R4,A
        MOV     A,R7
        MOV     R5,A
        MOV     A,#0x8
        LCALL   ?MOVE_LONG8_XDATA_CODE
// 1901 
// 1902         return ( TRUE ); // EMBEDDED RETURN
        MOV     R1,#0x1
        SJMP    ??zclFindAttrRec_5
// 1903       }
// 1904     }
// 1905   }
// 1906 
// 1907   return ( FALSE );
??zclFindAttrRec_0:
        MOV     R1,#0x0
??zclFindAttrRec_5:
        MOV     R7,#0xa
        LJMP    ?BANKED_LEAVE_XDATA
        CFI EndBlock cfiBlock208
// 1908 }

        RSEG BANKED_CODE:CODE:NOROOT(0)
?Subroutine27:
        CFI Block cfiCond209 Using cfiCommon0
        CFI NoFunction
        CFI Conditional ??CrossCallReturnLabel_41
        CFI R6 load(1, XDATA, add(CFA_XSP16, literal(-18)))
        CFI VB load(1, XDATA, add(CFA_XSP16, literal(-17)))
        CFI V0 load(1, XDATA, add(CFA_XSP16, literal(-16)))
        CFI V1 load(1, XDATA, add(CFA_XSP16, literal(-15)))
        CFI V2 load(1, XDATA, add(CFA_XSP16, literal(-14)))
        CFI V3 load(1, XDATA, add(CFA_XSP16, literal(-13)))
        CFI V4 load(1, XDATA, add(CFA_XSP16, literal(-12)))
        CFI V5 load(1, XDATA, add(CFA_XSP16, literal(-11)))
        CFI V6 load(1, XDATA, add(CFA_XSP16, literal(-10)))
        CFI V7 load(1, XDATA, add(CFA_XSP16, literal(-9)))
        CFI V8 load(1, XDATA, add(CFA_XSP16, literal(-8)))
        CFI V9 load(1, XDATA, add(CFA_XSP16, literal(-7)))
        CFI R7 load(1, XDATA, add(CFA_XSP16, literal(-6)))
        CFI ?RET_LOW load(1, XDATA, add(CFA_XSP16, literal(-5)))
        CFI ?RET_HIGH load(1, XDATA, add(CFA_XSP16, literal(-4)))
        CFI ?BRET_EXT load(1, XDATA, add(CFA_XSP16, literal(-3)))
        CFI DPL0 load(1, XDATA, add(CFA_XSP16, literal(-2)))
        CFI DPH0 load(1, XDATA, add(CFA_XSP16, literal(-1)))
        CFI CFA_SP SP+0
        CFI CFA_XSP16 add(XSP16, 18)
        CFI Block cfiCond210 Using cfiCommon0
        CFI (cfiCond210) NoFunction
        CFI (cfiCond210) Conditional ??CrossCallReturnLabel_42
        CFI (cfiCond210) R6 load(1, XDATA, add(CFA_XSP16, literal(-18)))
        CFI (cfiCond210) VB load(1, XDATA, add(CFA_XSP16, literal(-17)))
        CFI (cfiCond210) V0 load(1, XDATA, add(CFA_XSP16, literal(-16)))
        CFI (cfiCond210) V1 load(1, XDATA, add(CFA_XSP16, literal(-15)))
        CFI (cfiCond210) V2 load(1, XDATA, add(CFA_XSP16, literal(-14)))
        CFI (cfiCond210) V3 load(1, XDATA, add(CFA_XSP16, literal(-13)))
        CFI (cfiCond210) V4 load(1, XDATA, add(CFA_XSP16, literal(-12)))
        CFI (cfiCond210) V5 load(1, XDATA, add(CFA_XSP16, literal(-11)))
        CFI (cfiCond210) V6 load(1, XDATA, add(CFA_XSP16, literal(-10)))
        CFI (cfiCond210) V7 load(1, XDATA, add(CFA_XSP16, literal(-9)))
        CFI (cfiCond210) V8 load(1, XDATA, add(CFA_XSP16, literal(-8)))
        CFI (cfiCond210) V9 load(1, XDATA, add(CFA_XSP16, literal(-7)))
        CFI (cfiCond210) R7 load(1, XDATA, add(CFA_XSP16, literal(-6)))
        CFI (cfiCond210) ?RET_LOW load(1, XDATA, add(CFA_XSP16, literal(-5)))
        CFI (cfiCond210) ?RET_HIGH load(1, XDATA, add(CFA_XSP16, literal(-4)))
        CFI (cfiCond210) ?BRET_EXT load(1, XDATA, add(CFA_XSP16, literal(-3)))
        CFI (cfiCond210) DPL0 load(1, XDATA, add(CFA_XSP16, literal(-2)))
        CFI (cfiCond210) DPH0 load(1, XDATA, add(CFA_XSP16, literal(-1)))
        CFI (cfiCond210) CFA_SP SP+0
        CFI (cfiCond210) CFA_XSP16 add(XSP16, 18)
        CFI Block cfiPicker211 Using cfiCommon1
        CFI (cfiPicker211) NoFunction
        CFI (cfiPicker211) Picker
        MOV     DPL,R2
        MOV     DPH,R3
        INC     DPTR
        INC     DPTR
        INC     DPTR
        INC     DPTR
        INC     DPTR
        INC     DPTR
        INC     DPTR
        INC     DPTR
        MOVX    A,@DPTR
        ADD     A,?V0 + 8
        MOV     R0,A
        INC     DPTR
        MOVX    A,@DPTR
        ADDC    A,?V0 + 9
        MOV     DPL,R0
        MOV     DPH,A
        RET
        CFI EndBlock cfiCond209
        CFI EndBlock cfiCond210
        CFI EndBlock cfiPicker211
// 1909 
// 1910 #if defined ( ZCL_READ ) || defined ( ZCL_WRITE )
// 1911 /*********************************************************************
// 1912  * @fn      zclGetReadWriteCB
// 1913  *
// 1914  * @brief   Get the Read/Write callback function pointer for a given endpoint.
// 1915  *
// 1916  * @param   endpoint - Application's endpoint
// 1917  *
// 1918  * @return  Read/Write CB, NULL if not found
// 1919  */
// 1920 static zclReadWriteCB_t zclGetReadWriteCB( uint8 endpoint )
// 1921 {
// 1922   zclAttrRecsList *pRec = zclFindAttrRecsList( endpoint );
// 1923 
// 1924   if ( pRec != NULL )
// 1925   {
// 1926     return ( pRec->pfnReadWriteCB );
// 1927   }
// 1928 
// 1929   return ( NULL );
// 1930 }
// 1931 
// 1932 /*********************************************************************
// 1933  * @fn      zclGetAuthorizeCB
// 1934  *
// 1935  * @brief   Get the Read/Write Authorization callback function pointer
// 1936  *          for a given endpoint.
// 1937  *
// 1938  * @param   endpoint - Application's endpoint
// 1939  *
// 1940  * @return  Authorization CB, NULL if not found
// 1941  */
// 1942 static zclAuthorizeCB_t zclGetAuthorizeCB( uint8 endpoint )
// 1943 {
// 1944   zclAttrRecsList *pRec = zclFindAttrRecsList( endpoint );
// 1945 
// 1946   if ( pRec != NULL )
// 1947   {
// 1948     return ( pRec->pfnAuthorizeCB );
// 1949   }
// 1950 
// 1951   return ( NULL );
// 1952 }
// 1953 #endif // ZCL_READ || ZCL_WRITE
// 1954 
// 1955 /*********************************************************************
// 1956  * @fn      zclFindClusterOption
// 1957  *
// 1958  * @brief   Find the option record that matchs the cluster id
// 1959  *
// 1960  * @param   endpoint - Application's endpoint
// 1961  * @param   clusterID - cluster ID looking for
// 1962  *
// 1963  * @return  pointer to clutser option, NULL if not found
// 1964  */

        RSEG BANKED_CODE:CODE:NOROOT(0)
// 1965 static zclOptionRec_t *zclFindClusterOption( uint8 endpoint, uint16 clusterID )
zclFindClusterOption:
        CFI Block cfiBlock212 Using cfiCommon0
        CFI Function zclFindClusterOption
        CODE
// 1966 {
        MOV     A,#-0x9
        LCALL   ?BANKED_ENTER_XDATA
        CFI DPH0 load(1, XDATA, add(CFA_XSP16, literal(-1)))
        CFI DPL0 load(1, XDATA, add(CFA_XSP16, literal(-2)))
        CFI ?BRET_EXT load(1, XDATA, add(CFA_XSP16, literal(-3)))
        CFI ?RET_HIGH load(1, XDATA, add(CFA_XSP16, literal(-4)))
        CFI ?RET_LOW load(1, XDATA, add(CFA_XSP16, literal(-5)))
        CFI R7 load(1, XDATA, add(CFA_XSP16, literal(-6)))
        CFI V0 load(1, XDATA, add(CFA_XSP16, literal(-7)))
        CFI VB load(1, XDATA, add(CFA_XSP16, literal(-8)))
        CFI R6 load(1, XDATA, add(CFA_XSP16, literal(-9)))
        CFI CFA_SP SP+0
        CFI CFA_XSP16 add(XSP16, 9)
        ; Saved register size: 9
        ; Auto size: 0
        MOV     A,R1
        MOV     R6,A
// 1967   zclClusterOptionList *pLoop;
// 1968 
// 1969   pLoop = clusterOptionList;
        MOV     DPTR,#clusterOptionList
        SJMP    ??zclFindClusterOption_0
// 1970   while ( pLoop != NULL )
// 1971   {
// 1972     if ( pLoop->endpoint == endpoint )
// 1973     {
// 1974       for ( uint8 x = 0; x < pLoop->numOptions; x++ )
// 1975       {
// 1976         if ( pLoop->options[x].clusterID == clusterID )
// 1977         {
// 1978           return ( &(pLoop->options[x]) ); // EMBEDDED RETURN
// 1979         }
// 1980       }
// 1981     }
// 1982 
// 1983     pLoop = pLoop->next;
??zclFindClusterOption_1:
        MOV     DPL,R0
        MOV     DPH,R1
??zclFindClusterOption_0:
        LCALL   ??Subroutine61_0 & 0xFFFF
??CrossCallReturnLabel_119:
        JZ      ??zclFindClusterOption_2
        MOV     DPL,R0
        MOV     DPH,R1
        INC     DPTR
        INC     DPTR
        MOVX    A,@DPTR
        XRL     A,R6
        JNZ     ??zclFindClusterOption_1
        MOV     ?V0 + 0,#0x0
        SJMP    ??zclFindClusterOption_3
??zclFindClusterOption_4:
        INC     ?V0 + 0
??zclFindClusterOption_3:
        MOV     DPL,R0
        MOV     DPH,R1
        INC     DPTR
        INC     DPTR
        INC     DPTR
        MOVX    A,@DPTR
        MOV     R4,A
        MOV     A,?V0 + 0
        CLR     C
        SUBB    A,R4
        JNC     ??zclFindClusterOption_1
        MOV     A,?V0 + 0
        MOV     B,#0x3
        MUL     AB
        MOV     R4,A
        MOV     R5,B
        MOV     DPL,R0
        MOV     DPH,R1
        INC     DPTR
        INC     DPTR
        INC     DPTR
        INC     DPTR
        MOVX    A,@DPTR
        ADD     A,R4
        MOV     R7,A
        INC     DPTR
        MOVX    A,@DPTR
        ADDC    A,R5
        MOV     DPL,R7
        MOV     DPH,A
        MOVX    A,@DPTR
        XRL     A,R2
        JNZ     ??zclFindClusterOption_5
        INC     DPTR
        MOVX    A,@DPTR
        XRL     A,R3
??zclFindClusterOption_5:
        JNZ     ??zclFindClusterOption_4
        MOV     A,?V0 + 0
        MOV     B,#0x3
        MUL     AB
        MOV     R2,A
        MOV     R3,B
        MOV     DPL,R0
        MOV     DPH,R1
        INC     DPTR
        INC     DPTR
        INC     DPTR
        INC     DPTR
        MOVX    A,@DPTR
        ADD     A,R2
        MOV     R2,A
        INC     DPTR
        MOVX    A,@DPTR
        ADDC    A,R3
        MOV     R3,A
        SJMP    ??zclFindClusterOption_6
// 1984   }
// 1985 
// 1986   return ( NULL );
??zclFindClusterOption_2:
        MOV     R2,#0x0
        MOV     R3,#0x0
??zclFindClusterOption_6:
        LJMP    ?Subroutine3 & 0xFFFF
        CFI EndBlock cfiBlock212
// 1987 }

        RSEG BANKED_CODE:CODE:NOROOT(0)
?Subroutine17:
        CFI Block cfiCond213 Using cfiCommon0
        CFI NoFunction
        CFI Conditional ??CrossCallReturnLabel_124
        CFI R6 load(1, XDATA, add(CFA_XSP16, literal(-12)))
        CFI VB load(1, XDATA, add(CFA_XSP16, literal(-11)))
        CFI V0 load(1, XDATA, add(CFA_XSP16, literal(-10)))
        CFI V1 load(1, XDATA, add(CFA_XSP16, literal(-9)))
        CFI V2 load(1, XDATA, add(CFA_XSP16, literal(-8)))
        CFI V3 load(1, XDATA, add(CFA_XSP16, literal(-7)))
        CFI R7 load(1, XDATA, add(CFA_XSP16, literal(-6)))
        CFI ?RET_LOW load(1, XDATA, add(CFA_XSP16, literal(-5)))
        CFI ?RET_HIGH load(1, XDATA, add(CFA_XSP16, literal(-4)))
        CFI ?BRET_EXT load(1, XDATA, add(CFA_XSP16, literal(-3)))
        CFI DPL0 load(1, XDATA, add(CFA_XSP16, literal(-2)))
        CFI DPH0 load(1, XDATA, add(CFA_XSP16, literal(-1)))
        CFI CFA_SP SP+0
        CFI CFA_XSP16 add(XSP16, 33)
        CFI Block cfiCond214 Using cfiCommon0
        CFI (cfiCond214) NoFunction
        CFI (cfiCond214) Conditional ??CrossCallReturnLabel_125
        CFI (cfiCond214) R6 load(1, XDATA, add(CFA_XSP16, literal(-12)))
        CFI (cfiCond214) VB load(1, XDATA, add(CFA_XSP16, literal(-11)))
        CFI (cfiCond214) V0 load(1, XDATA, add(CFA_XSP16, literal(-10)))
        CFI (cfiCond214) V1 load(1, XDATA, add(CFA_XSP16, literal(-9)))
        CFI (cfiCond214) V2 load(1, XDATA, add(CFA_XSP16, literal(-8)))
        CFI (cfiCond214) V3 load(1, XDATA, add(CFA_XSP16, literal(-7)))
        CFI (cfiCond214) R7 load(1, XDATA, add(CFA_XSP16, literal(-6)))
        CFI (cfiCond214) ?RET_LOW load(1, XDATA, add(CFA_XSP16, literal(-5)))
        CFI (cfiCond214) ?RET_HIGH load(1, XDATA, add(CFA_XSP16, literal(-4)))
        CFI (cfiCond214) ?BRET_EXT load(1, XDATA, add(CFA_XSP16, literal(-3)))
        CFI (cfiCond214) DPL0 load(1, XDATA, add(CFA_XSP16, literal(-2)))
        CFI (cfiCond214) DPH0 load(1, XDATA, add(CFA_XSP16, literal(-1)))
        CFI (cfiCond214) CFA_SP SP+0
        CFI (cfiCond214) CFA_XSP16 add(XSP16, 33)
        CFI Block cfiPicker215 Using cfiCommon1
        CFI (cfiPicker215) NoFunction
        CFI (cfiPicker215) Picker
        MOV     DPL,?XSP + 0
        MOV     DPH,?XSP + 1
        LCALL   ?Subroutine45 & 0xFFFF
        CFI EndBlock cfiCond213
        CFI EndBlock cfiCond214
        CFI EndBlock cfiPicker215
??CrossCallReturnLabel_79:
        REQUIRE ??Subroutine60_0
        ; // Fall through to label ??Subroutine60_0

        RSEG BANKED_CODE:CODE:NOROOT(0)
??Subroutine60_0:
        CFI Block cfiCond216 Using cfiCommon0
        CFI NoFunction
        CFI Conditional ??CrossCallReturnLabel_122
        CFI R6 load(1, XDATA, add(CFA_XSP16, literal(-24)))
        CFI VB load(1, XDATA, add(CFA_XSP16, literal(-23)))
        CFI V0 load(1, XDATA, add(CFA_XSP16, literal(-22)))
        CFI V1 load(1, XDATA, add(CFA_XSP16, literal(-21)))
        CFI V2 load(1, XDATA, add(CFA_XSP16, literal(-20)))
        CFI V3 load(1, XDATA, add(CFA_XSP16, literal(-19)))
        CFI V4 load(1, XDATA, add(CFA_XSP16, literal(-18)))
        CFI V5 load(1, XDATA, add(CFA_XSP16, literal(-17)))
        CFI V6 load(1, XDATA, add(CFA_XSP16, literal(-16)))
        CFI V7 load(1, XDATA, add(CFA_XSP16, literal(-15)))
        CFI V8 load(1, XDATA, add(CFA_XSP16, literal(-14)))
        CFI V9 load(1, XDATA, add(CFA_XSP16, literal(-13)))
        CFI V10 load(1, XDATA, add(CFA_XSP16, literal(-12)))
        CFI V11 load(1, XDATA, add(CFA_XSP16, literal(-11)))
        CFI V12 load(1, XDATA, add(CFA_XSP16, literal(-10)))
        CFI V13 load(1, XDATA, add(CFA_XSP16, literal(-9)))
        CFI V14 load(1, XDATA, add(CFA_XSP16, literal(-8)))
        CFI V15 load(1, XDATA, add(CFA_XSP16, literal(-7)))
        CFI R7 load(1, XDATA, add(CFA_XSP16, literal(-6)))
        CFI ?RET_LOW load(1, XDATA, add(CFA_XSP16, literal(-5)))
        CFI ?RET_HIGH load(1, XDATA, add(CFA_XSP16, literal(-4)))
        CFI ?BRET_EXT load(1, XDATA, add(CFA_XSP16, literal(-3)))
        CFI DPL0 load(1, XDATA, add(CFA_XSP16, literal(-2)))
        CFI DPH0 load(1, XDATA, add(CFA_XSP16, literal(-1)))
        CFI CFA_SP SP+0
        CFI CFA_XSP16 add(XSP16, 32)
        CFI Block cfiCond217 Using cfiCommon0
        CFI (cfiCond217) NoFunction
        CFI (cfiCond217) Conditional ??CrossCallReturnLabel_123
        CFI (cfiCond217) R6 load(1, XDATA, add(CFA_XSP16, literal(-12)))
        CFI (cfiCond217) VB load(1, XDATA, add(CFA_XSP16, literal(-11)))
        CFI (cfiCond217) V0 load(1, XDATA, add(CFA_XSP16, literal(-10)))
        CFI (cfiCond217) V1 load(1, XDATA, add(CFA_XSP16, literal(-9)))
        CFI (cfiCond217) V2 load(1, XDATA, add(CFA_XSP16, literal(-8)))
        CFI (cfiCond217) V3 load(1, XDATA, add(CFA_XSP16, literal(-7)))
        CFI (cfiCond217) R7 load(1, XDATA, add(CFA_XSP16, literal(-6)))
        CFI (cfiCond217) ?RET_LOW load(1, XDATA, add(CFA_XSP16, literal(-5)))
        CFI (cfiCond217) ?RET_HIGH load(1, XDATA, add(CFA_XSP16, literal(-4)))
        CFI (cfiCond217) ?BRET_EXT load(1, XDATA, add(CFA_XSP16, literal(-3)))
        CFI (cfiCond217) DPL0 load(1, XDATA, add(CFA_XSP16, literal(-2)))
        CFI (cfiCond217) DPH0 load(1, XDATA, add(CFA_XSP16, literal(-1)))
        CFI (cfiCond217) CFA_SP SP+0
        CFI (cfiCond217) CFA_XSP16 add(XSP16, 33)
        CFI Block cfiCond218 Using cfiCommon0
        CFI (cfiCond218) NoFunction
        CFI (cfiCond218) Conditional ??CrossCallReturnLabel_124
        CFI (cfiCond218) R6 load(1, XDATA, add(CFA_XSP16, literal(-12)))
        CFI (cfiCond218) VB load(1, XDATA, add(CFA_XSP16, literal(-11)))
        CFI (cfiCond218) V0 load(1, XDATA, add(CFA_XSP16, literal(-10)))
        CFI (cfiCond218) V1 load(1, XDATA, add(CFA_XSP16, literal(-9)))
        CFI (cfiCond218) V2 load(1, XDATA, add(CFA_XSP16, literal(-8)))
        CFI (cfiCond218) V3 load(1, XDATA, add(CFA_XSP16, literal(-7)))
        CFI (cfiCond218) R7 load(1, XDATA, add(CFA_XSP16, literal(-6)))
        CFI (cfiCond218) ?RET_LOW load(1, XDATA, add(CFA_XSP16, literal(-5)))
        CFI (cfiCond218) ?RET_HIGH load(1, XDATA, add(CFA_XSP16, literal(-4)))
        CFI (cfiCond218) ?BRET_EXT load(1, XDATA, add(CFA_XSP16, literal(-3)))
        CFI (cfiCond218) DPL0 load(1, XDATA, add(CFA_XSP16, literal(-2)))
        CFI (cfiCond218) DPH0 load(1, XDATA, add(CFA_XSP16, literal(-1)))
        CFI (cfiCond218) CFA_SP SP+0
        CFI (cfiCond218) CFA_XSP16 add(XSP16, 33)
        CFI Block cfiCond219 Using cfiCommon0
        CFI (cfiCond219) NoFunction
        CFI (cfiCond219) Conditional ??CrossCallReturnLabel_125
        CFI (cfiCond219) R6 load(1, XDATA, add(CFA_XSP16, literal(-12)))
        CFI (cfiCond219) VB load(1, XDATA, add(CFA_XSP16, literal(-11)))
        CFI (cfiCond219) V0 load(1, XDATA, add(CFA_XSP16, literal(-10)))
        CFI (cfiCond219) V1 load(1, XDATA, add(CFA_XSP16, literal(-9)))
        CFI (cfiCond219) V2 load(1, XDATA, add(CFA_XSP16, literal(-8)))
        CFI (cfiCond219) V3 load(1, XDATA, add(CFA_XSP16, literal(-7)))
        CFI (cfiCond219) R7 load(1, XDATA, add(CFA_XSP16, literal(-6)))
        CFI (cfiCond219) ?RET_LOW load(1, XDATA, add(CFA_XSP16, literal(-5)))
        CFI (cfiCond219) ?RET_HIGH load(1, XDATA, add(CFA_XSP16, literal(-4)))
        CFI (cfiCond219) ?BRET_EXT load(1, XDATA, add(CFA_XSP16, literal(-3)))
        CFI (cfiCond219) DPL0 load(1, XDATA, add(CFA_XSP16, literal(-2)))
        CFI (cfiCond219) DPH0 load(1, XDATA, add(CFA_XSP16, literal(-1)))
        CFI (cfiCond219) CFA_SP SP+0
        CFI (cfiCond219) CFA_XSP16 add(XSP16, 33)
        CFI Block cfiPicker220 Using cfiCommon1
        CFI (cfiPicker220) NoFunction
        CFI (cfiPicker220) Picker
        INC     DPTR
        INC     DPTR
        CFI EndBlock cfiCond216
        CFI EndBlock cfiCond217
        CFI EndBlock cfiCond218
        CFI EndBlock cfiCond219
        CFI EndBlock cfiPicker220
        REQUIRE ??Subroutine61_0
        ; // Fall through to label ??Subroutine61_0

        RSEG BANKED_CODE:CODE:NOROOT(0)
??Subroutine61_0:
        CFI Block cfiCond221 Using cfiCommon0
        CFI NoFunction
        CFI Conditional ??CrossCallReturnLabel_120
        CFI R6 load(1, XDATA, add(CFA_XSP16, literal(-12)))
        CFI VB load(1, XDATA, add(CFA_XSP16, literal(-11)))
        CFI V0 load(1, XDATA, add(CFA_XSP16, literal(-10)))
        CFI V1 load(1, XDATA, add(CFA_XSP16, literal(-9)))
        CFI V2 load(1, XDATA, add(CFA_XSP16, literal(-8)))
        CFI V3 load(1, XDATA, add(CFA_XSP16, literal(-7)))
        CFI R7 load(1, XDATA, add(CFA_XSP16, literal(-6)))
        CFI ?RET_LOW load(1, XDATA, add(CFA_XSP16, literal(-5)))
        CFI ?RET_HIGH load(1, XDATA, add(CFA_XSP16, literal(-4)))
        CFI ?BRET_EXT load(1, XDATA, add(CFA_XSP16, literal(-3)))
        CFI DPL0 load(1, XDATA, add(CFA_XSP16, literal(-2)))
        CFI DPH0 load(1, XDATA, add(CFA_XSP16, literal(-1)))
        CFI CFA_SP SP+0
        CFI CFA_XSP16 add(XSP16, 33)
        CFI Block cfiCond222 Using cfiCommon0
        CFI (cfiCond222) NoFunction
        CFI (cfiCond222) Conditional ??CrossCallReturnLabel_118
        CFI (cfiCond222) R6 load(1, XDATA, add(CFA_XSP16, literal(-12)))
        CFI (cfiCond222) VB load(1, XDATA, add(CFA_XSP16, literal(-11)))
        CFI (cfiCond222) V0 load(1, XDATA, add(CFA_XSP16, literal(-10)))
        CFI (cfiCond222) V1 load(1, XDATA, add(CFA_XSP16, literal(-9)))
        CFI (cfiCond222) V2 load(1, XDATA, add(CFA_XSP16, literal(-8)))
        CFI (cfiCond222) V3 load(1, XDATA, add(CFA_XSP16, literal(-7)))
        CFI (cfiCond222) R7 load(1, XDATA, add(CFA_XSP16, literal(-6)))
        CFI (cfiCond222) ?RET_LOW load(1, XDATA, add(CFA_XSP16, literal(-5)))
        CFI (cfiCond222) ?RET_HIGH load(1, XDATA, add(CFA_XSP16, literal(-4)))
        CFI (cfiCond222) ?BRET_EXT load(1, XDATA, add(CFA_XSP16, literal(-3)))
        CFI (cfiCond222) DPL0 load(1, XDATA, add(CFA_XSP16, literal(-2)))
        CFI (cfiCond222) DPH0 load(1, XDATA, add(CFA_XSP16, literal(-1)))
        CFI (cfiCond222) CFA_SP SP+0
        CFI (cfiCond222) CFA_XSP16 add(XSP16, 33)
        CFI Block cfiCond223 Using cfiCommon0
        CFI (cfiCond223) NoFunction
        CFI (cfiCond223) Conditional ??CrossCallReturnLabel_121
        CFI (cfiCond223) R6 load(1, XDATA, add(CFA_XSP16, literal(-12)))
        CFI (cfiCond223) VB load(1, XDATA, add(CFA_XSP16, literal(-11)))
        CFI (cfiCond223) V0 load(1, XDATA, add(CFA_XSP16, literal(-10)))
        CFI (cfiCond223) V1 load(1, XDATA, add(CFA_XSP16, literal(-9)))
        CFI (cfiCond223) V2 load(1, XDATA, add(CFA_XSP16, literal(-8)))
        CFI (cfiCond223) V3 load(1, XDATA, add(CFA_XSP16, literal(-7)))
        CFI (cfiCond223) R7 load(1, XDATA, add(CFA_XSP16, literal(-6)))
        CFI (cfiCond223) ?RET_LOW load(1, XDATA, add(CFA_XSP16, literal(-5)))
        CFI (cfiCond223) ?RET_HIGH load(1, XDATA, add(CFA_XSP16, literal(-4)))
        CFI (cfiCond223) ?BRET_EXT load(1, XDATA, add(CFA_XSP16, literal(-3)))
        CFI (cfiCond223) DPL0 load(1, XDATA, add(CFA_XSP16, literal(-2)))
        CFI (cfiCond223) DPH0 load(1, XDATA, add(CFA_XSP16, literal(-1)))
        CFI (cfiCond223) CFA_SP SP+0
        CFI (cfiCond223) CFA_XSP16 add(XSP16, 33)
        CFI Block cfiCond224 Using cfiCommon0
        CFI (cfiCond224) NoFunction
        CFI (cfiCond224) Conditional ??CrossCallReturnLabel_119
        CFI (cfiCond224) R6 load(1, XDATA, add(CFA_XSP16, literal(-9)))
        CFI (cfiCond224) VB load(1, XDATA, add(CFA_XSP16, literal(-8)))
        CFI (cfiCond224) V0 load(1, XDATA, add(CFA_XSP16, literal(-7)))
        CFI (cfiCond224) R7 load(1, XDATA, add(CFA_XSP16, literal(-6)))
        CFI (cfiCond224) ?RET_LOW load(1, XDATA, add(CFA_XSP16, literal(-5)))
        CFI (cfiCond224) ?RET_HIGH load(1, XDATA, add(CFA_XSP16, literal(-4)))
        CFI (cfiCond224) ?BRET_EXT load(1, XDATA, add(CFA_XSP16, literal(-3)))
        CFI (cfiCond224) DPL0 load(1, XDATA, add(CFA_XSP16, literal(-2)))
        CFI (cfiCond224) DPH0 load(1, XDATA, add(CFA_XSP16, literal(-1)))
        CFI (cfiCond224) CFA_SP SP+0
        CFI (cfiCond224) CFA_XSP16 add(XSP16, 9)
        CFI Block cfiCond225 Using cfiCommon0
        CFI (cfiCond225) NoFunction
        CFI (cfiCond225) Conditional ??CrossCallReturnLabel_122
        CFI (cfiCond225) R6 load(1, XDATA, add(CFA_XSP16, literal(-24)))
        CFI (cfiCond225) VB load(1, XDATA, add(CFA_XSP16, literal(-23)))
        CFI (cfiCond225) V0 load(1, XDATA, add(CFA_XSP16, literal(-22)))
        CFI (cfiCond225) V1 load(1, XDATA, add(CFA_XSP16, literal(-21)))
        CFI (cfiCond225) V2 load(1, XDATA, add(CFA_XSP16, literal(-20)))
        CFI (cfiCond225) V3 load(1, XDATA, add(CFA_XSP16, literal(-19)))
        CFI (cfiCond225) V4 load(1, XDATA, add(CFA_XSP16, literal(-18)))
        CFI (cfiCond225) V5 load(1, XDATA, add(CFA_XSP16, literal(-17)))
        CFI (cfiCond225) V6 load(1, XDATA, add(CFA_XSP16, literal(-16)))
        CFI (cfiCond225) V7 load(1, XDATA, add(CFA_XSP16, literal(-15)))
        CFI (cfiCond225) V8 load(1, XDATA, add(CFA_XSP16, literal(-14)))
        CFI (cfiCond225) V9 load(1, XDATA, add(CFA_XSP16, literal(-13)))
        CFI (cfiCond225) V10 load(1, XDATA, add(CFA_XSP16, literal(-12)))
        CFI (cfiCond225) V11 load(1, XDATA, add(CFA_XSP16, literal(-11)))
        CFI (cfiCond225) V12 load(1, XDATA, add(CFA_XSP16, literal(-10)))
        CFI (cfiCond225) V13 load(1, XDATA, add(CFA_XSP16, literal(-9)))
        CFI (cfiCond225) V14 load(1, XDATA, add(CFA_XSP16, literal(-8)))
        CFI (cfiCond225) V15 load(1, XDATA, add(CFA_XSP16, literal(-7)))
        CFI (cfiCond225) R7 load(1, XDATA, add(CFA_XSP16, literal(-6)))
        CFI (cfiCond225) ?RET_LOW load(1, XDATA, add(CFA_XSP16, literal(-5)))
        CFI (cfiCond225) ?RET_HIGH load(1, XDATA, add(CFA_XSP16, literal(-4)))
        CFI (cfiCond225) ?BRET_EXT load(1, XDATA, add(CFA_XSP16, literal(-3)))
        CFI (cfiCond225) DPL0 load(1, XDATA, add(CFA_XSP16, literal(-2)))
        CFI (cfiCond225) DPH0 load(1, XDATA, add(CFA_XSP16, literal(-1)))
        CFI (cfiCond225) CFA_SP SP+0
        CFI (cfiCond225) CFA_XSP16 add(XSP16, 32)
        CFI Block cfiCond226 Using cfiCommon0
        CFI (cfiCond226) NoFunction
        CFI (cfiCond226) Conditional ??CrossCallReturnLabel_123
        CFI (cfiCond226) R6 load(1, XDATA, add(CFA_XSP16, literal(-12)))
        CFI (cfiCond226) VB load(1, XDATA, add(CFA_XSP16, literal(-11)))
        CFI (cfiCond226) V0 load(1, XDATA, add(CFA_XSP16, literal(-10)))
        CFI (cfiCond226) V1 load(1, XDATA, add(CFA_XSP16, literal(-9)))
        CFI (cfiCond226) V2 load(1, XDATA, add(CFA_XSP16, literal(-8)))
        CFI (cfiCond226) V3 load(1, XDATA, add(CFA_XSP16, literal(-7)))
        CFI (cfiCond226) R7 load(1, XDATA, add(CFA_XSP16, literal(-6)))
        CFI (cfiCond226) ?RET_LOW load(1, XDATA, add(CFA_XSP16, literal(-5)))
        CFI (cfiCond226) ?RET_HIGH load(1, XDATA, add(CFA_XSP16, literal(-4)))
        CFI (cfiCond226) ?BRET_EXT load(1, XDATA, add(CFA_XSP16, literal(-3)))
        CFI (cfiCond226) DPL0 load(1, XDATA, add(CFA_XSP16, literal(-2)))
        CFI (cfiCond226) DPH0 load(1, XDATA, add(CFA_XSP16, literal(-1)))
        CFI (cfiCond226) CFA_SP SP+0
        CFI (cfiCond226) CFA_XSP16 add(XSP16, 33)
        CFI Block cfiCond227 Using cfiCommon0
        CFI (cfiCond227) NoFunction
        CFI (cfiCond227) Conditional ??CrossCallReturnLabel_124
        CFI (cfiCond227) R6 load(1, XDATA, add(CFA_XSP16, literal(-12)))
        CFI (cfiCond227) VB load(1, XDATA, add(CFA_XSP16, literal(-11)))
        CFI (cfiCond227) V0 load(1, XDATA, add(CFA_XSP16, literal(-10)))
        CFI (cfiCond227) V1 load(1, XDATA, add(CFA_XSP16, literal(-9)))
        CFI (cfiCond227) V2 load(1, XDATA, add(CFA_XSP16, literal(-8)))
        CFI (cfiCond227) V3 load(1, XDATA, add(CFA_XSP16, literal(-7)))
        CFI (cfiCond227) R7 load(1, XDATA, add(CFA_XSP16, literal(-6)))
        CFI (cfiCond227) ?RET_LOW load(1, XDATA, add(CFA_XSP16, literal(-5)))
        CFI (cfiCond227) ?RET_HIGH load(1, XDATA, add(CFA_XSP16, literal(-4)))
        CFI (cfiCond227) ?BRET_EXT load(1, XDATA, add(CFA_XSP16, literal(-3)))
        CFI (cfiCond227) DPL0 load(1, XDATA, add(CFA_XSP16, literal(-2)))
        CFI (cfiCond227) DPH0 load(1, XDATA, add(CFA_XSP16, literal(-1)))
        CFI (cfiCond227) CFA_SP SP+0
        CFI (cfiCond227) CFA_XSP16 add(XSP16, 33)
        CFI Block cfiCond228 Using cfiCommon0
        CFI (cfiCond228) NoFunction
        CFI (cfiCond228) Conditional ??CrossCallReturnLabel_125
        CFI (cfiCond228) R6 load(1, XDATA, add(CFA_XSP16, literal(-12)))
        CFI (cfiCond228) VB load(1, XDATA, add(CFA_XSP16, literal(-11)))
        CFI (cfiCond228) V0 load(1, XDATA, add(CFA_XSP16, literal(-10)))
        CFI (cfiCond228) V1 load(1, XDATA, add(CFA_XSP16, literal(-9)))
        CFI (cfiCond228) V2 load(1, XDATA, add(CFA_XSP16, literal(-8)))
        CFI (cfiCond228) V3 load(1, XDATA, add(CFA_XSP16, literal(-7)))
        CFI (cfiCond228) R7 load(1, XDATA, add(CFA_XSP16, literal(-6)))
        CFI (cfiCond228) ?RET_LOW load(1, XDATA, add(CFA_XSP16, literal(-5)))
        CFI (cfiCond228) ?RET_HIGH load(1, XDATA, add(CFA_XSP16, literal(-4)))
        CFI (cfiCond228) ?BRET_EXT load(1, XDATA, add(CFA_XSP16, literal(-3)))
        CFI (cfiCond228) DPL0 load(1, XDATA, add(CFA_XSP16, literal(-2)))
        CFI (cfiCond228) DPH0 load(1, XDATA, add(CFA_XSP16, literal(-1)))
        CFI (cfiCond228) CFA_SP SP+0
        CFI (cfiCond228) CFA_XSP16 add(XSP16, 33)
        CFI Block cfiPicker229 Using cfiCommon1
        CFI (cfiPicker229) NoFunction
        CFI (cfiPicker229) Picker
        MOVX    A,@DPTR
        MOV     R0,A
        INC     DPTR
        MOVX    A,@DPTR
        MOV     R1,A
        MOV     A,R0
        ORL     A,R1
        RET
        CFI EndBlock cfiCond221
        CFI EndBlock cfiCond222
        CFI EndBlock cfiCond223
        CFI EndBlock cfiCond224
        CFI EndBlock cfiCond225
        CFI EndBlock cfiCond226
        CFI EndBlock cfiCond227
        CFI EndBlock cfiCond228
        CFI EndBlock cfiPicker229
// 1988 
// 1989 /*********************************************************************
// 1990  * @fn      zclGetClusterOption
// 1991  *
// 1992  * @brief   Get the option record that matchs the cluster id
// 1993  *
// 1994  * @param   endpoint - Application's endpoint
// 1995  * @param   clusterID - cluster ID looking for
// 1996  *
// 1997  * @return  clutser option, AF_TX_OPTIONS_NONE if not found
// 1998  */

        RSEG BANKED_CODE:CODE:NOROOT(0)
// 1999 static uint8 zclGetClusterOption( uint8 endpoint, uint16 clusterID )
zclGetClusterOption:
        CFI Block cfiBlock230 Using cfiCommon0
        CFI Function zclGetClusterOption
        CODE
// 2000 {
        FUNCALL zclGetClusterOption, zclFindClusterOption
        LOCFRAME ISTACK, 0, STACK
        LOCFRAME PSTACK, 0, STACK
        LOCFRAME XSTACK, 10, STACK
        LOCFRAME IOVERLAY, 0, STATIC
        LOCFRAME DOVERLAY, 0, STATIC
        ARGFRAME ISTACK, 0, STACK
        ARGFRAME PSTACK, 0, STACK
        ARGFRAME XSTACK, 10, STACK
        ARGFRAME IOVERLAY, 0, STATIC
        ARGFRAME DOVERLAY, 0, STATIC
        MOV     A,#-0xa
        LCALL   ?BANKED_ENTER_XDATA
        CFI DPH0 load(1, XDATA, add(CFA_XSP16, literal(-1)))
        CFI DPL0 load(1, XDATA, add(CFA_XSP16, literal(-2)))
        CFI ?BRET_EXT load(1, XDATA, add(CFA_XSP16, literal(-3)))
        CFI ?RET_HIGH load(1, XDATA, add(CFA_XSP16, literal(-4)))
        CFI ?RET_LOW load(1, XDATA, add(CFA_XSP16, literal(-5)))
        CFI R7 load(1, XDATA, add(CFA_XSP16, literal(-6)))
        CFI V1 load(1, XDATA, add(CFA_XSP16, literal(-7)))
        CFI V0 load(1, XDATA, add(CFA_XSP16, literal(-8)))
        CFI VB load(1, XDATA, add(CFA_XSP16, literal(-9)))
        CFI R6 load(1, XDATA, add(CFA_XSP16, literal(-10)))
        CFI CFA_SP SP+0
        CFI CFA_XSP16 add(XSP16, 10)
        ; Saved register size: 10
        ; Auto size: 0
// 2001   uint8 option;
// 2002   zclOptionRec_t *pOption;
// 2003 
// 2004   pOption = zclFindClusterOption( endpoint, clusterID );
        ; Setup parameters for call to function zclFindClusterOption
        LCALL   ?Subroutine39 & 0xFFFF
// 2005   if ( pOption != NULL )
??CrossCallReturnLabel_66:
        JZ      ??zclGetClusterOption_0
// 2006   {
// 2007     option = pOption->option;
// 2008     if ( !ZG_SECURE_ENABLED )
// 2009     {
// 2010       option &= (AF_EN_SECURITY ^ 0xFF); // make sure Application Link Key security is off
// 2011     }
// 2012 
// 2013     return ( option ); // EMBEDDED RETURN
        INC     DPTR
        INC     DPTR
        MOVX    A,@DPTR
        ANL     A,#0xbf
        MOV     R1,A
        SJMP    ??zclGetClusterOption_1
// 2014   }
// 2015 
// 2016   return ( AF_TX_OPTIONS_NONE );
??zclGetClusterOption_0:
        MOV     R1,#0x0
        CFI EndBlock cfiBlock230
??zclGetClusterOption_1:
        REQUIRE ?Subroutine4
        ; // Fall through to label ?Subroutine4
// 2017 }

        RSEG BANKED_CODE:CODE:NOROOT(0)
?Subroutine4:
        CFI Block cfiBlock231 Using cfiCommon0
        CFI NoFunction
        CFI CFA_SP SP+0
        CFI CFA_XSP16 add(XSP16, 10)
        CFI VB load(1, XDATA, add(CFA_XSP16, literal(-9)))
        CFI DPL0 load(1, XDATA, add(CFA_XSP16, literal(-2)))
        CFI DPH0 load(1, XDATA, add(CFA_XSP16, literal(-1)))
        CFI R6 load(1, XDATA, add(CFA_XSP16, literal(-10)))
        CFI R7 load(1, XDATA, add(CFA_XSP16, literal(-6)))
        CFI V0 load(1, XDATA, add(CFA_XSP16, literal(-8)))
        CFI V1 load(1, XDATA, add(CFA_XSP16, literal(-7)))
        CFI ?BRET_EXT load(1, XDATA, add(CFA_XSP16, literal(-3)))
        CFI ?RET_HIGH load(1, XDATA, add(CFA_XSP16, literal(-4)))
        CFI ?RET_LOW load(1, XDATA, add(CFA_XSP16, literal(-5)))
        MOV     R7,#0x2
        LJMP    ?BANKED_LEAVE_XDATA
        CFI EndBlock cfiBlock231
// 2018 
// 2019 /*********************************************************************
// 2020  * @fn      zclSetSecurityOption
// 2021  *
// 2022  * @brief   Set the security option for the cluster id
// 2023  *
// 2024  * @param   endpoint - Application's endpoint
// 2025  * @param   clusterID - cluster ID looking for
// 2026  * @param   enable - whether to enable (TRUE) or disable (FALSE) security option
// 2027  *
// 2028  * @return  none
// 2029  */

        RSEG BANKED_CODE:CODE:NOROOT(0)
// 2030 static void zclSetSecurityOption( uint8 endpoint, uint16 clusterID, uint8 enable )
zclSetSecurityOption:
        CFI Block cfiBlock232 Using cfiCommon0
        CFI Function zclSetSecurityOption
        CODE
// 2031 {
        FUNCALL zclSetSecurityOption, zclFindClusterOption
        LOCFRAME ISTACK, 0, STACK
        LOCFRAME PSTACK, 0, STACK
        LOCFRAME XSTACK, 10, STACK
        LOCFRAME IOVERLAY, 0, STATIC
        LOCFRAME DOVERLAY, 0, STATIC
        ARGFRAME ISTACK, 0, STACK
        ARGFRAME PSTACK, 0, STACK
        ARGFRAME XSTACK, 10, STACK
        ARGFRAME IOVERLAY, 0, STATIC
        ARGFRAME DOVERLAY, 0, STATIC
        MOV     A,#-0xa
        LCALL   ?BANKED_ENTER_XDATA
        CFI DPH0 load(1, XDATA, add(CFA_XSP16, literal(-1)))
        CFI DPL0 load(1, XDATA, add(CFA_XSP16, literal(-2)))
        CFI ?BRET_EXT load(1, XDATA, add(CFA_XSP16, literal(-3)))
        CFI ?RET_HIGH load(1, XDATA, add(CFA_XSP16, literal(-4)))
        CFI ?RET_LOW load(1, XDATA, add(CFA_XSP16, literal(-5)))
        CFI R7 load(1, XDATA, add(CFA_XSP16, literal(-6)))
        CFI V1 load(1, XDATA, add(CFA_XSP16, literal(-7)))
        CFI V0 load(1, XDATA, add(CFA_XSP16, literal(-8)))
        CFI VB load(1, XDATA, add(CFA_XSP16, literal(-9)))
        CFI R6 load(1, XDATA, add(CFA_XSP16, literal(-10)))
        CFI CFA_SP SP+0
        CFI CFA_XSP16 add(XSP16, 10)
        ; Saved register size: 10
        ; Auto size: 0
        MOV     A,R4
        MOV     R7,A
// 2032   zclOptionRec_t *pOption;
// 2033 
// 2034   pOption = zclFindClusterOption( endpoint, clusterID );
        ; Setup parameters for call to function zclFindClusterOption
        LCALL   ?Subroutine39 & 0xFFFF
// 2035   if ( pOption != NULL )
??CrossCallReturnLabel_67:
        JZ      ??zclSetSecurityOption_0
// 2036   {
// 2037     if ( enable )
        MOV     A,R7
        INC     DPTR
        INC     DPTR
        JZ      ??zclSetSecurityOption_1
// 2038     {
// 2039       pOption->option |= AF_EN_SECURITY;
        MOVX    A,@DPTR
        SETB    0xE0 /* A   */.6
        SJMP    ??zclSetSecurityOption_2
// 2040     }
// 2041     else
// 2042     {
// 2043       pOption->option &= (AF_EN_SECURITY ^ 0xFF);
??zclSetSecurityOption_1:
        MOVX    A,@DPTR
        CLR     0xE0 /* A   */.6
??zclSetSecurityOption_2:
        MOVX    @DPTR,A
// 2044     }
// 2045   }
// 2046 }
??zclSetSecurityOption_0:
        SJMP    ?Subroutine4
        CFI EndBlock cfiBlock232

        RSEG BANKED_CODE:CODE:NOROOT(0)
?Subroutine39:
        CFI Block cfiCond233 Using cfiCommon0
        CFI NoFunction
        CFI Conditional ??CrossCallReturnLabel_66
        CFI R6 load(1, XDATA, add(CFA_XSP16, literal(-10)))
        CFI VB load(1, XDATA, add(CFA_XSP16, literal(-9)))
        CFI V0 load(1, XDATA, add(CFA_XSP16, literal(-8)))
        CFI V1 load(1, XDATA, add(CFA_XSP16, literal(-7)))
        CFI R7 load(1, XDATA, add(CFA_XSP16, literal(-6)))
        CFI ?RET_LOW load(1, XDATA, add(CFA_XSP16, literal(-5)))
        CFI ?RET_HIGH load(1, XDATA, add(CFA_XSP16, literal(-4)))
        CFI ?BRET_EXT load(1, XDATA, add(CFA_XSP16, literal(-3)))
        CFI DPL0 load(1, XDATA, add(CFA_XSP16, literal(-2)))
        CFI DPH0 load(1, XDATA, add(CFA_XSP16, literal(-1)))
        CFI CFA_SP SP+0
        CFI CFA_XSP16 add(XSP16, 10)
        CFI Block cfiCond234 Using cfiCommon0
        CFI (cfiCond234) NoFunction
        CFI (cfiCond234) Conditional ??CrossCallReturnLabel_67
        CFI (cfiCond234) R6 load(1, XDATA, add(CFA_XSP16, literal(-10)))
        CFI (cfiCond234) VB load(1, XDATA, add(CFA_XSP16, literal(-9)))
        CFI (cfiCond234) V0 load(1, XDATA, add(CFA_XSP16, literal(-8)))
        CFI (cfiCond234) V1 load(1, XDATA, add(CFA_XSP16, literal(-7)))
        CFI (cfiCond234) R7 load(1, XDATA, add(CFA_XSP16, literal(-6)))
        CFI (cfiCond234) ?RET_LOW load(1, XDATA, add(CFA_XSP16, literal(-5)))
        CFI (cfiCond234) ?RET_HIGH load(1, XDATA, add(CFA_XSP16, literal(-4)))
        CFI (cfiCond234) ?BRET_EXT load(1, XDATA, add(CFA_XSP16, literal(-3)))
        CFI (cfiCond234) DPL0 load(1, XDATA, add(CFA_XSP16, literal(-2)))
        CFI (cfiCond234) DPH0 load(1, XDATA, add(CFA_XSP16, literal(-1)))
        CFI (cfiCond234) CFA_SP SP+0
        CFI (cfiCond234) CFA_XSP16 add(XSP16, 10)
        CFI Block cfiPicker235 Using cfiCommon1
        CFI (cfiPicker235) NoFunction
        CFI (cfiPicker235) Picker
        LCALL   ??zclFindClusterOption?relay
        MOV     DPL,R2
        MOV     DPH,R3
        MOV     A,DPL
        ORL     A,DPH
        RET
        CFI EndBlock cfiCond233
        CFI EndBlock cfiCond234
        CFI EndBlock cfiPicker235
// 2047 
// 2048 #ifdef ZCL_DISCOVER
// 2049 /*********************************************************************
// 2050  * @fn      zclFindNextAttrRec
// 2051  *
// 2052  * @brief   Find the attribute (or next) record that matchs the parameters
// 2053  *
// 2054  * @param   endpoint - Application's endpoint
// 2055  * @param   clusterID - cluster ID
// 2056  * @param   attr - attribute looking for
// 2057  *
// 2058  * @return  pointer to attribute record, NULL if not found
// 2059  */
// 2060 static uint8 zclFindNextAttrRec( uint8 endpoint, uint16 clusterID,
// 2061                                  uint16 *attrId, zclAttrRec_t *pAttr )
// 2062 {
// 2063   zclAttrRecsList *pRec = zclFindAttrRecsList( endpoint );
// 2064 
// 2065   if ( pRec != NULL )
// 2066   {
// 2067     for ( uint16 x = 0; x < pRec->numAttributes; x++ )
// 2068     {
// 2069       if ( ( pRec->attrs[x].clusterID == clusterID ) &&
// 2070            ( pRec->attrs[x].attr.attrId >= *attrId ) )
// 2071       {
// 2072         *pAttr = pRec->attrs[x];
// 2073 
// 2074         // Update attribute ID
// 2075         *attrId = pAttr->attr.attrId;
// 2076 
// 2077         return ( TRUE ); // EMBEDDED RETURN
// 2078       }
// 2079     }
// 2080   }
// 2081 
// 2082   return ( FALSE );
// 2083 }
// 2084 #endif // ZCL_DISCOVER
// 2085 
// 2086 /*********************************************************************
// 2087  * @fn      zclSerializeData
// 2088  *
// 2089  * @brief   Builds a buffer from the attribute data to sent out over
// 2090  *          the air.
// 2091  *
// 2092  * @param   dataType - data types defined in zcl.h
// 2093  * @param   attrData - pointer to the attribute data
// 2094  * @param   buf - where to put the serialized data
// 2095  *
// 2096  * @return  pointer to end of destination buffer
// 2097  */

        RSEG BANKED_CODE:CODE:NOROOT(0)
// 2098 uint8 *zclSerializeData( uint8 dataType, void *attrData, uint8 *buf )
zclSerializeData:
        CFI Block cfiBlock236 Using cfiCommon0
        CFI Function zclSerializeData
        CODE
// 2099 {
        FUNCALL zclSerializeData, osal_buffer_uint32
        LOCFRAME ISTACK, 0, STACK
        LOCFRAME PSTACK, 0, STACK
        LOCFRAME XSTACK, 20, STACK
        LOCFRAME IOVERLAY, 0, STATIC
        LOCFRAME DOVERLAY, 0, STATIC
        ARGFRAME ISTACK, 0, STACK
        ARGFRAME PSTACK, 0, STACK
        ARGFRAME XSTACK, 20, STACK
        ARGFRAME IOVERLAY, 0, STATIC
        ARGFRAME DOVERLAY, 0, STATIC
        FUNCALL zclSerializeData, osal_memcpy
        LOCFRAME ISTACK, 0, STACK
        LOCFRAME PSTACK, 0, STACK
        LOCFRAME XSTACK, 19, STACK
        LOCFRAME IOVERLAY, 0, STATIC
        LOCFRAME DOVERLAY, 0, STATIC
        ARGFRAME ISTACK, 0, STACK
        ARGFRAME PSTACK, 0, STACK
        ARGFRAME XSTACK, 19, STACK
        ARGFRAME IOVERLAY, 0, STATIC
        ARGFRAME DOVERLAY, 0, STATIC
        FUNCALL zclSerializeData, osal_memcpy
        LOCFRAME ISTACK, 0, STACK
        LOCFRAME PSTACK, 0, STACK
        LOCFRAME XSTACK, 19, STACK
        LOCFRAME IOVERLAY, 0, STATIC
        LOCFRAME DOVERLAY, 0, STATIC
        ARGFRAME ISTACK, 0, STACK
        ARGFRAME PSTACK, 0, STACK
        ARGFRAME XSTACK, 19, STACK
        ARGFRAME IOVERLAY, 0, STATIC
        ARGFRAME DOVERLAY, 0, STATIC
        FUNCALL zclSerializeData, osal_memcpy
        LOCFRAME ISTACK, 0, STACK
        LOCFRAME PSTACK, 0, STACK
        LOCFRAME XSTACK, 19, STACK
        LOCFRAME IOVERLAY, 0, STATIC
        LOCFRAME DOVERLAY, 0, STATIC
        ARGFRAME ISTACK, 0, STACK
        ARGFRAME PSTACK, 0, STACK
        ARGFRAME XSTACK, 19, STACK
        ARGFRAME IOVERLAY, 0, STATIC
        ARGFRAME DOVERLAY, 0, STATIC
        FUNCALL zclSerializeData, osal_memcpy
        LOCFRAME ISTACK, 0, STACK
        LOCFRAME PSTACK, 0, STACK
        LOCFRAME XSTACK, 19, STACK
        LOCFRAME IOVERLAY, 0, STATIC
        LOCFRAME DOVERLAY, 0, STATIC
        ARGFRAME ISTACK, 0, STACK
        ARGFRAME PSTACK, 0, STACK
        ARGFRAME XSTACK, 19, STACK
        ARGFRAME IOVERLAY, 0, STATIC
        ARGFRAME DOVERLAY, 0, STATIC
        FUNCALL zclSerializeData, osal_memcpy
        LOCFRAME ISTACK, 0, STACK
        LOCFRAME PSTACK, 0, STACK
        LOCFRAME XSTACK, 19, STACK
        LOCFRAME IOVERLAY, 0, STATIC
        LOCFRAME DOVERLAY, 0, STATIC
        ARGFRAME ISTACK, 0, STACK
        ARGFRAME PSTACK, 0, STACK
        ARGFRAME XSTACK, 19, STACK
        ARGFRAME IOVERLAY, 0, STATIC
        ARGFRAME DOVERLAY, 0, STATIC
        FUNCALL zclSerializeData, osal_memcpy
        LOCFRAME ISTACK, 0, STACK
        LOCFRAME PSTACK, 0, STACK
        LOCFRAME XSTACK, 19, STACK
        LOCFRAME IOVERLAY, 0, STATIC
        LOCFRAME DOVERLAY, 0, STATIC
        ARGFRAME ISTACK, 0, STACK
        ARGFRAME PSTACK, 0, STACK
        ARGFRAME XSTACK, 19, STACK
        ARGFRAME IOVERLAY, 0, STATIC
        ARGFRAME DOVERLAY, 0, STATIC
        MOV     A,#-0x10
        LCALL   ?BANKED_ENTER_XDATA
        CFI DPH0 load(1, XDATA, add(CFA_XSP16, literal(-1)))
        CFI DPL0 load(1, XDATA, add(CFA_XSP16, literal(-2)))
        CFI ?BRET_EXT load(1, XDATA, add(CFA_XSP16, literal(-3)))
        CFI ?RET_HIGH load(1, XDATA, add(CFA_XSP16, literal(-4)))
        CFI ?RET_LOW load(1, XDATA, add(CFA_XSP16, literal(-5)))
        CFI R7 load(1, XDATA, add(CFA_XSP16, literal(-6)))
        CFI V7 load(1, XDATA, add(CFA_XSP16, literal(-7)))
        CFI V6 load(1, XDATA, add(CFA_XSP16, literal(-8)))
        CFI V5 load(1, XDATA, add(CFA_XSP16, literal(-9)))
        CFI V4 load(1, XDATA, add(CFA_XSP16, literal(-10)))
        CFI V3 load(1, XDATA, add(CFA_XSP16, literal(-11)))
        CFI V2 load(1, XDATA, add(CFA_XSP16, literal(-12)))
        CFI V1 load(1, XDATA, add(CFA_XSP16, literal(-13)))
        CFI V0 load(1, XDATA, add(CFA_XSP16, literal(-14)))
        CFI VB load(1, XDATA, add(CFA_XSP16, literal(-15)))
        CFI R6 load(1, XDATA, add(CFA_XSP16, literal(-16)))
        CFI CFA_SP SP+0
        CFI CFA_XSP16 add(XSP16, 16)
        ; Saved register size: 16
        ; Auto size: 0
        MOV     A,R2
        MOV     R6,A
        MOV     A,R3
        MOV     R7,A
        MOV     A,R4
        MOV     R2,A
        MOV     A,R5
        MOV     R3,A
// 2100   uint8 *pStr;
// 2101   uint16 len;
// 2102 
// 2103   switch ( dataType )
        MOV     A,R1
        LCALL   ?UC_SWITCH_SPARSE
`?<Jumptable for zclSerializeData>_0`:
        DATA
        DATA8
        DATA
        DATA8
        DATA
        DATA8
        DB        4
        DATA
        DATA8
        DATA
        DATA8
        DATA
        DATA8
        DB        65
        DATA
        DATA8
        DATA
        DATA8
        DB        66
        DATA
        DATA16
        DATA
        DATA16
        DATA
        DATA16
        DW        ??zclSerializeData_0
        DATA
        DATA8
        DATA
        DATA8
        DATA
        DATA8
        DB        67
        DATA
        DATA8
        DATA
        DATA8
        DB        68
        DATA
        DATA16
        DATA
        DATA16
        DATA
        DATA16
        DW        ??zclSerializeData_1
        DATA
        DATA8
        DATA
        DATA8
        DATA
        DATA8
        DB        224
        DATA
        DATA8
        DATA
        DATA8
        DB        226
        DATA
        DATA16
        DATA
        DATA16
        DATA
        DATA16
        DW        ??zclSerializeData_2
        DATA
        DATA8
        DATA
        DATA8
        DATA
        DATA8
        DB        232
        DATA
        DATA8
        DATA
        DATA8
        DB        233
        DATA
        DATA16
        DATA
        DATA16
        DATA
        DATA16
        DW        ??zclSerializeData_3
        DATA
        DATA8
        DATA
        DATA8
        DATA
        DATA8
        DB        26
        DATA
        DATA8
        DATA
        DATA8
        DATA
        DATA8
        DB        8
        DATA
        DATA16
        DATA
        DATA16
        DATA
        DATA16
        DW        ??zclSerializeData_4
        DATA
        DATA8
        DATA
        DATA8
        DATA
        DATA8
        DB        9
        DATA
        DATA16
        DATA
        DATA16
        DATA
        DATA16
        DW        ??zclSerializeData_3
        DATA
        DATA8
        DATA
        DATA8
        DATA
        DATA8
        DB        10
        DATA
        DATA16
        DATA
        DATA16
        DATA
        DATA16
        DW        ??zclSerializeData_5
        DATA
        DATA8
        DATA
        DATA8
        DATA
        DATA8
        DB        11
        DATA
        DATA16
        DATA
        DATA16
        DATA
        DATA16
        DW        ??zclSerializeData_2
        DATA
        DATA8
        DATA
        DATA8
        DATA
        DATA8
        DB        16
        DATA
        DATA16
        DATA
        DATA16
        DATA
        DATA16
        DW        ??zclSerializeData_4
        DATA
        DATA8
        DATA
        DATA8
        DATA
        DATA8
        DB        24
        DATA
        DATA16
        DATA
        DATA16
        DATA
        DATA16
        DW        ??zclSerializeData_4
        DATA
        DATA8
        DATA
        DATA8
        DATA
        DATA8
        DB        25
        DATA
        DATA16
        DATA
        DATA16
        DATA
        DATA16
        DW        ??zclSerializeData_3
        DATA
        DATA8
        DATA
        DATA8
        DATA
        DATA8
        DB        26
        DATA
        DATA16
        DATA
        DATA16
        DATA
        DATA16
        DW        ??zclSerializeData_5
        DATA
        DATA8
        DATA
        DATA8
        DATA
        DATA8
        DB        27
        DATA
        DATA16
        DATA
        DATA16
        DATA
        DATA16
        DW        ??zclSerializeData_2
        DATA
        DATA8
        DATA
        DATA8
        DATA
        DATA8
        DB        32
        DATA
        DATA16
        DATA
        DATA16
        DATA
        DATA16
        DW        ??zclSerializeData_4
        DATA
        DATA8
        DATA
        DATA8
        DATA
        DATA8
        DB        33
        DATA
        DATA16
        DATA
        DATA16
        DATA
        DATA16
        DW        ??zclSerializeData_3
        DATA
        DATA8
        DATA
        DATA8
        DATA
        DATA8
        DB        34
        DATA
        DATA16
        DATA
        DATA16
        DATA
        DATA16
        DW        ??zclSerializeData_5
        DATA
        DATA8
        DATA
        DATA8
        DATA
        DATA8
        DB        35
        DATA
        DATA16
        DATA
        DATA16
        DATA
        DATA16
        DW        ??zclSerializeData_2
        DATA
        DATA8
        DATA
        DATA8
        DATA
        DATA8
        DB        36
        DATA
        DATA16
        DATA
        DATA16
        DATA
        DATA16
        DW        ??zclSerializeData_6
        DATA
        DATA8
        DATA
        DATA8
        DATA
        DATA8
        DB        37
        DATA
        DATA16
        DATA
        DATA16
        DATA
        DATA16
        DW        ??zclSerializeData_7
        DATA
        DATA8
        DATA
        DATA8
        DATA
        DATA8
        DB        40
        DATA
        DATA16
        DATA
        DATA16
        DATA
        DATA16
        DW        ??zclSerializeData_4
        DATA
        DATA8
        DATA
        DATA8
        DATA
        DATA8
        DB        41
        DATA
        DATA16
        DATA
        DATA16
        DATA
        DATA16
        DW        ??zclSerializeData_3
        DATA
        DATA8
        DATA
        DATA8
        DATA
        DATA8
        DB        42
        DATA
        DATA16
        DATA
        DATA16
        DATA
        DATA16
        DW        ??zclSerializeData_5
        DATA
        DATA8
        DATA
        DATA8
        DATA
        DATA8
        DB        43
        DATA
        DATA16
        DATA
        DATA16
        DATA
        DATA16
        DW        ??zclSerializeData_2
        DATA
        DATA8
        DATA
        DATA8
        DATA
        DATA8
        DB        48
        DATA
        DATA16
        DATA
        DATA16
        DATA
        DATA16
        DW        ??zclSerializeData_4
        DATA
        DATA8
        DATA
        DATA8
        DATA
        DATA8
        DB        49
        DATA
        DATA16
        DATA
        DATA16
        DATA
        DATA16
        DW        ??zclSerializeData_3
        DATA
        DATA8
        DATA
        DATA8
        DATA
        DATA8
        DB        56
        DATA
        DATA16
        DATA
        DATA16
        DATA
        DATA16
        DW        ??zclSerializeData_3
        DATA
        DATA8
        DATA
        DATA8
        DATA
        DATA8
        DB        57
        DATA
        DATA16
        DATA
        DATA16
        DATA
        DATA16
        DW        ??zclSerializeData_2
        DATA
        DATA8
        DATA
        DATA8
        DATA
        DATA8
        DB        234
        DATA
        DATA16
        DATA
        DATA16
        DATA
        DATA16
        DW        ??zclSerializeData_2
        DATA
        DATA8
        DATA
        DATA8
        DATA
        DATA8
        DB        240
        DATA
        DATA16
        DATA
        DATA16
        DATA
        DATA16
        DW        ??zclSerializeData_8
        DATA
        DATA8
        DATA
        DATA8
        DATA
        DATA8
        DB        241
        DATA
        DATA16
        DATA
        DATA16
        DATA
        DATA16
        DW        ??zclSerializeData_9
        DATA
        DATA16
        DATA
        DATA16
        DW        ??zclSerializeData_10
        CODE
// 2104   {
// 2105     case ZCL_DATATYPE_DATA8:
// 2106     case ZCL_DATATYPE_BOOLEAN:
// 2107     case ZCL_DATATYPE_BITMAP8:
// 2108     case ZCL_DATATYPE_INT8:
// 2109     case ZCL_DATATYPE_UINT8:
// 2110     case ZCL_DATATYPE_ENUM8:
// 2111       *buf++ = *((uint8 *)attrData);
??zclSerializeData_4:
        LCALL   ?Subroutine31 & 0xFFFF
??CrossCallReturnLabel_135:
        MOVX    @DPTR,A
        INC     DPTR
        MOV     R2,DPL
??zclSerializeData_11:
        MOV     R3,DPH
// 2112        break;
        LJMP    ??zclSerializeData_10 & 0xFFFF
// 2113 
// 2114     case ZCL_DATATYPE_DATA16:
// 2115     case ZCL_DATATYPE_BITMAP16:
// 2116     case ZCL_DATATYPE_UINT16:
// 2117     case ZCL_DATATYPE_INT16:
// 2118     case ZCL_DATATYPE_ENUM16:
// 2119     case ZCL_DATATYPE_SEMI_PREC:
// 2120     case ZCL_DATATYPE_CLUSTER_ID:
// 2121     case ZCL_DATATYPE_ATTR_ID:
// 2122       *buf++ = LO_UINT16( *((uint16*)attrData) );
??zclSerializeData_3:
        LCALL   ?Subroutine31 & 0xFFFF
??CrossCallReturnLabel_136:
        LCALL   ?Subroutine10 & 0xFFFF
// 2123       *buf++ = HI_UINT16( *((uint16*)attrData) );
??CrossCallReturnLabel_9:
        INC     DPTR
        LCALL   ??Subroutine63_0 & 0xFFFF
??CrossCallReturnLabel_133:
        MOVX    @DPTR,A
        INC     DPTR
        INC     R2
        SJMP    ??zclSerializeData_11
// 2124       break;
// 2125 
// 2126     case ZCL_DATATYPE_DATA24:
// 2127     case ZCL_DATATYPE_BITMAP24:
// 2128     case ZCL_DATATYPE_UINT24:
// 2129     case ZCL_DATATYPE_INT24:
// 2130       *buf++ = BREAK_UINT32( *((uint32*)attrData), 0 );
??zclSerializeData_5:
        MOV     DPL,R6
        MOV     DPH,R7
        MOV     R0,#?V0 + 4
        LCALL   ?L_MOV_X
        MOV     DPL,R2
        MOV     DPH,R3
        MOV     A,?V0 + 4
        LCALL   ?Subroutine10 & 0xFFFF
// 2131       *buf++ = BREAK_UINT32( *((uint32*)attrData), 1 );
??CrossCallReturnLabel_10:
        MOV     R0,#?V0 + 4
        LCALL   ?L_MOV_X
        MOV     A,?V0 + 5
        MOV     DPL,R2
        MOV     DPH,R3
        MOVX    @DPTR,A
        INC     DPTR
        INC     R2
        MOV     R3,DPH
// 2132       *buf++ = BREAK_UINT32( *((uint32*)attrData), 2 );
        MOV     DPL,R6
        MOV     DPH,R7
        MOV     R0,#?V0 + 4
        LCALL   ?L_MOV_X
        MOV     A,#0x10
        MOV     R0,#?V0 + 4
        LCALL   ?UL_SHR
        MOV     DPL,R2
        MOV     DPH,R3
        MOV     A,?V0 + 4
        SJMP    ??CrossCallReturnLabel_133
// 2133       break;
// 2134 
// 2135     case ZCL_DATATYPE_DATA32:
// 2136     case ZCL_DATATYPE_BITMAP32:
// 2137     case ZCL_DATATYPE_UINT32:
// 2138     case ZCL_DATATYPE_INT32:
// 2139     case ZCL_DATATYPE_SINGLE_PREC:
// 2140     case ZCL_DATATYPE_TOD:
// 2141     case ZCL_DATATYPE_DATE:
// 2142     case ZCL_DATATYPE_UTC:
// 2143     case ZCL_DATATYPE_BAC_OID:
// 2144       buf = osal_buffer_uint32( buf, *((uint32*)attrData) );
??zclSerializeData_2:
        ; Setup parameters for call to function osal_buffer_uint32
        MOV     DPL,R6
        MOV     DPH,R7
        LCALL   ?PUSH_XSTACK8_X_FOUR
        CFI CFA_XSP16 add(XSP16, 20)
        LCALL   ??osal_buffer_uint32?relay
        MOV     A,#0x4
        LCALL   ?DEALLOC_XSTACK8
        CFI CFA_XSP16 add(XSP16, 16)
// 2145       break;
        SJMP    ??zclSerializeData_10
// 2146 
// 2147     case ZCL_DATATYPE_UINT40:
// 2148       pStr = (uint8*)attrData;
// 2149       buf = osal_memcpy( buf, pStr, 5 );
??zclSerializeData_6:
        ; Setup parameters for call to function osal_memcpy
        MOV     ?V0 + 4,R6
        MOV     ?V0 + 5,R7
        MOV     ?V0 + 6,#0x0
        MOV     R0,#?V0 + 4
        LCALL   ?PUSH_XSTACK_I_THREE
        CFI CFA_XSP16 add(XSP16, 19)
        MOV     R4,#0x5
        SJMP    ??zclSerializeData_12
        CFI CFA_XSP16 add(XSP16, 16)
// 2150       break;
// 2151 
// 2152     case ZCL_DATATYPE_UINT48:
// 2153       pStr = (uint8*)attrData;
// 2154       buf = osal_memcpy( buf, pStr, 6 );
??zclSerializeData_7:
        ; Setup parameters for call to function osal_memcpy
        MOV     ?V0 + 4,R6
        MOV     ?V0 + 5,R7
        MOV     ?V0 + 6,#0x0
        MOV     R0,#?V0 + 4
        LCALL   ?PUSH_XSTACK_I_THREE
        CFI CFA_XSP16 add(XSP16, 19)
        MOV     R4,#0x6
        SJMP    ??zclSerializeData_12
        CFI CFA_XSP16 add(XSP16, 16)
// 2155       break;
// 2156 
// 2157     case ZCL_DATATYPE_IEEE_ADDR:
// 2158       pStr = (uint8*)attrData;
// 2159       buf = osal_memcpy( buf, pStr, 8 );
??zclSerializeData_8:
        ; Setup parameters for call to function osal_memcpy
        MOV     ?V0 + 4,R6
        MOV     ?V0 + 5,R7
        MOV     ?V0 + 6,#0x0
        MOV     R0,#?V0 + 4
        LCALL   ?PUSH_XSTACK_I_THREE
        CFI CFA_XSP16 add(XSP16, 19)
        MOV     R4,#0x8
        SJMP    ??zclSerializeData_12
        CFI CFA_XSP16 add(XSP16, 16)
// 2160       break;
// 2161 
// 2162     case ZCL_DATATYPE_CHAR_STR:
// 2163     case ZCL_DATATYPE_OCTET_STR:
// 2164       pStr = (uint8*)attrData;
// 2165       len = *pStr;
// 2166       buf = osal_memcpy( buf, pStr, len+1 ); // Including length field
??zclSerializeData_0:
        ; Setup parameters for call to function osal_memcpy
        MOV     ?V0 + 4,R6
        MOV     ?V0 + 5,R7
        MOV     ?V0 + 6,#0x0
        MOV     R0,#?V0 + 4
        LCALL   ?PUSH_XSTACK_I_THREE
        CFI CFA_XSP16 add(XSP16, 19)
        MOV     DPL,R6
        MOV     DPH,R7
        MOVX    A,@DPTR
        ADD     A,#0x1
        MOV     R4,A
        CLR     A
??zclSerializeData_13:
        ADDC    A,#0x0
        MOV     R5,A
        SJMP    ??zclSerializeData_14
        CFI CFA_XSP16 add(XSP16, 16)
// 2167       break;
// 2168 
// 2169     case ZCL_DATATYPE_LONG_CHAR_STR:
// 2170     case ZCL_DATATYPE_LONG_OCTET_STR:
// 2171       pStr = (uint8*)attrData;
// 2172       len = BUILD_UINT16( pStr[0], pStr[1] );
// 2173       buf = osal_memcpy( buf, pStr, len+2 ); // Including length field
??zclSerializeData_1:
        ; Setup parameters for call to function osal_memcpy
        MOV     ?V0 + 4,R6
        MOV     ?V0 + 5,R7
        MOV     ?V0 + 6,#0x0
        MOV     R0,#?V0 + 4
        LCALL   ?PUSH_XSTACK_I_THREE
        CFI CFA_XSP16 add(XSP16, 19)
        MOV     DPL,R6
        MOV     DPH,R7
        LCALL   ?Subroutine34 & 0xFFFF
??CrossCallReturnLabel_56:
        INC     R4
        INC     R4
        MOV     A,R1
        SJMP    ??zclSerializeData_13
        CFI CFA_XSP16 add(XSP16, 16)
// 2174       break;
// 2175 
// 2176     case ZCL_DATATYPE_128_BIT_SEC_KEY:
// 2177       pStr = (uint8*)attrData;
// 2178       buf = osal_memcpy( buf, pStr, SEC_KEY_LEN );
??zclSerializeData_9:
        ; Setup parameters for call to function osal_memcpy
        MOV     ?V0 + 4,R6
        MOV     ?V0 + 5,R7
        MOV     ?V0 + 6,#0x0
        MOV     R0,#?V0 + 4
        LCALL   ?PUSH_XSTACK_I_THREE
        CFI CFA_XSP16 add(XSP16, 19)
        MOV     R4,#0x10
??zclSerializeData_12:
        MOV     R5,#0x0
??zclSerializeData_14:
        LCALL   ??osal_memcpy?relay
        MOV     A,#0x3
        LCALL   ?DEALLOC_XSTACK8
        CFI CFA_XSP16 add(XSP16, 16)
// 2179       break;
// 2180 
// 2181     case ZCL_DATATYPE_NO_DATA:
// 2182     case ZCL_DATATYPE_UNKNOWN:
// 2183       // Fall through
// 2184 
// 2185     default:
// 2186       break;
// 2187   }
// 2188 
// 2189   return ( buf );
??zclSerializeData_10:
        MOV     R7,#0x8
        LJMP    ?BANKED_LEAVE_XDATA
        CFI EndBlock cfiBlock236
// 2190 }

        RSEG BANKED_CODE:CODE:NOROOT(0)
?Subroutine10:
        CFI Block cfiCond237 Using cfiCommon0
        CFI NoFunction
        CFI Conditional ??CrossCallReturnLabel_9
        CFI R6 load(1, XDATA, add(CFA_XSP16, literal(-16)))
        CFI VB load(1, XDATA, add(CFA_XSP16, literal(-15)))
        CFI V0 load(1, XDATA, add(CFA_XSP16, literal(-14)))
        CFI V1 load(1, XDATA, add(CFA_XSP16, literal(-13)))
        CFI V2 load(1, XDATA, add(CFA_XSP16, literal(-12)))
        CFI V3 load(1, XDATA, add(CFA_XSP16, literal(-11)))
        CFI V4 load(1, XDATA, add(CFA_XSP16, literal(-10)))
        CFI V5 load(1, XDATA, add(CFA_XSP16, literal(-9)))
        CFI V6 load(1, XDATA, add(CFA_XSP16, literal(-8)))
        CFI V7 load(1, XDATA, add(CFA_XSP16, literal(-7)))
        CFI R7 load(1, XDATA, add(CFA_XSP16, literal(-6)))
        CFI ?RET_LOW load(1, XDATA, add(CFA_XSP16, literal(-5)))
        CFI ?RET_HIGH load(1, XDATA, add(CFA_XSP16, literal(-4)))
        CFI ?BRET_EXT load(1, XDATA, add(CFA_XSP16, literal(-3)))
        CFI DPL0 load(1, XDATA, add(CFA_XSP16, literal(-2)))
        CFI DPH0 load(1, XDATA, add(CFA_XSP16, literal(-1)))
        CFI CFA_SP SP+0
        CFI CFA_XSP16 add(XSP16, 16)
        CFI Block cfiCond238 Using cfiCommon0
        CFI (cfiCond238) NoFunction
        CFI (cfiCond238) Conditional ??CrossCallReturnLabel_10
        CFI (cfiCond238) R6 load(1, XDATA, add(CFA_XSP16, literal(-16)))
        CFI (cfiCond238) VB load(1, XDATA, add(CFA_XSP16, literal(-15)))
        CFI (cfiCond238) V0 load(1, XDATA, add(CFA_XSP16, literal(-14)))
        CFI (cfiCond238) V1 load(1, XDATA, add(CFA_XSP16, literal(-13)))
        CFI (cfiCond238) V2 load(1, XDATA, add(CFA_XSP16, literal(-12)))
        CFI (cfiCond238) V3 load(1, XDATA, add(CFA_XSP16, literal(-11)))
        CFI (cfiCond238) V4 load(1, XDATA, add(CFA_XSP16, literal(-10)))
        CFI (cfiCond238) V5 load(1, XDATA, add(CFA_XSP16, literal(-9)))
        CFI (cfiCond238) V6 load(1, XDATA, add(CFA_XSP16, literal(-8)))
        CFI (cfiCond238) V7 load(1, XDATA, add(CFA_XSP16, literal(-7)))
        CFI (cfiCond238) R7 load(1, XDATA, add(CFA_XSP16, literal(-6)))
        CFI (cfiCond238) ?RET_LOW load(1, XDATA, add(CFA_XSP16, literal(-5)))
        CFI (cfiCond238) ?RET_HIGH load(1, XDATA, add(CFA_XSP16, literal(-4)))
        CFI (cfiCond238) ?BRET_EXT load(1, XDATA, add(CFA_XSP16, literal(-3)))
        CFI (cfiCond238) DPL0 load(1, XDATA, add(CFA_XSP16, literal(-2)))
        CFI (cfiCond238) DPH0 load(1, XDATA, add(CFA_XSP16, literal(-1)))
        CFI (cfiCond238) CFA_SP SP+0
        CFI (cfiCond238) CFA_XSP16 add(XSP16, 16)
        CFI Block cfiPicker239 Using cfiCommon1
        CFI (cfiPicker239) NoFunction
        CFI (cfiPicker239) Picker
        MOVX    @DPTR,A
        INC     DPTR
        MOV     R2,DPL
        MOV     R3,DPH
        MOV     DPL,R6
        MOV     DPH,R7
        RET
        CFI EndBlock cfiCond237
        CFI EndBlock cfiCond238
        CFI EndBlock cfiPicker239
// 2191 
// 2192 #ifdef ZCL_REPORT
// 2193 /*********************************************************************
// 2194  * @fn      zclAnalogDataType
// 2195  *
// 2196  * @brief   Checks to see if Data Type is Analog
// 2197  *
// 2198  * @param   dataType - data type
// 2199  *
// 2200  * @return  TRUE if data type is analog
// 2201  */
// 2202 uint8 zclAnalogDataType( uint8 dataType )
// 2203 {
// 2204   uint8 analog;
// 2205 
// 2206   switch ( dataType )
// 2207   {
// 2208     case ZCL_DATATYPE_UINT8:
// 2209     case ZCL_DATATYPE_UINT16:
// 2210     case ZCL_DATATYPE_UINT24:
// 2211     case ZCL_DATATYPE_UINT32:
// 2212     case ZCL_DATATYPE_UINT40:
// 2213     case ZCL_DATATYPE_UINT48:
// 2214     case ZCL_DATATYPE_UINT56:
// 2215     case ZCL_DATATYPE_UINT64:
// 2216     case ZCL_DATATYPE_INT8:
// 2217     case ZCL_DATATYPE_INT16:
// 2218     case ZCL_DATATYPE_INT24:
// 2219     case ZCL_DATATYPE_INT32:
// 2220     case ZCL_DATATYPE_INT40:
// 2221     case ZCL_DATATYPE_INT48:
// 2222     case ZCL_DATATYPE_INT56:
// 2223     case ZCL_DATATYPE_INT64:
// 2224     case ZCL_DATATYPE_SEMI_PREC:
// 2225     case ZCL_DATATYPE_SINGLE_PREC:
// 2226     case ZCL_DATATYPE_DOUBLE_PREC:
// 2227     case ZCL_DATATYPE_TOD:
// 2228     case ZCL_DATATYPE_DATE:
// 2229     case ZCL_DATATYPE_UTC:
// 2230       analog = TRUE;
// 2231       break;
// 2232 
// 2233     default:
// 2234       analog = FALSE;
// 2235       break;
// 2236   }
// 2237 
// 2238   return ( analog );
// 2239 }
// 2240 
// 2241 /*********************************************************************
// 2242  * @fn      zcl_BuildAnalogData
// 2243  *
// 2244  * @brief   Build an analog arribute out of sequential bytes.
// 2245  *
// 2246  * @param   dataType - type of data
// 2247  * @param   pData - pointer to data
// 2248  * @param   pBuf - where to put the data
// 2249  *
// 2250  * @return  none
// 2251  */
// 2252 static void zcl_BuildAnalogData( uint8 dataType, uint8 *pData, uint8 *pBuf)
// 2253 {
// 2254   switch ( dataType )
// 2255   {
// 2256     case ZCL_DATATYPE_UINT8:
// 2257     case ZCL_DATATYPE_INT8:
// 2258       *pData = *pBuf;
// 2259       break;
// 2260 
// 2261     case ZCL_DATATYPE_UINT16:
// 2262     case ZCL_DATATYPE_INT16:
// 2263     case ZCL_DATATYPE_SEMI_PREC:
// 2264       *((uint16*)pData) = BUILD_UINT16( pBuf[0], pBuf[1] );
// 2265       break;
// 2266 
// 2267     case ZCL_DATATYPE_UINT24:
// 2268     case ZCL_DATATYPE_INT24:
// 2269       *((uint32*)pData) = osal_build_uint32( pBuf, 3 );
// 2270       break;
// 2271 
// 2272     case ZCL_DATATYPE_UINT32:
// 2273     case ZCL_DATATYPE_INT32:
// 2274     case ZCL_DATATYPE_SINGLE_PREC:
// 2275     case ZCL_DATATYPE_TOD:
// 2276     case ZCL_DATATYPE_DATE:
// 2277     case ZCL_DATATYPE_UTC:
// 2278       *((uint32*)pData) = osal_build_uint32( pBuf, 4 );
// 2279       break;
// 2280 
// 2281     case ZCL_DATATYPE_UINT40:
// 2282     case ZCL_DATATYPE_UINT48:
// 2283     case ZCL_DATATYPE_UINT56:
// 2284     case ZCL_DATATYPE_UINT64:
// 2285     case ZCL_DATATYPE_INT40:
// 2286     case ZCL_DATATYPE_INT48:
// 2287     case ZCL_DATATYPE_INT56:
// 2288     case ZCL_DATATYPE_INT64:
// 2289     case ZCL_DATATYPE_DOUBLE_PREC:
// 2290       *pData = 0;
// 2291       break;
// 2292 
// 2293     default:
// 2294       *pData = 0;
// 2295       break;
// 2296   }
// 2297 }
// 2298 #endif // ZCL_REPORT
// 2299 
// 2300 /*********************************************************************
// 2301  * @fn      zclGetDataTypeLength
// 2302  *
// 2303  * @brief   Return the length of the datatype in octet.
// 2304  *
// 2305  *          NOTE: Should not be called for ZCL_DATATYPE_OCTECT_STR or
// 2306  *                ZCL_DATATYPE_CHAR_STR data types.
// 2307  *
// 2308  * @param   dataType - data type
// 2309  *
// 2310  * @return  length of data
// 2311  */

        RSEG BANKED_CODE:CODE:NOROOT(0)
// 2312 uint8 zclGetDataTypeLength( uint8 dataType )
zclGetDataTypeLength:
        CFI Block cfiBlock240 Using cfiCommon0
        CFI Function zclGetDataTypeLength
        CODE
// 2313 {
        PUSH    DPL
        CFI DPL0 Frame(CFA_SP, 4)
        CFI CFA_SP SP+-4
        PUSH    DPH
        CFI DPH0 Frame(CFA_SP, 5)
        CFI CFA_SP SP+-5
        ; Saved register size: 2
        ; Auto size: 0
        MOV     A,R1
// 2314   uint8 len;
// 2315 
// 2316   switch ( dataType )
        LCALL   ?UC_SWITCH_SPARSE
`?<Jumptable for zclGetDataTypeLength>_0`:
        DATA
        DATA8
        DATA
        DATA8
        DATA
        DATA8
        DB        2
        DATA
        DATA8
        DATA
        DATA8
        DATA
        DATA8
        DB        224
        DATA
        DATA8
        DATA
        DATA8
        DB        226
        DATA
        DATA16
        DATA
        DATA16
        DATA
        DATA16
        DW        ??zclGetDataTypeLength_0
        DATA
        DATA8
        DATA
        DATA8
        DATA
        DATA8
        DB        232
        DATA
        DATA8
        DATA
        DATA8
        DB        233
        DATA
        DATA16
        DATA
        DATA16
        DATA
        DATA16
        DW        ??zclGetDataTypeLength_1
        DATA
        DATA8
        DATA
        DATA8
        DATA
        DATA8
        DB        33
        DATA
        DATA8
        DATA
        DATA8
        DATA
        DATA8
        DB        8
        DATA
        DATA16
        DATA
        DATA16
        DATA
        DATA16
        DW        ??zclGetDataTypeLength_2
        DATA
        DATA8
        DATA
        DATA8
        DATA
        DATA8
        DB        9
        DATA
        DATA16
        DATA
        DATA16
        DATA
        DATA16
        DW        ??zclGetDataTypeLength_1
        DATA
        DATA8
        DATA
        DATA8
        DATA
        DATA8
        DB        10
        DATA
        DATA16
        DATA
        DATA16
        DATA
        DATA16
        DW        ??zclGetDataTypeLength_3
        DATA
        DATA8
        DATA
        DATA8
        DATA
        DATA8
        DB        11
        DATA
        DATA16
        DATA
        DATA16
        DATA
        DATA16
        DW        ??zclGetDataTypeLength_0
        DATA
        DATA8
        DATA
        DATA8
        DATA
        DATA8
        DB        16
        DATA
        DATA16
        DATA
        DATA16
        DATA
        DATA16
        DW        ??zclGetDataTypeLength_2
        DATA
        DATA8
        DATA
        DATA8
        DATA
        DATA8
        DB        24
        DATA
        DATA16
        DATA
        DATA16
        DATA
        DATA16
        DW        ??zclGetDataTypeLength_2
        DATA
        DATA8
        DATA
        DATA8
        DATA
        DATA8
        DB        25
        DATA
        DATA16
        DATA
        DATA16
        DATA
        DATA16
        DW        ??zclGetDataTypeLength_1
        DATA
        DATA8
        DATA
        DATA8
        DATA
        DATA8
        DB        26
        DATA
        DATA16
        DATA
        DATA16
        DATA
        DATA16
        DW        ??zclGetDataTypeLength_3
        DATA
        DATA8
        DATA
        DATA8
        DATA
        DATA8
        DB        27
        DATA
        DATA16
        DATA
        DATA16
        DATA
        DATA16
        DW        ??zclGetDataTypeLength_0
        DATA
        DATA8
        DATA
        DATA8
        DATA
        DATA8
        DB        32
        DATA
        DATA16
        DATA
        DATA16
        DATA
        DATA16
        DW        ??zclGetDataTypeLength_2
        DATA
        DATA8
        DATA
        DATA8
        DATA
        DATA8
        DB        33
        DATA
        DATA16
        DATA
        DATA16
        DATA
        DATA16
        DW        ??zclGetDataTypeLength_1
        DATA
        DATA8
        DATA
        DATA8
        DATA
        DATA8
        DB        34
        DATA
        DATA16
        DATA
        DATA16
        DATA
        DATA16
        DW        ??zclGetDataTypeLength_3
        DATA
        DATA8
        DATA
        DATA8
        DATA
        DATA8
        DB        35
        DATA
        DATA16
        DATA
        DATA16
        DATA
        DATA16
        DW        ??zclGetDataTypeLength_0
        DATA
        DATA8
        DATA
        DATA8
        DATA
        DATA8
        DB        36
        DATA
        DATA16
        DATA
        DATA16
        DATA
        DATA16
        DW        ??zclGetDataTypeLength_4
        DATA
        DATA8
        DATA
        DATA8
        DATA
        DATA8
        DB        37
        DATA
        DATA16
        DATA
        DATA16
        DATA
        DATA16
        DW        ??zclGetDataTypeLength_5
        DATA
        DATA8
        DATA
        DATA8
        DATA
        DATA8
        DB        38
        DATA
        DATA16
        DATA
        DATA16
        DATA
        DATA16
        DW        ??zclGetDataTypeLength_6
        DATA
        DATA8
        DATA
        DATA8
        DATA
        DATA8
        DB        39
        DATA
        DATA16
        DATA
        DATA16
        DATA
        DATA16
        DW        ??zclGetDataTypeLength_7
        DATA
        DATA8
        DATA
        DATA8
        DATA
        DATA8
        DB        40
        DATA
        DATA16
        DATA
        DATA16
        DATA
        DATA16
        DW        ??zclGetDataTypeLength_2
        DATA
        DATA8
        DATA
        DATA8
        DATA
        DATA8
        DB        41
        DATA
        DATA16
        DATA
        DATA16
        DATA
        DATA16
        DW        ??zclGetDataTypeLength_1
        DATA
        DATA8
        DATA
        DATA8
        DATA
        DATA8
        DB        42
        DATA
        DATA16
        DATA
        DATA16
        DATA
        DATA16
        DW        ??zclGetDataTypeLength_3
        DATA
        DATA8
        DATA
        DATA8
        DATA
        DATA8
        DB        43
        DATA
        DATA16
        DATA
        DATA16
        DATA
        DATA16
        DW        ??zclGetDataTypeLength_0
        DATA
        DATA8
        DATA
        DATA8
        DATA
        DATA8
        DB        44
        DATA
        DATA16
        DATA
        DATA16
        DATA
        DATA16
        DW        ??zclGetDataTypeLength_4
        DATA
        DATA8
        DATA
        DATA8
        DATA
        DATA8
        DB        45
        DATA
        DATA16
        DATA
        DATA16
        DATA
        DATA16
        DW        ??zclGetDataTypeLength_5
        DATA
        DATA8
        DATA
        DATA8
        DATA
        DATA8
        DB        46
        DATA
        DATA16
        DATA
        DATA16
        DATA
        DATA16
        DW        ??zclGetDataTypeLength_6
        DATA
        DATA8
        DATA
        DATA8
        DATA
        DATA8
        DB        47
        DATA
        DATA16
        DATA
        DATA16
        DATA
        DATA16
        DW        ??zclGetDataTypeLength_7
        DATA
        DATA8
        DATA
        DATA8
        DATA
        DATA8
        DB        48
        DATA
        DATA16
        DATA
        DATA16
        DATA
        DATA16
        DW        ??zclGetDataTypeLength_2
        DATA
        DATA8
        DATA
        DATA8
        DATA
        DATA8
        DB        49
        DATA
        DATA16
        DATA
        DATA16
        DATA
        DATA16
        DW        ??zclGetDataTypeLength_1
        DATA
        DATA8
        DATA
        DATA8
        DATA
        DATA8
        DB        56
        DATA
        DATA16
        DATA
        DATA16
        DATA
        DATA16
        DW        ??zclGetDataTypeLength_1
        DATA
        DATA8
        DATA
        DATA8
        DATA
        DATA8
        DB        57
        DATA
        DATA16
        DATA
        DATA16
        DATA
        DATA16
        DW        ??zclGetDataTypeLength_0
        DATA
        DATA8
        DATA
        DATA8
        DATA
        DATA8
        DB        58
        DATA
        DATA16
        DATA
        DATA16
        DATA
        DATA16
        DW        ??zclGetDataTypeLength_7
        DATA
        DATA8
        DATA
        DATA8
        DATA
        DATA8
        DB        234
        DATA
        DATA16
        DATA
        DATA16
        DATA
        DATA16
        DW        ??zclGetDataTypeLength_0
        DATA
        DATA8
        DATA
        DATA8
        DATA
        DATA8
        DB        240
        DATA
        DATA16
        DATA
        DATA16
        DATA
        DATA16
        DW        ??zclGetDataTypeLength_7
        DATA
        DATA8
        DATA
        DATA8
        DATA
        DATA8
        DB        241
        DATA
        DATA16
        DATA
        DATA16
        DATA
        DATA16
        DW        ??zclGetDataTypeLength_8
        DATA
        DATA16
        DATA
        DATA16
        DW        ??zclGetDataTypeLength_9
        CODE
// 2317   {
// 2318     case ZCL_DATATYPE_DATA8:
// 2319     case ZCL_DATATYPE_BOOLEAN:
// 2320     case ZCL_DATATYPE_BITMAP8:
// 2321     case ZCL_DATATYPE_INT8:
// 2322     case ZCL_DATATYPE_UINT8:
// 2323     case ZCL_DATATYPE_ENUM8:
// 2324       len = 1;
??zclGetDataTypeLength_2:
        MOV     R1,#0x1
// 2325       break;
        SJMP    ??zclGetDataTypeLength_10
// 2326 
// 2327     case ZCL_DATATYPE_DATA16:
// 2328     case ZCL_DATATYPE_BITMAP16:
// 2329     case ZCL_DATATYPE_UINT16:
// 2330     case ZCL_DATATYPE_INT16:
// 2331     case ZCL_DATATYPE_ENUM16:
// 2332     case ZCL_DATATYPE_SEMI_PREC:
// 2333     case ZCL_DATATYPE_CLUSTER_ID:
// 2334     case ZCL_DATATYPE_ATTR_ID:
// 2335       len = 2;
??zclGetDataTypeLength_1:
        MOV     R1,#0x2
// 2336       break;
        SJMP    ??zclGetDataTypeLength_10
// 2337 
// 2338     case ZCL_DATATYPE_DATA24:
// 2339     case ZCL_DATATYPE_BITMAP24:
// 2340     case ZCL_DATATYPE_UINT24:
// 2341     case ZCL_DATATYPE_INT24:
// 2342       len = 3;
??zclGetDataTypeLength_3:
        MOV     R1,#0x3
// 2343       break;
        SJMP    ??zclGetDataTypeLength_10
// 2344 
// 2345     case ZCL_DATATYPE_DATA32:
// 2346     case ZCL_DATATYPE_BITMAP32:
// 2347     case ZCL_DATATYPE_UINT32:
// 2348     case ZCL_DATATYPE_INT32:
// 2349     case ZCL_DATATYPE_SINGLE_PREC:
// 2350     case ZCL_DATATYPE_TOD:
// 2351     case ZCL_DATATYPE_DATE:
// 2352     case ZCL_DATATYPE_UTC:
// 2353     case ZCL_DATATYPE_BAC_OID:
// 2354       len = 4;
??zclGetDataTypeLength_0:
        MOV     R1,#0x4
// 2355       break;
        SJMP    ??zclGetDataTypeLength_10
// 2356 
// 2357    case ZCL_DATATYPE_UINT40:
// 2358    case ZCL_DATATYPE_INT40:
// 2359        len = 5;
??zclGetDataTypeLength_4:
        MOV     R1,#0x5
// 2360        break;
        SJMP    ??zclGetDataTypeLength_10
// 2361 
// 2362    case ZCL_DATATYPE_UINT48:
// 2363    case ZCL_DATATYPE_INT48:
// 2364        len = 6;
??zclGetDataTypeLength_5:
        MOV     R1,#0x6
// 2365        break;
        SJMP    ??zclGetDataTypeLength_10
// 2366 
// 2367    case ZCL_DATATYPE_UINT56:
// 2368    case ZCL_DATATYPE_INT56:
// 2369        len = 7;
??zclGetDataTypeLength_6:
        MOV     R1,#0x7
// 2370        break;
        SJMP    ??zclGetDataTypeLength_10
// 2371 
// 2372    case ZCL_DATATYPE_DOUBLE_PREC:
// 2373    case ZCL_DATATYPE_IEEE_ADDR:
// 2374    case ZCL_DATATYPE_UINT64:
// 2375    case ZCL_DATATYPE_INT64:
// 2376      len = 8;
??zclGetDataTypeLength_7:
        MOV     R1,#0x8
// 2377      break;
        SJMP    ??zclGetDataTypeLength_10
// 2378 
// 2379     case ZCL_DATATYPE_128_BIT_SEC_KEY:
// 2380      len = SEC_KEY_LEN;
??zclGetDataTypeLength_8:
        MOV     R1,#0x10
// 2381      break;
        SJMP    ??zclGetDataTypeLength_10
// 2382 
// 2383     case ZCL_DATATYPE_NO_DATA:
// 2384     case ZCL_DATATYPE_UNKNOWN:
// 2385       // Fall through
// 2386 
// 2387     default:
// 2388       len = 0;
??zclGetDataTypeLength_9:
        MOV     R1,#0x0
// 2389       break;
// 2390   }
// 2391 
// 2392   return ( len );
??zclGetDataTypeLength_10:
        LJMP    ?Subroutine0 & 0xFFFF
        CFI EndBlock cfiBlock240
// 2393 }
// 2394 
// 2395 /*********************************************************************
// 2396  * @fn      zclGetAttrDataLength
// 2397  *
// 2398  * @brief   Return the length of the attribute.
// 2399  *
// 2400  * @param   dataType - data type
// 2401  * @param   pData - pointer to data
// 2402  *
// 2403  * @return  returns atrribute length
// 2404  */

        RSEG BANKED_CODE:CODE:NOROOT(0)
// 2405 uint16 zclGetAttrDataLength( uint8 dataType, uint8 *pData )
zclGetAttrDataLength:
        CFI Block cfiBlock241 Using cfiCommon0
        CFI Function zclGetAttrDataLength
        CODE
// 2406 {
        FUNCALL zclGetAttrDataLength, zclGetDataTypeLength
        LOCFRAME ISTACK, 0, STACK
        LOCFRAME PSTACK, 0, STACK
        LOCFRAME XSTACK, 9, STACK
        LOCFRAME IOVERLAY, 0, STATIC
        LOCFRAME DOVERLAY, 0, STATIC
        ARGFRAME ISTACK, 0, STACK
        ARGFRAME PSTACK, 0, STACK
        ARGFRAME XSTACK, 9, STACK
        ARGFRAME IOVERLAY, 0, STATIC
        ARGFRAME DOVERLAY, 0, STATIC
        MOV     A,#-0x9
        LCALL   ?BANKED_ENTER_XDATA
        CFI DPH0 load(1, XDATA, add(CFA_XSP16, literal(-1)))
        CFI DPL0 load(1, XDATA, add(CFA_XSP16, literal(-2)))
        CFI ?BRET_EXT load(1, XDATA, add(CFA_XSP16, literal(-3)))
        CFI ?RET_HIGH load(1, XDATA, add(CFA_XSP16, literal(-4)))
        CFI ?RET_LOW load(1, XDATA, add(CFA_XSP16, literal(-5)))
        CFI R7 load(1, XDATA, add(CFA_XSP16, literal(-6)))
        CFI V0 load(1, XDATA, add(CFA_XSP16, literal(-7)))
        CFI VB load(1, XDATA, add(CFA_XSP16, literal(-8)))
        CFI R6 load(1, XDATA, add(CFA_XSP16, literal(-9)))
        CFI CFA_SP SP+0
        CFI CFA_XSP16 add(XSP16, 9)
        ; Saved register size: 9
        ; Auto size: 0
        MOV     A,R1
        MOV     R6,A
// 2407   uint16 dataLen = 0;
// 2408 
// 2409   if ( dataType == ZCL_DATATYPE_LONG_CHAR_STR || dataType == ZCL_DATATYPE_LONG_OCTET_STR )
        MOV     A,#0x44
        XRL     A,R6
        JZ      ??zclGetAttrDataLength_0
        MOV     A,#0x43
        XRL     A,R6
        JNZ     ??zclGetAttrDataLength_1
// 2410   {
// 2411     dataLen = BUILD_UINT16( pData[0], pData[1] ) + 2; // long string length + 2 for length field
??zclGetAttrDataLength_0:
        MOV     DPL,R2
        MOV     DPH,R3
        LCALL   ?Subroutine34 & 0xFFFF
// 2412   }
??CrossCallReturnLabel_57:
        MOV     R2,A
        MOV     A,R1
??zclGetAttrDataLength_2:
        ADDC    A,#0x0
        MOV     R3,A
        SJMP    ??zclGetAttrDataLength_3
// 2413   else if ( dataType == ZCL_DATATYPE_CHAR_STR || dataType == ZCL_DATATYPE_OCTET_STR )
??zclGetAttrDataLength_1:
        MOV     A,#0x42
        XRL     A,R6
        JZ      ??zclGetAttrDataLength_4
        MOV     A,#0x41
        XRL     A,R6
        JNZ     ??zclGetAttrDataLength_5
// 2414   {
// 2415     dataLen = *pData + 1; // string length + 1 for length field
??zclGetAttrDataLength_4:
        MOV     DPL,R2
        MOV     DPH,R3
        MOVX    A,@DPTR
        ADD     A,#0x1
        MOV     R2,A
        CLR     A
        SJMP    ??zclGetAttrDataLength_2
// 2416   }
// 2417   else
// 2418   {
// 2419     dataLen = zclGetDataTypeLength( dataType );
??zclGetAttrDataLength_5:
        ; Setup parameters for call to function zclGetDataTypeLength
        LCALL   ??zclGetDataTypeLength?relay
        MOV     A,R1
        MOV     R2,A
        MOV     R3,#0x0
// 2420   }
// 2421 
// 2422   return ( dataLen );
??zclGetAttrDataLength_3:
        LJMP    ?Subroutine3 & 0xFFFF
        CFI EndBlock cfiBlock241
// 2423 }

        RSEG BANKED_CODE:CODE:NOROOT(0)
?Subroutine34:
        CFI Block cfiCond242 Using cfiCommon0
        CFI NoFunction
        CFI Conditional ??CrossCallReturnLabel_56
        CFI R6 load(1, XDATA, add(CFA_XSP16, literal(-16)))
        CFI VB load(1, XDATA, add(CFA_XSP16, literal(-15)))
        CFI V0 load(1, XDATA, add(CFA_XSP16, literal(-14)))
        CFI V1 load(1, XDATA, add(CFA_XSP16, literal(-13)))
        CFI V2 load(1, XDATA, add(CFA_XSP16, literal(-12)))
        CFI V3 load(1, XDATA, add(CFA_XSP16, literal(-11)))
        CFI V4 load(1, XDATA, add(CFA_XSP16, literal(-10)))
        CFI V5 load(1, XDATA, add(CFA_XSP16, literal(-9)))
        CFI V6 load(1, XDATA, add(CFA_XSP16, literal(-8)))
        CFI V7 load(1, XDATA, add(CFA_XSP16, literal(-7)))
        CFI R7 load(1, XDATA, add(CFA_XSP16, literal(-6)))
        CFI ?RET_LOW load(1, XDATA, add(CFA_XSP16, literal(-5)))
        CFI ?RET_HIGH load(1, XDATA, add(CFA_XSP16, literal(-4)))
        CFI ?BRET_EXT load(1, XDATA, add(CFA_XSP16, literal(-3)))
        CFI DPL0 load(1, XDATA, add(CFA_XSP16, literal(-2)))
        CFI DPH0 load(1, XDATA, add(CFA_XSP16, literal(-1)))
        CFI CFA_SP SP+0
        CFI CFA_XSP16 add(XSP16, 19)
        CFI Block cfiCond243 Using cfiCommon0
        CFI (cfiCond243) NoFunction
        CFI (cfiCond243) Conditional ??CrossCallReturnLabel_57
        CFI (cfiCond243) R6 load(1, XDATA, add(CFA_XSP16, literal(-9)))
        CFI (cfiCond243) VB load(1, XDATA, add(CFA_XSP16, literal(-8)))
        CFI (cfiCond243) V0 load(1, XDATA, add(CFA_XSP16, literal(-7)))
        CFI (cfiCond243) R7 load(1, XDATA, add(CFA_XSP16, literal(-6)))
        CFI (cfiCond243) ?RET_LOW load(1, XDATA, add(CFA_XSP16, literal(-5)))
        CFI (cfiCond243) ?RET_HIGH load(1, XDATA, add(CFA_XSP16, literal(-4)))
        CFI (cfiCond243) ?BRET_EXT load(1, XDATA, add(CFA_XSP16, literal(-3)))
        CFI (cfiCond243) DPL0 load(1, XDATA, add(CFA_XSP16, literal(-2)))
        CFI (cfiCond243) DPH0 load(1, XDATA, add(CFA_XSP16, literal(-1)))
        CFI (cfiCond243) CFA_SP SP+0
        CFI (cfiCond243) CFA_XSP16 add(XSP16, 9)
        CFI Block cfiPicker244 Using cfiCommon1
        CFI (cfiPicker244) NoFunction
        CFI (cfiPicker244) Picker
        MOVX    A,@DPTR
        MOV     R4,A
        INC     DPTR
        MOVX    A,@DPTR
        MOV     R1,A
        MOV     A,R4
        ADD     A,#0x2
        RET
        CFI EndBlock cfiCond242
        CFI EndBlock cfiCond243
        CFI EndBlock cfiPicker244
// 2424 
// 2425 /*********************************************************************
// 2426  * @fn      zclReadAttrData
// 2427  *
// 2428  * @brief   Read the attribute's current value into pAttrData.
// 2429  *
// 2430  * @param   pAttrData - where to put attribute data
// 2431  * @param   pAttr - pointer to attribute
// 2432  * @param   pDataLen - where to put attribute data length
// 2433  *
// 2434  * @return Success
// 2435  */

        RSEG BANKED_CODE:CODE:NOROOT(0)
// 2436 uint8 zclReadAttrData( uint8 *pAttrData, zclAttrRec_t *pAttr, uint16 *pDataLen )
zclReadAttrData:
        CFI Block cfiBlock245 Using cfiCommon0
        CFI Function zclReadAttrData
        CODE
// 2437 {
        FUNCALL zclReadAttrData, zclGetAttrDataLength
        LOCFRAME ISTACK, 0, STACK
        LOCFRAME PSTACK, 0, STACK
        LOCFRAME XSTACK, 19, STACK
        LOCFRAME IOVERLAY, 0, STATIC
        LOCFRAME DOVERLAY, 0, STATIC
        ARGFRAME ISTACK, 0, STACK
        ARGFRAME PSTACK, 0, STACK
        ARGFRAME XSTACK, 19, STACK
        ARGFRAME IOVERLAY, 0, STATIC
        ARGFRAME DOVERLAY, 0, STATIC
        FUNCALL zclReadAttrData, osal_memcpy
        LOCFRAME ISTACK, 0, STACK
        LOCFRAME PSTACK, 0, STACK
        LOCFRAME XSTACK, 22, STACK
        LOCFRAME IOVERLAY, 0, STATIC
        LOCFRAME DOVERLAY, 0, STATIC
        ARGFRAME ISTACK, 0, STACK
        ARGFRAME PSTACK, 0, STACK
        ARGFRAME XSTACK, 22, STACK
        ARGFRAME IOVERLAY, 0, STATIC
        ARGFRAME DOVERLAY, 0, STATIC
        MOV     A,#-0x13
        LCALL   ?BANKED_ENTER_XDATA
        CFI DPH0 load(1, XDATA, add(CFA_XSP16, literal(-1)))
        CFI DPL0 load(1, XDATA, add(CFA_XSP16, literal(-2)))
        CFI ?BRET_EXT load(1, XDATA, add(CFA_XSP16, literal(-3)))
        CFI ?RET_HIGH load(1, XDATA, add(CFA_XSP16, literal(-4)))
        CFI ?RET_LOW load(1, XDATA, add(CFA_XSP16, literal(-5)))
        CFI R7 load(1, XDATA, add(CFA_XSP16, literal(-6)))
        CFI V10 load(1, XDATA, add(CFA_XSP16, literal(-7)))
        CFI V9 load(1, XDATA, add(CFA_XSP16, literal(-8)))
        CFI V8 load(1, XDATA, add(CFA_XSP16, literal(-9)))
        CFI V7 load(1, XDATA, add(CFA_XSP16, literal(-10)))
        CFI V6 load(1, XDATA, add(CFA_XSP16, literal(-11)))
        CFI V5 load(1, XDATA, add(CFA_XSP16, literal(-12)))
        CFI V4 load(1, XDATA, add(CFA_XSP16, literal(-13)))
        CFI V3 load(1, XDATA, add(CFA_XSP16, literal(-14)))
        CFI V2 load(1, XDATA, add(CFA_XSP16, literal(-15)))
        CFI V1 load(1, XDATA, add(CFA_XSP16, literal(-16)))
        CFI V0 load(1, XDATA, add(CFA_XSP16, literal(-17)))
        CFI VB load(1, XDATA, add(CFA_XSP16, literal(-18)))
        CFI R6 load(1, XDATA, add(CFA_XSP16, literal(-19)))
        CFI CFA_SP SP+0
        CFI CFA_XSP16 add(XSP16, 19)
        ; Saved register size: 19
        ; Auto size: 0
        MOV     A,R2
        MOV     R6,A
        MOV     A,R3
        MOV     R7,A
        MOV     A,#0x13
        LCALL   ?XSTACK_DISP0_8
        LCALL   ?Subroutine28 & 0xFFFF
??CrossCallReturnLabel_46:
        MOV     ?V0 + 0,R0
        MOV     ?V0 + 1,R1
// 2438   uint16 dataLen;
// 2439 
// 2440   dataLen = zclGetAttrDataLength( pAttr->attr.dataType, (uint8*)(pAttr->attr.dataPtr) );
        MOV     A,R4
        ADD     A,#0x6
        MOV     R0,A
        MOV     A,R5
        ADDC    A,#0x0
        MOV     R1,A
        MOV     ?V0 + 2,R0
        MOV     ?V0 + 3,R1
        ; Setup parameters for call to function zclGetAttrDataLength
        MOV     DPL,R0
        MOV     DPH,A
        LCALL   ??Subroutine62_0 & 0xFFFF
??CrossCallReturnLabel_130:
        MOV     DPL,R4
        MOV     DPH,R5
        INC     DPTR
        INC     DPTR
        INC     DPTR
        INC     DPTR
        MOVX    A,@DPTR
        MOV     R1,A
        LCALL   ??zclGetAttrDataLength?relay
        MOV     ?V0 + 4,R2
        MOV     ?V0 + 5,R3
// 2441   osal_memcpy( pAttrData, pAttr->attr.dataPtr, dataLen );
        ; Setup parameters for call to function osal_memcpy
        MOV     DPL,?V0 + 2
        MOV     DPH,?V0 + 3
        LCALL   ?Subroutine26 & 0xFFFF
??CrossCallReturnLabel_40:
        LCALL   ?PUSH_XSTACK_I_THREE
        CFI CFA_XSP16 add(XSP16, 22)
        MOV     R4,?V0 + 4
        MOV     R5,?V0 + 5
        MOV     A,R6
        MOV     R2,A
        MOV     A,R7
        MOV     R3,A
        LCALL   ??osal_memcpy?relay
        MOV     A,#0x3
        LCALL   ?DEALLOC_XSTACK8
        CFI CFA_XSP16 add(XSP16, 19)
// 2442 
// 2443   if ( pDataLen != NULL )
        MOV     A,?V0 + 0
        ORL     A,?V0 + 1
        JZ      ??zclReadAttrData_0
// 2444   {
// 2445     *pDataLen = dataLen;
        MOV     DPL,?V0 + 0
        MOV     DPH,?V0 + 1
        MOV     A,?V0 + 4
        MOVX    @DPTR,A
        INC     DPTR
        MOV     A,?V0 + 5
        MOVX    @DPTR,A
// 2446   }
// 2447 
// 2448   return ( ZCL_STATUS_SUCCESS );
??zclReadAttrData_0:
        MOV     R1,#0x0
        MOV     R7,#0xb
        LJMP    ?BANKED_LEAVE_XDATA
        CFI EndBlock cfiBlock245
// 2449 }

        RSEG BANKED_CODE:CODE:NOROOT(0)
?Subroutine28:
        CFI Block cfiCond246 Using cfiCommon0
        CFI NoFunction
        CFI Conditional ??CrossCallReturnLabel_43
        CFI R6 load(1, XDATA, add(CFA_XSP16, literal(-14)))
        CFI VB load(1, XDATA, add(CFA_XSP16, literal(-13)))
        CFI V0 load(1, XDATA, add(CFA_XSP16, literal(-12)))
        CFI V1 load(1, XDATA, add(CFA_XSP16, literal(-11)))
        CFI V2 load(1, XDATA, add(CFA_XSP16, literal(-10)))
        CFI V3 load(1, XDATA, add(CFA_XSP16, literal(-9)))
        CFI V4 load(1, XDATA, add(CFA_XSP16, literal(-8)))
        CFI V5 load(1, XDATA, add(CFA_XSP16, literal(-7)))
        CFI R7 load(1, XDATA, add(CFA_XSP16, literal(-6)))
        CFI ?RET_LOW load(1, XDATA, add(CFA_XSP16, literal(-5)))
        CFI ?RET_HIGH load(1, XDATA, add(CFA_XSP16, literal(-4)))
        CFI ?BRET_EXT load(1, XDATA, add(CFA_XSP16, literal(-3)))
        CFI DPL0 load(1, XDATA, add(CFA_XSP16, literal(-2)))
        CFI DPH0 load(1, XDATA, add(CFA_XSP16, literal(-1)))
        CFI CFA_SP SP+0
        CFI CFA_XSP16 add(XSP16, 16)
        CFI Block cfiCond247 Using cfiCommon0
        CFI (cfiCond247) NoFunction
        CFI (cfiCond247) Conditional ??CrossCallReturnLabel_44
        CFI (cfiCond247) R6 load(1, XDATA, add(CFA_XSP16, literal(-12)))
        CFI (cfiCond247) VB load(1, XDATA, add(CFA_XSP16, literal(-11)))
        CFI (cfiCond247) V0 load(1, XDATA, add(CFA_XSP16, literal(-10)))
        CFI (cfiCond247) V1 load(1, XDATA, add(CFA_XSP16, literal(-9)))
        CFI (cfiCond247) V2 load(1, XDATA, add(CFA_XSP16, literal(-8)))
        CFI (cfiCond247) V3 load(1, XDATA, add(CFA_XSP16, literal(-7)))
        CFI (cfiCond247) R7 load(1, XDATA, add(CFA_XSP16, literal(-6)))
        CFI (cfiCond247) ?RET_LOW load(1, XDATA, add(CFA_XSP16, literal(-5)))
        CFI (cfiCond247) ?RET_HIGH load(1, XDATA, add(CFA_XSP16, literal(-4)))
        CFI (cfiCond247) ?BRET_EXT load(1, XDATA, add(CFA_XSP16, literal(-3)))
        CFI (cfiCond247) DPL0 load(1, XDATA, add(CFA_XSP16, literal(-2)))
        CFI (cfiCond247) DPH0 load(1, XDATA, add(CFA_XSP16, literal(-1)))
        CFI (cfiCond247) CFA_SP SP+0
        CFI (cfiCond247) CFA_XSP16 add(XSP16, 33)
        CFI Block cfiCond248 Using cfiCommon0
        CFI (cfiCond248) NoFunction
        CFI (cfiCond248) Conditional ??CrossCallReturnLabel_45
        CFI (cfiCond248) R6 load(1, XDATA, add(CFA_XSP16, literal(-12)))
        CFI (cfiCond248) VB load(1, XDATA, add(CFA_XSP16, literal(-11)))
        CFI (cfiCond248) V0 load(1, XDATA, add(CFA_XSP16, literal(-10)))
        CFI (cfiCond248) V1 load(1, XDATA, add(CFA_XSP16, literal(-9)))
        CFI (cfiCond248) V2 load(1, XDATA, add(CFA_XSP16, literal(-8)))
        CFI (cfiCond248) V3 load(1, XDATA, add(CFA_XSP16, literal(-7)))
        CFI (cfiCond248) R7 load(1, XDATA, add(CFA_XSP16, literal(-6)))
        CFI (cfiCond248) ?RET_LOW load(1, XDATA, add(CFA_XSP16, literal(-5)))
        CFI (cfiCond248) ?RET_HIGH load(1, XDATA, add(CFA_XSP16, literal(-4)))
        CFI (cfiCond248) ?BRET_EXT load(1, XDATA, add(CFA_XSP16, literal(-3)))
        CFI (cfiCond248) DPL0 load(1, XDATA, add(CFA_XSP16, literal(-2)))
        CFI (cfiCond248) DPH0 load(1, XDATA, add(CFA_XSP16, literal(-1)))
        CFI (cfiCond248) CFA_SP SP+0
        CFI (cfiCond248) CFA_XSP16 add(XSP16, 33)
        CFI Block cfiCond249 Using cfiCommon0
        CFI (cfiCond249) NoFunction
        CFI (cfiCond249) Conditional ??CrossCallReturnLabel_46
        CFI (cfiCond249) R6 load(1, XDATA, add(CFA_XSP16, literal(-19)))
        CFI (cfiCond249) VB load(1, XDATA, add(CFA_XSP16, literal(-18)))
        CFI (cfiCond249) V0 load(1, XDATA, add(CFA_XSP16, literal(-17)))
        CFI (cfiCond249) V1 load(1, XDATA, add(CFA_XSP16, literal(-16)))
        CFI (cfiCond249) V2 load(1, XDATA, add(CFA_XSP16, literal(-15)))
        CFI (cfiCond249) V3 load(1, XDATA, add(CFA_XSP16, literal(-14)))
        CFI (cfiCond249) V4 load(1, XDATA, add(CFA_XSP16, literal(-13)))
        CFI (cfiCond249) V5 load(1, XDATA, add(CFA_XSP16, literal(-12)))
        CFI (cfiCond249) V6 load(1, XDATA, add(CFA_XSP16, literal(-11)))
        CFI (cfiCond249) V7 load(1, XDATA, add(CFA_XSP16, literal(-10)))
        CFI (cfiCond249) V8 load(1, XDATA, add(CFA_XSP16, literal(-9)))
        CFI (cfiCond249) V9 load(1, XDATA, add(CFA_XSP16, literal(-8)))
        CFI (cfiCond249) V10 load(1, XDATA, add(CFA_XSP16, literal(-7)))
        CFI (cfiCond249) R7 load(1, XDATA, add(CFA_XSP16, literal(-6)))
        CFI (cfiCond249) ?RET_LOW load(1, XDATA, add(CFA_XSP16, literal(-5)))
        CFI (cfiCond249) ?RET_HIGH load(1, XDATA, add(CFA_XSP16, literal(-4)))
        CFI (cfiCond249) ?BRET_EXT load(1, XDATA, add(CFA_XSP16, literal(-3)))
        CFI (cfiCond249) DPL0 load(1, XDATA, add(CFA_XSP16, literal(-2)))
        CFI (cfiCond249) DPH0 load(1, XDATA, add(CFA_XSP16, literal(-1)))
        CFI (cfiCond249) CFA_SP SP+0
        CFI (cfiCond249) CFA_XSP16 add(XSP16, 19)
        CFI Block cfiCond250 Using cfiCommon0
        CFI (cfiCond250) NoFunction
        CFI (cfiCond250) Conditional ??CrossCallReturnLabel_47
        CFI (cfiCond250) R6 load(1, XDATA, add(CFA_XSP16, literal(-10)))
        CFI (cfiCond250) VB load(1, XDATA, add(CFA_XSP16, literal(-9)))
        CFI (cfiCond250) V0 load(1, XDATA, add(CFA_XSP16, literal(-8)))
        CFI (cfiCond250) V1 load(1, XDATA, add(CFA_XSP16, literal(-7)))
        CFI (cfiCond250) R7 load(1, XDATA, add(CFA_XSP16, literal(-6)))
        CFI (cfiCond250) ?RET_LOW load(1, XDATA, add(CFA_XSP16, literal(-5)))
        CFI (cfiCond250) ?RET_HIGH load(1, XDATA, add(CFA_XSP16, literal(-4)))
        CFI (cfiCond250) ?BRET_EXT load(1, XDATA, add(CFA_XSP16, literal(-3)))
        CFI (cfiCond250) DPL0 load(1, XDATA, add(CFA_XSP16, literal(-2)))
        CFI (cfiCond250) DPH0 load(1, XDATA, add(CFA_XSP16, literal(-1)))
        CFI (cfiCond250) CFA_SP SP+0
        CFI (cfiCond250) CFA_XSP16 add(XSP16, 10)
        CFI Block cfiPicker251 Using cfiCommon1
        CFI (cfiPicker251) NoFunction
        CFI (cfiPicker251) Picker
        MOVX    A,@DPTR
        MOV     R0,A
        INC     DPTR
        MOVX    A,@DPTR
        MOV     R1,A
        RET
        CFI EndBlock cfiCond246
        CFI EndBlock cfiCond247
        CFI EndBlock cfiCond248
        CFI EndBlock cfiCond249
        CFI EndBlock cfiCond250
        CFI EndBlock cfiPicker251

        RSEG BANKED_CODE:CODE:NOROOT(0)
?Subroutine26:
        CFI Block cfiCond252 Using cfiCommon0
        CFI NoFunction
        CFI Conditional ??CrossCallReturnLabel_39
        CFI R6 load(1, XDATA, add(CFA_XSP16, literal(-24)))
        CFI VB load(1, XDATA, add(CFA_XSP16, literal(-23)))
        CFI V0 load(1, XDATA, add(CFA_XSP16, literal(-22)))
        CFI V1 load(1, XDATA, add(CFA_XSP16, literal(-21)))
        CFI V2 load(1, XDATA, add(CFA_XSP16, literal(-20)))
        CFI V3 load(1, XDATA, add(CFA_XSP16, literal(-19)))
        CFI V4 load(1, XDATA, add(CFA_XSP16, literal(-18)))
        CFI V5 load(1, XDATA, add(CFA_XSP16, literal(-17)))
        CFI V6 load(1, XDATA, add(CFA_XSP16, literal(-16)))
        CFI V7 load(1, XDATA, add(CFA_XSP16, literal(-15)))
        CFI V8 load(1, XDATA, add(CFA_XSP16, literal(-14)))
        CFI V9 load(1, XDATA, add(CFA_XSP16, literal(-13)))
        CFI V10 load(1, XDATA, add(CFA_XSP16, literal(-12)))
        CFI V11 load(1, XDATA, add(CFA_XSP16, literal(-11)))
        CFI V12 load(1, XDATA, add(CFA_XSP16, literal(-10)))
        CFI V13 load(1, XDATA, add(CFA_XSP16, literal(-9)))
        CFI V14 load(1, XDATA, add(CFA_XSP16, literal(-8)))
        CFI V15 load(1, XDATA, add(CFA_XSP16, literal(-7)))
        CFI R7 load(1, XDATA, add(CFA_XSP16, literal(-6)))
        CFI ?RET_LOW load(1, XDATA, add(CFA_XSP16, literal(-5)))
        CFI ?RET_HIGH load(1, XDATA, add(CFA_XSP16, literal(-4)))
        CFI ?BRET_EXT load(1, XDATA, add(CFA_XSP16, literal(-3)))
        CFI DPL0 load(1, XDATA, add(CFA_XSP16, literal(-2)))
        CFI DPH0 load(1, XDATA, add(CFA_XSP16, literal(-1)))
        CFI CFA_SP SP+0
        CFI CFA_XSP16 add(XSP16, 32)
        CFI Block cfiCond253 Using cfiCommon0
        CFI (cfiCond253) NoFunction
        CFI (cfiCond253) Conditional ??CrossCallReturnLabel_40
        CFI (cfiCond253) R6 load(1, XDATA, add(CFA_XSP16, literal(-19)))
        CFI (cfiCond253) VB load(1, XDATA, add(CFA_XSP16, literal(-18)))
        CFI (cfiCond253) V0 load(1, XDATA, add(CFA_XSP16, literal(-17)))
        CFI (cfiCond253) V1 load(1, XDATA, add(CFA_XSP16, literal(-16)))
        CFI (cfiCond253) V2 load(1, XDATA, add(CFA_XSP16, literal(-15)))
        CFI (cfiCond253) V3 load(1, XDATA, add(CFA_XSP16, literal(-14)))
        CFI (cfiCond253) V4 load(1, XDATA, add(CFA_XSP16, literal(-13)))
        CFI (cfiCond253) V5 load(1, XDATA, add(CFA_XSP16, literal(-12)))
        CFI (cfiCond253) V6 load(1, XDATA, add(CFA_XSP16, literal(-11)))
        CFI (cfiCond253) V7 load(1, XDATA, add(CFA_XSP16, literal(-10)))
        CFI (cfiCond253) V8 load(1, XDATA, add(CFA_XSP16, literal(-9)))
        CFI (cfiCond253) V9 load(1, XDATA, add(CFA_XSP16, literal(-8)))
        CFI (cfiCond253) V10 load(1, XDATA, add(CFA_XSP16, literal(-7)))
        CFI (cfiCond253) R7 load(1, XDATA, add(CFA_XSP16, literal(-6)))
        CFI (cfiCond253) ?RET_LOW load(1, XDATA, add(CFA_XSP16, literal(-5)))
        CFI (cfiCond253) ?RET_HIGH load(1, XDATA, add(CFA_XSP16, literal(-4)))
        CFI (cfiCond253) ?BRET_EXT load(1, XDATA, add(CFA_XSP16, literal(-3)))
        CFI (cfiCond253) DPL0 load(1, XDATA, add(CFA_XSP16, literal(-2)))
        CFI (cfiCond253) DPH0 load(1, XDATA, add(CFA_XSP16, literal(-1)))
        CFI (cfiCond253) CFA_SP SP+0
        CFI (cfiCond253) CFA_XSP16 add(XSP16, 19)
        CFI Block cfiPicker254 Using cfiCommon1
        CFI (cfiPicker254) NoFunction
        CFI (cfiPicker254) Picker
        MOVX    A,@DPTR
        MOV     ?V0 + 8,A
        INC     DPTR
        MOVX    A,@DPTR
        MOV     ?V0 + 9,A
        MOV     ?V0 + 10,#0x0
        MOV     R0,#?V0 + 8
        RET
        CFI EndBlock cfiCond252
        CFI EndBlock cfiCond253
        CFI EndBlock cfiPicker254

        RSEG BANKED_CODE:CODE:NOROOT(0)
?Subroutine24:
        CFI Block cfiCond255 Using cfiCommon0
        CFI NoFunction
        CFI Conditional ??CrossCallReturnLabel_131
        CFI R6 load(1, XDATA, add(CFA_XSP16, literal(-12)))
        CFI VB load(1, XDATA, add(CFA_XSP16, literal(-11)))
        CFI V0 load(1, XDATA, add(CFA_XSP16, literal(-10)))
        CFI V1 load(1, XDATA, add(CFA_XSP16, literal(-9)))
        CFI V2 load(1, XDATA, add(CFA_XSP16, literal(-8)))
        CFI V3 load(1, XDATA, add(CFA_XSP16, literal(-7)))
        CFI R7 load(1, XDATA, add(CFA_XSP16, literal(-6)))
        CFI ?RET_LOW load(1, XDATA, add(CFA_XSP16, literal(-5)))
        CFI ?RET_HIGH load(1, XDATA, add(CFA_XSP16, literal(-4)))
        CFI ?BRET_EXT load(1, XDATA, add(CFA_XSP16, literal(-3)))
        CFI DPL0 load(1, XDATA, add(CFA_XSP16, literal(-2)))
        CFI DPH0 load(1, XDATA, add(CFA_XSP16, literal(-1)))
        CFI CFA_SP SP+0
        CFI CFA_XSP16 add(XSP16, 12)
        CFI Block cfiCond256 Using cfiCommon0
        CFI (cfiCond256) NoFunction
        CFI (cfiCond256) Conditional ??CrossCallReturnLabel_132
        CFI (cfiCond256) DPL0 Frame(CFA_SP, 4)
        CFI (cfiCond256) DPH0 Frame(CFA_SP, 5)
        CFI (cfiCond256) CFA_SP SP+-5
        CFI Block cfiPicker257 Using cfiCommon1
        CFI (cfiPicker257) NoFunction
        CFI (cfiPicker257) Picker
        MOV     DPTR,#rawAFMsg
        CFI EndBlock cfiCond255
        CFI EndBlock cfiCond256
        CFI EndBlock cfiPicker257
        REQUIRE ??Subroutine62_0
        ; // Fall through to label ??Subroutine62_0

        RSEG BANKED_CODE:CODE:NOROOT(0)
??Subroutine62_0:
        CFI Block cfiCond258 Using cfiCommon0
        CFI NoFunction
        CFI Conditional ??CrossCallReturnLabel_126
        CFI R6 load(1, XDATA, add(CFA_XSP16, literal(-24)))
        CFI VB load(1, XDATA, add(CFA_XSP16, literal(-23)))
        CFI V0 load(1, XDATA, add(CFA_XSP16, literal(-22)))
        CFI V1 load(1, XDATA, add(CFA_XSP16, literal(-21)))
        CFI V2 load(1, XDATA, add(CFA_XSP16, literal(-20)))
        CFI V3 load(1, XDATA, add(CFA_XSP16, literal(-19)))
        CFI V4 load(1, XDATA, add(CFA_XSP16, literal(-18)))
        CFI V5 load(1, XDATA, add(CFA_XSP16, literal(-17)))
        CFI V6 load(1, XDATA, add(CFA_XSP16, literal(-16)))
        CFI V7 load(1, XDATA, add(CFA_XSP16, literal(-15)))
        CFI V8 load(1, XDATA, add(CFA_XSP16, literal(-14)))
        CFI V9 load(1, XDATA, add(CFA_XSP16, literal(-13)))
        CFI V10 load(1, XDATA, add(CFA_XSP16, literal(-12)))
        CFI V11 load(1, XDATA, add(CFA_XSP16, literal(-11)))
        CFI V12 load(1, XDATA, add(CFA_XSP16, literal(-10)))
        CFI V13 load(1, XDATA, add(CFA_XSP16, literal(-9)))
        CFI V14 load(1, XDATA, add(CFA_XSP16, literal(-8)))
        CFI V15 load(1, XDATA, add(CFA_XSP16, literal(-7)))
        CFI R7 load(1, XDATA, add(CFA_XSP16, literal(-6)))
        CFI ?RET_LOW load(1, XDATA, add(CFA_XSP16, literal(-5)))
        CFI ?RET_HIGH load(1, XDATA, add(CFA_XSP16, literal(-4)))
        CFI ?BRET_EXT load(1, XDATA, add(CFA_XSP16, literal(-3)))
        CFI DPL0 load(1, XDATA, add(CFA_XSP16, literal(-2)))
        CFI DPH0 load(1, XDATA, add(CFA_XSP16, literal(-1)))
        CFI CFA_SP SP+0
        CFI CFA_XSP16 add(XSP16, 41)
        CFI Block cfiCond259 Using cfiCommon0
        CFI (cfiCond259) NoFunction
        CFI (cfiCond259) Conditional ??CrossCallReturnLabel_127
        CFI (cfiCond259) R6 load(1, XDATA, add(CFA_XSP16, literal(-12)))
        CFI (cfiCond259) VB load(1, XDATA, add(CFA_XSP16, literal(-11)))
        CFI (cfiCond259) V0 load(1, XDATA, add(CFA_XSP16, literal(-10)))
        CFI (cfiCond259) V1 load(1, XDATA, add(CFA_XSP16, literal(-9)))
        CFI (cfiCond259) V2 load(1, XDATA, add(CFA_XSP16, literal(-8)))
        CFI (cfiCond259) V3 load(1, XDATA, add(CFA_XSP16, literal(-7)))
        CFI (cfiCond259) R7 load(1, XDATA, add(CFA_XSP16, literal(-6)))
        CFI (cfiCond259) ?RET_LOW load(1, XDATA, add(CFA_XSP16, literal(-5)))
        CFI (cfiCond259) ?RET_HIGH load(1, XDATA, add(CFA_XSP16, literal(-4)))
        CFI (cfiCond259) ?BRET_EXT load(1, XDATA, add(CFA_XSP16, literal(-3)))
        CFI (cfiCond259) DPL0 load(1, XDATA, add(CFA_XSP16, literal(-2)))
        CFI (cfiCond259) DPH0 load(1, XDATA, add(CFA_XSP16, literal(-1)))
        CFI (cfiCond259) CFA_SP SP+0
        CFI (cfiCond259) CFA_XSP16 add(XSP16, 33)
        CFI Block cfiCond260 Using cfiCommon0
        CFI (cfiCond260) NoFunction
        CFI (cfiCond260) Conditional ??CrossCallReturnLabel_128
        CFI (cfiCond260) R6 load(1, XDATA, add(CFA_XSP16, literal(-12)))
        CFI (cfiCond260) VB load(1, XDATA, add(CFA_XSP16, literal(-11)))
        CFI (cfiCond260) V0 load(1, XDATA, add(CFA_XSP16, literal(-10)))
        CFI (cfiCond260) V1 load(1, XDATA, add(CFA_XSP16, literal(-9)))
        CFI (cfiCond260) V2 load(1, XDATA, add(CFA_XSP16, literal(-8)))
        CFI (cfiCond260) V3 load(1, XDATA, add(CFA_XSP16, literal(-7)))
        CFI (cfiCond260) R7 load(1, XDATA, add(CFA_XSP16, literal(-6)))
        CFI (cfiCond260) ?RET_LOW load(1, XDATA, add(CFA_XSP16, literal(-5)))
        CFI (cfiCond260) ?RET_HIGH load(1, XDATA, add(CFA_XSP16, literal(-4)))
        CFI (cfiCond260) ?BRET_EXT load(1, XDATA, add(CFA_XSP16, literal(-3)))
        CFI (cfiCond260) DPL0 load(1, XDATA, add(CFA_XSP16, literal(-2)))
        CFI (cfiCond260) DPH0 load(1, XDATA, add(CFA_XSP16, literal(-1)))
        CFI (cfiCond260) CFA_SP SP+0
        CFI (cfiCond260) CFA_XSP16 add(XSP16, 33)
        CFI Block cfiCond261 Using cfiCommon0
        CFI (cfiCond261) NoFunction
        CFI (cfiCond261) Conditional ??CrossCallReturnLabel_129
        CFI (cfiCond261) R6 load(1, XDATA, add(CFA_XSP16, literal(-12)))
        CFI (cfiCond261) VB load(1, XDATA, add(CFA_XSP16, literal(-11)))
        CFI (cfiCond261) V0 load(1, XDATA, add(CFA_XSP16, literal(-10)))
        CFI (cfiCond261) V1 load(1, XDATA, add(CFA_XSP16, literal(-9)))
        CFI (cfiCond261) V2 load(1, XDATA, add(CFA_XSP16, literal(-8)))
        CFI (cfiCond261) V3 load(1, XDATA, add(CFA_XSP16, literal(-7)))
        CFI (cfiCond261) R7 load(1, XDATA, add(CFA_XSP16, literal(-6)))
        CFI (cfiCond261) ?RET_LOW load(1, XDATA, add(CFA_XSP16, literal(-5)))
        CFI (cfiCond261) ?RET_HIGH load(1, XDATA, add(CFA_XSP16, literal(-4)))
        CFI (cfiCond261) ?BRET_EXT load(1, XDATA, add(CFA_XSP16, literal(-3)))
        CFI (cfiCond261) DPL0 load(1, XDATA, add(CFA_XSP16, literal(-2)))
        CFI (cfiCond261) DPH0 load(1, XDATA, add(CFA_XSP16, literal(-1)))
        CFI (cfiCond261) CFA_SP SP+0
        CFI (cfiCond261) CFA_XSP16 add(XSP16, 33)
        CFI Block cfiCond262 Using cfiCommon0
        CFI (cfiCond262) NoFunction
        CFI (cfiCond262) Conditional ??CrossCallReturnLabel_130
        CFI (cfiCond262) R6 load(1, XDATA, add(CFA_XSP16, literal(-19)))
        CFI (cfiCond262) VB load(1, XDATA, add(CFA_XSP16, literal(-18)))
        CFI (cfiCond262) V0 load(1, XDATA, add(CFA_XSP16, literal(-17)))
        CFI (cfiCond262) V1 load(1, XDATA, add(CFA_XSP16, literal(-16)))
        CFI (cfiCond262) V2 load(1, XDATA, add(CFA_XSP16, literal(-15)))
        CFI (cfiCond262) V3 load(1, XDATA, add(CFA_XSP16, literal(-14)))
        CFI (cfiCond262) V4 load(1, XDATA, add(CFA_XSP16, literal(-13)))
        CFI (cfiCond262) V5 load(1, XDATA, add(CFA_XSP16, literal(-12)))
        CFI (cfiCond262) V6 load(1, XDATA, add(CFA_XSP16, literal(-11)))
        CFI (cfiCond262) V7 load(1, XDATA, add(CFA_XSP16, literal(-10)))
        CFI (cfiCond262) V8 load(1, XDATA, add(CFA_XSP16, literal(-9)))
        CFI (cfiCond262) V9 load(1, XDATA, add(CFA_XSP16, literal(-8)))
        CFI (cfiCond262) V10 load(1, XDATA, add(CFA_XSP16, literal(-7)))
        CFI (cfiCond262) R7 load(1, XDATA, add(CFA_XSP16, literal(-6)))
        CFI (cfiCond262) ?RET_LOW load(1, XDATA, add(CFA_XSP16, literal(-5)))
        CFI (cfiCond262) ?RET_HIGH load(1, XDATA, add(CFA_XSP16, literal(-4)))
        CFI (cfiCond262) ?BRET_EXT load(1, XDATA, add(CFA_XSP16, literal(-3)))
        CFI (cfiCond262) DPL0 load(1, XDATA, add(CFA_XSP16, literal(-2)))
        CFI (cfiCond262) DPH0 load(1, XDATA, add(CFA_XSP16, literal(-1)))
        CFI (cfiCond262) CFA_SP SP+0
        CFI (cfiCond262) CFA_XSP16 add(XSP16, 19)
        CFI Block cfiCond263 Using cfiCommon0
        CFI (cfiCond263) NoFunction
        CFI (cfiCond263) Conditional ??CrossCallReturnLabel_131
        CFI (cfiCond263) R6 load(1, XDATA, add(CFA_XSP16, literal(-12)))
        CFI (cfiCond263) VB load(1, XDATA, add(CFA_XSP16, literal(-11)))
        CFI (cfiCond263) V0 load(1, XDATA, add(CFA_XSP16, literal(-10)))
        CFI (cfiCond263) V1 load(1, XDATA, add(CFA_XSP16, literal(-9)))
        CFI (cfiCond263) V2 load(1, XDATA, add(CFA_XSP16, literal(-8)))
        CFI (cfiCond263) V3 load(1, XDATA, add(CFA_XSP16, literal(-7)))
        CFI (cfiCond263) R7 load(1, XDATA, add(CFA_XSP16, literal(-6)))
        CFI (cfiCond263) ?RET_LOW load(1, XDATA, add(CFA_XSP16, literal(-5)))
        CFI (cfiCond263) ?RET_HIGH load(1, XDATA, add(CFA_XSP16, literal(-4)))
        CFI (cfiCond263) ?BRET_EXT load(1, XDATA, add(CFA_XSP16, literal(-3)))
        CFI (cfiCond263) DPL0 load(1, XDATA, add(CFA_XSP16, literal(-2)))
        CFI (cfiCond263) DPH0 load(1, XDATA, add(CFA_XSP16, literal(-1)))
        CFI (cfiCond263) CFA_SP SP+0
        CFI (cfiCond263) CFA_XSP16 add(XSP16, 12)
        CFI Block cfiCond264 Using cfiCommon0
        CFI (cfiCond264) NoFunction
        CFI (cfiCond264) Conditional ??CrossCallReturnLabel_132
        CFI (cfiCond264) DPL0 Frame(CFA_SP, 4)
        CFI (cfiCond264) DPH0 Frame(CFA_SP, 5)
        CFI (cfiCond264) CFA_SP SP+-5
        CFI Block cfiPicker265 Using cfiCommon1
        CFI (cfiPicker265) NoFunction
        CFI (cfiPicker265) Picker
        MOVX    A,@DPTR
        MOV     R2,A
        INC     DPTR
        MOVX    A,@DPTR
        MOV     R3,A
        RET
        CFI EndBlock cfiCond258
        CFI EndBlock cfiCond259
        CFI EndBlock cfiCond260
        CFI EndBlock cfiCond261
        CFI EndBlock cfiCond262
        CFI EndBlock cfiCond263
        CFI EndBlock cfiCond264
        CFI EndBlock cfiPicker265
// 2450 
// 2451 #ifdef ZCL_READ
// 2452 /*********************************************************************
// 2453  * @fn      zclGetAttrDataLengthUsingCB
// 2454  *
// 2455  * @brief   Use application's callback to get the length of the attribute's
// 2456  *          current value stored in the database.
// 2457  *
// 2458  * @param   endpoint - application's endpoint
// 2459  * @param   clusterId - cluster that attribute belongs to
// 2460  * @param   attrId - attribute id
// 2461  *
// 2462  * @return  returns attribute length
// 2463  */
// 2464 static uint16 zclGetAttrDataLengthUsingCB( uint8 endpoint, uint16 clusterId, uint16 attrId )
// 2465 {
// 2466   uint16 dataLen = 0;
// 2467   zclReadWriteCB_t pfnReadWriteCB = zclGetReadWriteCB( endpoint );
// 2468 
// 2469   if ( pfnReadWriteCB != NULL )
// 2470   {
// 2471     // Only get the attribute length
// 2472     (*pfnReadWriteCB)( clusterId, attrId, ZCL_OPER_LEN, NULL, &dataLen );
// 2473   }
// 2474 
// 2475   return ( dataLen );
// 2476 }
// 2477 
// 2478 /*********************************************************************
// 2479  * @fn      zclReadAttrDataUsingCB
// 2480  *
// 2481  * @brief   Use application's callback to read the attribute's current
// 2482  *          value stored in the database.
// 2483  *
// 2484  * @param   endpoint - application's endpoint
// 2485  * @param   clusterId - cluster that attribute belongs to
// 2486  * @param   attrId - attribute id
// 2487  * @param   pAttrData - where to put attribute data
// 2488  * @param   pDataLen - where to put attribute data length
// 2489  *
// 2490  * @return  Successful if data was read
// 2491  */
// 2492 static ZStatus_t zclReadAttrDataUsingCB( uint8 endpoint, uint16 clusterId, uint16 attrId,
// 2493                                          uint8 *pAttrData, uint16 *pDataLen )
// 2494 {
// 2495   zclReadWriteCB_t pfnReadWriteCB = zclGetReadWriteCB( endpoint );
// 2496 
// 2497   if ( pDataLen != NULL )
// 2498   {
// 2499     *pDataLen = 0; // Always initialize it to 0
// 2500   }
// 2501 
// 2502   if ( pfnReadWriteCB != NULL )
// 2503   {
// 2504     // Read the attribute value and its length
// 2505     return ( (*pfnReadWriteCB)( clusterId, attrId, ZCL_OPER_READ, pAttrData, pDataLen ) );
// 2506   }
// 2507 
// 2508   return ( ZCL_STATUS_SOFTWARE_FAILURE );
// 2509 }
// 2510 
// 2511 /*********************************************************************
// 2512  * @fn      zclAuthorizeRead
// 2513  *
// 2514  * @brief   Use application's callback to authorize a Read operation
// 2515  *          on a given attribute.
// 2516  *
// 2517  * @param   endpoint - application's endpoint
// 2518  * @param   srcAddr - source Address
// 2519  * @param   pAttr - pointer to attribute
// 2520  *
// 2521  * @return  ZCL_STATUS_SUCCESS: Operation authorized
// 2522  *          ZCL_STATUS_NOT_AUTHORIZED: Operation not authorized
// 2523  */
// 2524 static ZStatus_t zclAuthorizeRead( uint8 endpoint, afAddrType_t *srcAddr, zclAttrRec_t *pAttr )
// 2525 {
// 2526   if ( zcl_AccessCtrlAuthRead( pAttr->attr.accessControl ) )
// 2527   {
// 2528     zclAuthorizeCB_t pfnAuthorizeCB = zclGetAuthorizeCB( endpoint );
// 2529 
// 2530     if ( pfnAuthorizeCB != NULL )
// 2531     {
// 2532       return ( (*pfnAuthorizeCB)( srcAddr, pAttr, ZCL_OPER_READ ) );
// 2533     }
// 2534   }
// 2535 
// 2536   return ( ZCL_STATUS_SUCCESS );
// 2537 }
// 2538 #endif // ZCL_READ
// 2539 
// 2540 #ifdef ZCL_WRITE
// 2541 /*********************************************************************
// 2542  * @fn      zclWriteAttrData
// 2543  *
// 2544  * @brief   Write the received data.
// 2545  *
// 2546  * @param   endpoint - application's endpoint
// 2547  * @param   pAttr - where to write data to
// 2548  * @param   pWriteRec - data to be written
// 2549  *
// 2550  * @return  Successful if data was written
// 2551  */
// 2552 static ZStatus_t zclWriteAttrData( uint8 endpoint, afAddrType_t *srcAddr,
// 2553                                    zclAttrRec_t *pAttr, zclWriteRec_t *pWriteRec )
// 2554 {
// 2555   uint8 status;
// 2556 
// 2557   if ( zcl_AccessCtrlWrite( pAttr->attr.accessControl ) )
// 2558   {
// 2559     status = zclAuthorizeWrite( endpoint, srcAddr, pAttr );
// 2560     if ( status == ZCL_STATUS_SUCCESS )
// 2561     {
// 2562       if ( ( zcl_ValidateAttrDataCB == NULL ) || zcl_ValidateAttrDataCB( pAttr, pWriteRec ) )
// 2563       {
// 2564         // Write the attribute value
// 2565         uint16 len = zclGetAttrDataLength( pAttr->attr.dataType, pWriteRec->attrData );
// 2566         osal_memcpy( pAttr->attr.dataPtr, pWriteRec->attrData, len );
// 2567 
// 2568         status = ZCL_STATUS_SUCCESS;
// 2569       }
// 2570       else
// 2571       {
// 2572         status = ZCL_STATUS_INVALID_VALUE;
// 2573       }
// 2574     }
// 2575   }
// 2576   else
// 2577   {
// 2578     status = ZCL_STATUS_READ_ONLY;
// 2579   }
// 2580 
// 2581   return ( status );
// 2582 }
// 2583 
// 2584 /*********************************************************************
// 2585  * @fn      zclWriteAttrDataUsingCB
// 2586  *
// 2587  * @brief   Use application's callback to write the attribute's current
// 2588  *          value stored in the database.
// 2589  *
// 2590  * @param   endpoint - application's endpoint
// 2591  * @param   pAttr - where to write data to
// 2592  * @param   pAttrData - data to be written
// 2593  *
// 2594  * @return  Successful if data was written
// 2595  */
// 2596 static ZStatus_t zclWriteAttrDataUsingCB( uint8 endpoint, afAddrType_t *srcAddr,
// 2597                                           zclAttrRec_t *pAttr, uint8 *pAttrData )
// 2598 {
// 2599   uint8 status;
// 2600 
// 2601   if ( zcl_AccessCtrlWrite( pAttr->attr.accessControl ) )
// 2602   {
// 2603     status = zclAuthorizeWrite( endpoint, srcAddr, pAttr );
// 2604     if ( status == ZCL_STATUS_SUCCESS )
// 2605     {
// 2606       zclReadWriteCB_t pfnReadWriteCB = zclGetReadWriteCB( endpoint );
// 2607       if ( pfnReadWriteCB != NULL )
// 2608       {
// 2609         // Write the attribute value
// 2610         status = (*pfnReadWriteCB)( pAttr->clusterID, pAttr->attr.attrId,
// 2611                                     ZCL_OPER_WRITE, pAttrData, NULL );
// 2612       }
// 2613       else
// 2614       {
// 2615         status = ZCL_STATUS_SOFTWARE_FAILURE;
// 2616       }
// 2617     }
// 2618   }
// 2619   else
// 2620   {
// 2621     status = ZCL_STATUS_READ_ONLY;
// 2622   }
// 2623 
// 2624   return ( status );
// 2625 }
// 2626 
// 2627 /*********************************************************************
// 2628  * @fn      zclAuthorizeWrite
// 2629  *
// 2630  * @brief   Use application's callback to authorize a Write operation
// 2631  *          on a given attribute.
// 2632  *
// 2633  * @param   endpoint - application's endpoint
// 2634  * @param   srcAddr - source Address
// 2635  * @param   pAttr - pointer to attribute
// 2636  *
// 2637  * @return  ZCL_STATUS_SUCCESS: Operation authorized
// 2638  *          ZCL_STATUS_NOT_AUTHORIZED: Operation not authorized
// 2639  */
// 2640 static ZStatus_t zclAuthorizeWrite( uint8 endpoint, afAddrType_t *srcAddr, zclAttrRec_t *pAttr )
// 2641 {
// 2642   if ( zcl_AccessCtrlAuthWrite( pAttr->attr.accessControl ) )
// 2643   {
// 2644     zclAuthorizeCB_t pfnAuthorizeCB = zclGetAuthorizeCB( endpoint );
// 2645 
// 2646     if ( pfnAuthorizeCB != NULL )
// 2647     {
// 2648       return ( (*pfnAuthorizeCB)( srcAddr, pAttr, ZCL_OPER_WRITE ) );
// 2649     }
// 2650   }
// 2651 
// 2652   return ( ZCL_STATUS_SUCCESS );
// 2653 }
// 2654 #endif // ZCL_WRITE
// 2655 
// 2656 #ifdef ZCL_READ
// 2657 /*********************************************************************
// 2658  * @fn      zclParseInReadCmd
// 2659  *
// 2660  * @brief   Parse the "Profile" Read Commands
// 2661  *
// 2662  *      NOTE: THIS FUNCTION ALLOCATES THE RETURN BUFFER, SO THE CALLING
// 2663  *            FUNCTION IS RESPONSIBLE TO FREE THE MEMORY.
// 2664  *
// 2665  * @param   pCmd - pointer to incoming data to parse
// 2666  *
// 2667  * @return  pointer to the parsed command structure
// 2668  */
// 2669 void *zclParseInReadCmd( zclParseCmd_t *pCmd )
// 2670 {
// 2671   zclReadCmd_t *readCmd;
// 2672   uint8 *pBuf = pCmd->pData;
// 2673 
// 2674   readCmd = (zclReadCmd_t *)osal_mem_alloc( sizeof ( zclReadCmd_t ) + pCmd->dataLen );
// 2675   if ( readCmd != NULL )
// 2676   {
// 2677     readCmd->numAttr = pCmd->dataLen / 2; // Atrribute ID
// 2678     for ( uint8 i = 0; i < readCmd->numAttr; i++ )
// 2679     {
// 2680       readCmd->attrID[i] = BUILD_UINT16( pBuf[0], pBuf[1] );
// 2681       pBuf += 2;
// 2682     }
// 2683   }
// 2684 
// 2685   return ( (void *)readCmd );
// 2686 }
// 2687 
// 2688 /*********************************************************************
// 2689  * @fn      zclParseInReadRspCmd
// 2690  *
// 2691  * @brief   Parse the "Profile" Read Response Commands
// 2692  *
// 2693  *      NOTE: THIS FUNCTION ALLOCATES THE RETURN BUFFER, SO THE CALLING
// 2694  *            FUNCTION IS RESPONSIBLE TO FREE THE MEMORY.
// 2695  *
// 2696  * @param   pCmd - pointer to incoming data to parse
// 2697  *
// 2698  * @return  pointer to the parsed command structure
// 2699  */
// 2700 static void *zclParseInReadRspCmd( zclParseCmd_t *pCmd )
// 2701 {
// 2702   zclReadRspCmd_t *readRspCmd;
// 2703   uint8 *pBuf = pCmd->pData;
// 2704   uint8 *dataPtr;
// 2705   uint8 numAttr = 0;
// 2706   uint8 hdrLen;
// 2707   uint16 dataLen = 0;
// 2708   uint16 attrDataLen;
// 2709 
// 2710   // find out the number of attributes and the length of attribute data
// 2711   while ( pBuf < ( pCmd->pData + pCmd->dataLen ) )
// 2712   {
// 2713     uint8 status;
// 2714 
// 2715     numAttr++;
// 2716     pBuf += 2; // move pass attribute id
// 2717 
// 2718     status = *pBuf++;
// 2719     if ( status == ZCL_STATUS_SUCCESS )
// 2720     {
// 2721       uint8 dataType = *pBuf++;
// 2722 
// 2723       attrDataLen = zclGetAttrDataLength( dataType, pBuf );
// 2724       pBuf += attrDataLen; // move pass attribute data
// 2725 
// 2726       // add padding if needed
// 2727       if ( PADDING_NEEDED( attrDataLen ) )
// 2728       {
// 2729         attrDataLen++;
// 2730       }
// 2731 
// 2732       dataLen += attrDataLen;
// 2733     }
// 2734   }
// 2735 
// 2736   // calculate the length of the response header
// 2737   hdrLen = sizeof( zclReadRspCmd_t ) + ( numAttr * sizeof( zclReadRspStatus_t ) );
// 2738 
// 2739   readRspCmd = (zclReadRspCmd_t *)osal_mem_alloc( hdrLen + dataLen );
// 2740   if ( readRspCmd != NULL )
// 2741   {
// 2742     pBuf = pCmd->pData;
// 2743     dataPtr = (uint8 *)( (uint8 *)readRspCmd + hdrLen );
// 2744 
// 2745     readRspCmd->numAttr = numAttr;
// 2746     for ( uint8 i = 0; i < numAttr; i++ )
// 2747     {
// 2748       zclReadRspStatus_t *statusRec = &(readRspCmd->attrList[i]);
// 2749 
// 2750       statusRec->attrID = BUILD_UINT16( pBuf[0], pBuf[1] );
// 2751       pBuf += 2;
// 2752 
// 2753       statusRec->status = *pBuf++;
// 2754       if ( statusRec->status == ZCL_STATUS_SUCCESS )
// 2755       {
// 2756         statusRec->dataType = *pBuf++;
// 2757 
// 2758         attrDataLen = zclGetAttrDataLength( statusRec->dataType, pBuf );
// 2759         osal_memcpy( dataPtr, pBuf, attrDataLen);
// 2760         statusRec->data = dataPtr;
// 2761 
// 2762         pBuf += attrDataLen; // move pass attribute data
// 2763 
// 2764         // advance attribute data pointer
// 2765         if ( PADDING_NEEDED( attrDataLen ) )
// 2766         {
// 2767           attrDataLen++;
// 2768         }
// 2769 
// 2770         dataPtr += attrDataLen;
// 2771       }
// 2772     }
// 2773   }
// 2774 
// 2775   return ( (void *)readRspCmd );
// 2776 }
// 2777 #endif // ZCL_READ
// 2778 
// 2779 #ifdef ZCL_WRITE
// 2780 /*********************************************************************
// 2781  * @fn      zclParseInWriteCmd
// 2782  *
// 2783  * @brief   Parse the "Profile" Write, Write Undivided and Write No
// 2784  *          Response Commands
// 2785  *
// 2786  *      NOTE: THIS FUNCTION ALLOCATES THE RETURN BUFFER, SO THE CALLING
// 2787  *            FUNCTION IS RESPONSIBLE TO FREE THE MEMORY.
// 2788  *
// 2789  * @param   pCmd - pointer to incoming data to parse
// 2790  *
// 2791  * @return  pointer to the parsed command structure
// 2792  */
// 2793 void *zclParseInWriteCmd( zclParseCmd_t *pCmd )
// 2794 {
// 2795   zclWriteCmd_t *writeCmd;
// 2796   uint8 *pBuf = pCmd->pData;
// 2797   uint16 attrDataLen;
// 2798   uint8 *dataPtr;
// 2799   uint8 numAttr = 0;
// 2800   uint8 hdrLen;
// 2801   uint16 dataLen = 0;
// 2802 
// 2803   // find out the number of attributes and the length of attribute data
// 2804   while ( pBuf < ( pCmd->pData + pCmd->dataLen ) )
// 2805   {
// 2806     uint8 dataType;
// 2807 
// 2808     numAttr++;
// 2809     pBuf += 2; // move pass attribute id
// 2810 
// 2811     dataType = *pBuf++;
// 2812 
// 2813     attrDataLen = zclGetAttrDataLength( dataType, pBuf );
// 2814     pBuf += attrDataLen; // move pass attribute data
// 2815 
// 2816     // add padding if needed
// 2817     if ( PADDING_NEEDED( attrDataLen ) )
// 2818     {
// 2819       attrDataLen++;
// 2820     }
// 2821 
// 2822     dataLen += attrDataLen;
// 2823   }
// 2824 
// 2825   // calculate the length of the response header
// 2826   hdrLen = sizeof( zclWriteCmd_t ) + ( numAttr * sizeof( zclWriteRec_t ) );
// 2827 
// 2828   writeCmd = (zclWriteCmd_t *)osal_mem_alloc( hdrLen + dataLen );
// 2829   if ( writeCmd != NULL )
// 2830   {
// 2831     pBuf = pCmd->pData;
// 2832     dataPtr = (uint8 *)( (uint8 *)writeCmd + hdrLen );
// 2833 
// 2834     writeCmd->numAttr = numAttr;
// 2835     for ( uint8 i = 0; i < numAttr; i++ )
// 2836     {
// 2837       zclWriteRec_t *statusRec = &(writeCmd->attrList[i]);
// 2838 
// 2839       statusRec->attrID = BUILD_UINT16( pBuf[0], pBuf[1] );
// 2840       pBuf += 2;
// 2841       statusRec->dataType = *pBuf++;
// 2842 
// 2843       attrDataLen = zclGetAttrDataLength( statusRec->dataType, pBuf );
// 2844       osal_memcpy( dataPtr, pBuf, attrDataLen);
// 2845       statusRec->attrData = dataPtr;
// 2846 
// 2847       pBuf += attrDataLen; // move pass attribute data
// 2848 
// 2849       // advance attribute data pointer
// 2850       if ( PADDING_NEEDED( attrDataLen ) )
// 2851       {
// 2852         attrDataLen++;
// 2853       }
// 2854 
// 2855       dataPtr += attrDataLen;
// 2856     }
// 2857   }
// 2858 
// 2859   return ( (void *)writeCmd );
// 2860 }
// 2861 
// 2862 /*********************************************************************
// 2863  * @fn      zclParseInWriteRspCmd
// 2864  *
// 2865  * @brief   Parse the "Profile" Write Response Commands
// 2866  *
// 2867  *      NOTE: THIS FUNCTION ALLOCATES THE RETURN BUFFER, SO THE CALLING
// 2868  *            FUNCTION IS RESPONSIBLE TO FREE THE MEMORY.
// 2869  *
// 2870  * @param   pCmd - pointer to incoming data to parse
// 2871  *
// 2872  * @return  pointer to the parsed command structure
// 2873  */
// 2874 static void *zclParseInWriteRspCmd( zclParseCmd_t *pCmd )
// 2875 {
// 2876   zclWriteRspCmd_t *writeRspCmd;
// 2877   uint8 *pBuf = pCmd->pData;
// 2878   uint8 i = 0;
// 2879 
// 2880   writeRspCmd = (zclWriteRspCmd_t *)osal_mem_alloc( sizeof ( zclWriteRspCmd_t ) + pCmd->dataLen );
// 2881   if ( writeRspCmd != NULL )
// 2882   {
// 2883     if ( pCmd->dataLen == 1 )
// 2884     {
// 2885       // special case when all writes were successfull
// 2886       writeRspCmd->attrList[i++].status = *pBuf;
// 2887     }
// 2888     else
// 2889     {
// 2890       while ( pBuf < ( pCmd->pData + pCmd->dataLen ) )
// 2891       {
// 2892         writeRspCmd->attrList[i].status = *pBuf++;
// 2893         writeRspCmd->attrList[i++].attrID = BUILD_UINT16( pBuf[0], pBuf[1] );
// 2894         pBuf += 2;
// 2895       }
// 2896     }
// 2897 
// 2898     writeRspCmd->numAttr = i;
// 2899   }
// 2900 
// 2901   return ( (void *)writeRspCmd );
// 2902 }
// 2903 #endif // ZCL_WRITE
// 2904 
// 2905 #ifdef ZCL_REPORT
// 2906 /*********************************************************************
// 2907  * @fn      zclParseInConfigReportCmd
// 2908  *
// 2909  * @brief   Parse the "Profile" Configure Reporting Command
// 2910  *
// 2911  *      NOTE: THIS FUNCTION ALLOCATES THE RETURN BUFFER, SO THE CALLING
// 2912  *            FUNCTION IS RESPONSIBLE TO FREE THE MEMORY.
// 2913  *
// 2914  * @param   pCmd - pointer to incoming data to parse
// 2915  *
// 2916  * @return  pointer to the parsed command structure
// 2917  */
// 2918 void *zclParseInConfigReportCmd( zclParseCmd_t *pCmd )
// 2919 {
// 2920   zclCfgReportCmd_t *cfgReportCmd;
// 2921   uint8 *pBuf = pCmd->pData;
// 2922   uint8 *dataPtr;
// 2923   uint8 numAttr = 0;
// 2924   uint8 dataType;
// 2925   uint8 hdrLen;
// 2926   uint16 dataLen = 0;
// 2927   uint8 reportChangeLen; // length of Reportable Change field
// 2928 
// 2929   // Calculate the length of the Request command
// 2930   while ( pBuf < ( pCmd->pData + pCmd->dataLen ) )
// 2931   {
// 2932     uint8 direction;
// 2933 
// 2934     numAttr++;
// 2935     direction = *pBuf++;
// 2936     pBuf += 2; // move pass the attribute ID
// 2937 
// 2938     // Is there a Reportable Change field?
// 2939     if ( direction == ZCL_SEND_ATTR_REPORTS )
// 2940     {
// 2941       dataType = *pBuf++;
// 2942       pBuf += 4; // move pass the Min and Max Reporting Intervals
// 2943 
// 2944       // For attributes of 'discrete' data types this field is omitted
// 2945       if ( zclAnalogDataType( dataType ) )
// 2946       {
// 2947         reportChangeLen = zclGetDataTypeLength( dataType );
// 2948         pBuf += reportChangeLen;
// 2949 
// 2950         // add padding if needed
// 2951         if ( PADDING_NEEDED( reportChangeLen ) )
// 2952         {
// 2953           reportChangeLen++;
// 2954         }
// 2955 
// 2956         dataLen += reportChangeLen;
// 2957       }
// 2958     }
// 2959     else
// 2960     {
// 2961       pBuf += 2; // move pass the Timeout Period
// 2962     }
// 2963   } // while loop
// 2964 
// 2965   hdrLen = sizeof( zclCfgReportCmd_t ) + ( numAttr * sizeof( zclCfgReportRec_t ) );
// 2966 
// 2967   cfgReportCmd = (zclCfgReportCmd_t *)osal_mem_alloc( hdrLen + dataLen );
// 2968   if ( cfgReportCmd != NULL )
// 2969   {
// 2970     pBuf = pCmd->pData;
// 2971     dataPtr = (uint8 *)( (uint8 *)cfgReportCmd + hdrLen );
// 2972 
// 2973     cfgReportCmd->numAttr = numAttr;
// 2974     for ( uint8 i = 0; i < numAttr; i++ )
// 2975     {
// 2976       zclCfgReportRec_t *reportRec = &(cfgReportCmd->attrList[i]);
// 2977 
// 2978       osal_memset( reportRec, 0, sizeof( zclCfgReportRec_t ) );
// 2979 
// 2980       reportRec->direction = *pBuf++;
// 2981       reportRec->attrID = BUILD_UINT16( pBuf[0], pBuf[1] );
// 2982       pBuf += 2;
// 2983       if ( reportRec->direction == ZCL_SEND_ATTR_REPORTS )
// 2984       {
// 2985         // Attribute to be reported
// 2986         reportRec->dataType = *pBuf++;
// 2987         reportRec->minReportInt = BUILD_UINT16( pBuf[0], pBuf[1] );
// 2988         pBuf += 2;
// 2989         reportRec->maxReportInt = BUILD_UINT16( pBuf[0], pBuf[1] );
// 2990         pBuf += 2;
// 2991 
// 2992         // For attributes of 'discrete' data types this field is omitted
// 2993         if ( zclAnalogDataType( reportRec->dataType ) )
// 2994         {
// 2995           zcl_BuildAnalogData( reportRec->dataType, dataPtr, pBuf);
// 2996           reportRec->reportableChange = dataPtr;
// 2997 
// 2998           reportChangeLen = zclGetDataTypeLength( reportRec->dataType );
// 2999           pBuf += reportChangeLen;
// 3000 
// 3001           // advance attribute data pointer
// 3002           if ( PADDING_NEEDED( reportChangeLen ) )
// 3003           {
// 3004             reportChangeLen++;
// 3005           }
// 3006 
// 3007           dataPtr += reportChangeLen;
// 3008         }
// 3009       }
// 3010       else
// 3011       {
// 3012         // Attribute reports to be received
// 3013         reportRec->timeoutPeriod = BUILD_UINT16( pBuf[0], pBuf[1] );
// 3014         pBuf += 2;
// 3015       }
// 3016     } // while loop
// 3017   }
// 3018 
// 3019   return ( (void *)cfgReportCmd );
// 3020 }
// 3021 
// 3022 /*********************************************************************
// 3023  * @fn      zclParseInConfigReportRspCmd
// 3024  *
// 3025  * @brief   Parse the "Profile" Configure Reporting Response Command
// 3026  *
// 3027  *      NOTE: THIS FUNCTION ALLOCATES THE RETURN BUFFER, SO THE CALLING
// 3028  *            FUNCTION IS RESPONSIBLE TO FREE THE MEMORY.
// 3029  *
// 3030  * @param   pCmd - pointer to incoming data to parse
// 3031  *
// 3032  * @return  pointer to the parsed command structure
// 3033  */
// 3034 static void *zclParseInConfigReportRspCmd( zclParseCmd_t *pCmd )
// 3035 {
// 3036   zclCfgReportRspCmd_t *cfgReportRspCmd;
// 3037   uint8 *pBuf = pCmd->pData;
// 3038   uint8 numAttr;
// 3039 
// 3040   numAttr = pCmd->dataLen / ( 1 + 1 + 2 ); // Status + Direction + Attribute ID
// 3041 
// 3042   cfgReportRspCmd = (zclCfgReportRspCmd_t *)osal_mem_alloc( sizeof( zclCfgReportRspCmd_t )
// 3043                                             + ( numAttr * sizeof( zclCfgReportStatus_t ) ) );
// 3044   if ( cfgReportRspCmd != NULL )
// 3045   {
// 3046     cfgReportRspCmd->numAttr = numAttr;
// 3047     for ( uint8 i = 0; i < cfgReportRspCmd->numAttr; i++ )
// 3048     {
// 3049       cfgReportRspCmd->attrList[i].status = *pBuf++;
// 3050       cfgReportRspCmd->attrList[i].direction = *pBuf++;
// 3051       cfgReportRspCmd->attrList[i].attrID = BUILD_UINT16( pBuf[0], pBuf[1] );
// 3052       pBuf += 2;
// 3053     }
// 3054   }
// 3055 
// 3056   return ( (void *)cfgReportRspCmd );
// 3057 }
// 3058 
// 3059 /*********************************************************************
// 3060  * @fn      zclParseInReadReportCfgCmd
// 3061  *
// 3062  * @brief   Parse the "Profile" Read Reporting Configuration Command
// 3063  *
// 3064  *      NOTE: THIS FUNCTION ALLOCATES THE RETURN BUFFER, SO THE CALLING
// 3065  *            FUNCTION IS RESPONSIBLE TO FREE THE MEMORY.
// 3066  *
// 3067  * @param   pCmd - pointer to incoming data to parse
// 3068  *
// 3069  * @return  pointer to the parsed command structure
// 3070  */
// 3071 void *zclParseInReadReportCfgCmd( zclParseCmd_t *pCmd )
// 3072 {
// 3073   zclReadReportCfgCmd_t *readReportCfgCmd;
// 3074   uint8 *pBuf = pCmd->pData;
// 3075   uint8 numAttr;
// 3076 
// 3077   numAttr = pCmd->dataLen / ( 1 + 2 ); // Direction + Attribute ID
// 3078 
// 3079   readReportCfgCmd = (zclReadReportCfgCmd_t *)osal_mem_alloc( sizeof( zclReadReportCfgCmd_t )
// 3080                                                   + ( numAttr * sizeof( zclReadReportCfgRec_t ) ) );
// 3081   if ( readReportCfgCmd != NULL )
// 3082   {
// 3083     readReportCfgCmd->numAttr = numAttr;
// 3084     for ( uint8 i = 0; i < readReportCfgCmd->numAttr; i++)
// 3085     {
// 3086       readReportCfgCmd->attrList[i].direction = *pBuf++;;
// 3087       readReportCfgCmd->attrList[i].attrID = BUILD_UINT16( pBuf[0], pBuf[1] );
// 3088       pBuf += 2;
// 3089     }
// 3090   }
// 3091 
// 3092   return ( (void *)readReportCfgCmd );
// 3093 }
// 3094 
// 3095 /*********************************************************************
// 3096  * @fn      zclParseInReadReportCfgRspCmd
// 3097  *
// 3098  * @brief   Parse the "Profile" Read Reporting Configuration Response Command
// 3099  *
// 3100  *      NOTE: THIS FUNCTION ALLOCATES THE RETURN BUFFER, SO THE CALLING
// 3101  *            FUNCTION IS RESPONSIBLE TO FREE THE MEMORY.
// 3102  *
// 3103  * @param   pCmd - pointer to incoming data to parse
// 3104  *
// 3105  * @return  pointer to the parsed command structure
// 3106  */
// 3107 static void *zclParseInReadReportCfgRspCmd( zclParseCmd_t *pCmd )
// 3108 {
// 3109   zclReadReportCfgRspCmd_t *readReportCfgRspCmd;
// 3110   uint8 reportChangeLen;
// 3111   uint8 *pBuf = pCmd->pData;
// 3112   uint8 *dataPtr;
// 3113   uint8 numAttr = 0;
// 3114   uint8 hdrLen;
// 3115   uint16 dataLen = 0;
// 3116 
// 3117   // Calculate the length of the response command
// 3118   while ( pBuf < ( pCmd->pData + pCmd->dataLen ) )
// 3119   {
// 3120     uint8 status;
// 3121     uint8 direction;
// 3122 
// 3123     numAttr++;
// 3124     status = *pBuf++;
// 3125     direction = *pBuf++;
// 3126     pBuf += 2; // move pass the attribute ID
// 3127 
// 3128     if ( status == ZCL_STATUS_SUCCESS )
// 3129     {
// 3130       if ( direction == ZCL_SEND_ATTR_REPORTS )
// 3131       {
// 3132         uint8 dataType = *pBuf++;
// 3133         pBuf += 4; // move pass the Min and Max Reporting Intervals
// 3134 
// 3135         // For attributes of 'discrete' data types this field is omitted
// 3136         if ( zclAnalogDataType( dataType ) )
// 3137         {
// 3138           reportChangeLen = zclGetDataTypeLength( dataType );
// 3139           pBuf += reportChangeLen;
// 3140 
// 3141           // add padding if needed
// 3142           if ( PADDING_NEEDED( reportChangeLen ) )
// 3143           {
// 3144             reportChangeLen++;
// 3145           }
// 3146 
// 3147           dataLen += reportChangeLen;
// 3148         }
// 3149       }
// 3150       else
// 3151       {
// 3152         pBuf += 2; // move pass the Timeout field
// 3153       }
// 3154     }
// 3155   } // while loop
// 3156 
// 3157   hdrLen = sizeof( zclReadReportCfgRspCmd_t ) + ( numAttr * sizeof( zclReportCfgRspRec_t ) );
// 3158 
// 3159   readReportCfgRspCmd = (zclReadReportCfgRspCmd_t *)osal_mem_alloc( hdrLen + dataLen );
// 3160   if ( readReportCfgRspCmd != NULL )
// 3161   {
// 3162     pBuf = pCmd->pData;
// 3163     dataPtr = (uint8 *)( (uint8 *)readReportCfgRspCmd + hdrLen );
// 3164 
// 3165     readReportCfgRspCmd->numAttr = numAttr;
// 3166     for ( uint8 i = 0; i < numAttr; i++ )
// 3167     {
// 3168       zclReportCfgRspRec_t *reportRspRec = &(readReportCfgRspCmd->attrList[i]);
// 3169 
// 3170       reportRspRec->status = *pBuf++;
// 3171       reportRspRec->direction = *pBuf++;
// 3172       reportRspRec->attrID = BUILD_UINT16( pBuf[0], pBuf[1] );
// 3173       pBuf += 2;
// 3174 
// 3175       if ( reportRspRec->status == ZCL_STATUS_SUCCESS )
// 3176       {
// 3177         if ( reportRspRec->direction == ZCL_SEND_ATTR_REPORTS )
// 3178         {
// 3179           reportRspRec->dataType = *pBuf++;
// 3180           reportRspRec->minReportInt = BUILD_UINT16( pBuf[0], pBuf[1] );
// 3181           pBuf += 2;
// 3182           reportRspRec->maxReportInt = BUILD_UINT16( pBuf[0], pBuf[1] );
// 3183           pBuf += 2;
// 3184 
// 3185           if ( zclAnalogDataType( reportRspRec->dataType ) )
// 3186           {
// 3187             zcl_BuildAnalogData( reportRspRec->dataType, dataPtr, pBuf);
// 3188             reportRspRec->reportableChange = dataPtr;
// 3189 
// 3190             reportChangeLen = zclGetDataTypeLength( reportRspRec->dataType );
// 3191             pBuf += reportChangeLen;
// 3192 
// 3193             // advance attribute data pointer
// 3194             if ( PADDING_NEEDED( reportChangeLen ) )
// 3195             {
// 3196               reportChangeLen++;
// 3197             }
// 3198 
// 3199             dataPtr += reportChangeLen;
// 3200           }
// 3201         }
// 3202         else
// 3203         {
// 3204           reportRspRec->timeoutPeriod = BUILD_UINT16( pBuf[0], pBuf[1] );
// 3205           pBuf += 2;
// 3206         }
// 3207       }
// 3208     }
// 3209   }
// 3210 
// 3211   return ( (void *)readReportCfgRspCmd );
// 3212 }
// 3213 
// 3214 /*********************************************************************
// 3215  * @fn      zclParseInReportCmd
// 3216  *
// 3217  * @brief   Parse the "Profile" Report Command
// 3218  *
// 3219  *      NOTE: THIS FUNCTION ALLOCATES THE RETURN BUFFER, SO THE CALLING
// 3220  *            FUNCTION IS RESPONSIBLE TO FREE THE MEMORY.
// 3221  *
// 3222  * @param   pCmd - pointer to incoming data to parse
// 3223  *
// 3224  * @return  pointer to the parsed command structure
// 3225  */
// 3226 void *zclParseInReportCmd( zclParseCmd_t *pCmd )
// 3227 {
// 3228   zclReportCmd_t *reportCmd;
// 3229   uint8 *pBuf = pCmd->pData;
// 3230   uint16 attrDataLen;
// 3231   uint8 *dataPtr;
// 3232   uint8 numAttr = 0;
// 3233   uint8 hdrLen;
// 3234   uint16 dataLen = 0;
// 3235 
// 3236   // find out the number of attributes and the length of attribute data
// 3237   while ( pBuf < ( pCmd->pData + pCmd->dataLen ) )
// 3238   {
// 3239     uint8 dataType;
// 3240 
// 3241     numAttr++;
// 3242     pBuf += 2; // move pass attribute id
// 3243 
// 3244     dataType = *pBuf++;
// 3245 
// 3246     attrDataLen = zclGetAttrDataLength( dataType, pBuf );
// 3247     pBuf += attrDataLen; // move pass attribute data
// 3248 
// 3249     // add padding if needed
// 3250     if ( PADDING_NEEDED( attrDataLen ) )
// 3251     {
// 3252       attrDataLen++;
// 3253     }
// 3254 
// 3255     dataLen += attrDataLen;
// 3256   }
// 3257 
// 3258   hdrLen = sizeof( zclReportCmd_t ) + ( numAttr * sizeof( zclReport_t ) );
// 3259 
// 3260   reportCmd = (zclReportCmd_t *)osal_mem_alloc( hdrLen + dataLen );
// 3261   if (reportCmd != NULL )
// 3262   {
// 3263     pBuf = pCmd->pData;
// 3264     dataPtr = (uint8 *)( (uint8 *)reportCmd + hdrLen );
// 3265 
// 3266     reportCmd->numAttr = numAttr;
// 3267     for ( uint8 i = 0; i < numAttr; i++ )
// 3268     {
// 3269       zclReport_t *reportRec = &(reportCmd->attrList[i]);
// 3270 
// 3271       reportRec->attrID = BUILD_UINT16( pBuf[0], pBuf[1] );
// 3272       pBuf += 2;
// 3273       reportRec->dataType = *pBuf++;
// 3274 
// 3275       attrDataLen = zclGetAttrDataLength( reportRec->dataType, pBuf );
// 3276       osal_memcpy( dataPtr, pBuf, attrDataLen );
// 3277       reportRec->attrData = dataPtr;
// 3278 
// 3279       pBuf += attrDataLen; // move pass attribute data
// 3280 
// 3281       // advance attribute data pointer
// 3282       if ( PADDING_NEEDED( attrDataLen ) )
// 3283       {
// 3284         attrDataLen++;
// 3285       }
// 3286 
// 3287       dataPtr += attrDataLen;
// 3288     }
// 3289   }
// 3290 
// 3291   return ( (void *)reportCmd );
// 3292 }
// 3293 #endif // ZCL_REPORT
// 3294 
// 3295 /*********************************************************************
// 3296  * @fn      zclParseInDefaultRspCmd
// 3297  *
// 3298  * @brief   Parse the "Profile" Default Response Command
// 3299  *
// 3300  *      NOTE: THIS FUNCTION ALLOCATES THE RETURN BUFFER, SO THE CALLING
// 3301  *            FUNCTION IS RESPONSIBLE TO FREE THE MEMORY.
// 3302  *
// 3303  * @param   pCmd - pointer to incoming data to parse
// 3304  *
// 3305  * @return  pointer to the parsed command structure
// 3306  */

        RSEG BANKED_CODE:CODE:NOROOT(0)
// 3307 static void *zclParseInDefaultRspCmd( zclParseCmd_t *pCmd )
zclParseInDefaultRspCmd:
        CFI Block cfiBlock266 Using cfiCommon0
        CFI Function zclParseInDefaultRspCmd
        CODE
// 3308 {
        FUNCALL zclParseInDefaultRspCmd, osal_mem_alloc
        LOCFRAME ISTACK, 0, STACK
        LOCFRAME PSTACK, 0, STACK
        LOCFRAME XSTACK, 10, STACK
        LOCFRAME IOVERLAY, 0, STATIC
        LOCFRAME DOVERLAY, 0, STATIC
        ARGFRAME ISTACK, 0, STACK
        ARGFRAME PSTACK, 0, STACK
        ARGFRAME XSTACK, 10, STACK
        ARGFRAME IOVERLAY, 0, STATIC
        ARGFRAME DOVERLAY, 0, STATIC
        MOV     A,#-0xa
        LCALL   ?BANKED_ENTER_XDATA
        CFI DPH0 load(1, XDATA, add(CFA_XSP16, literal(-1)))
        CFI DPL0 load(1, XDATA, add(CFA_XSP16, literal(-2)))
        CFI ?BRET_EXT load(1, XDATA, add(CFA_XSP16, literal(-3)))
        CFI ?RET_HIGH load(1, XDATA, add(CFA_XSP16, literal(-4)))
        CFI ?RET_LOW load(1, XDATA, add(CFA_XSP16, literal(-5)))
        CFI R7 load(1, XDATA, add(CFA_XSP16, literal(-6)))
        CFI V1 load(1, XDATA, add(CFA_XSP16, literal(-7)))
        CFI V0 load(1, XDATA, add(CFA_XSP16, literal(-8)))
        CFI VB load(1, XDATA, add(CFA_XSP16, literal(-9)))
        CFI R6 load(1, XDATA, add(CFA_XSP16, literal(-10)))
        CFI CFA_SP SP+0
        CFI CFA_XSP16 add(XSP16, 10)
        ; Saved register size: 10
        ; Auto size: 0
// 3309   zclDefaultRspCmd_t *defaultRspCmd;
// 3310   uint8 *pBuf = pCmd->pData;
        MOV     DPL,R2
        MOV     DPH,R3
        INC     DPTR
        INC     DPTR
        INC     DPTR
        MOVX    A,@DPTR
        MOV     R6,A
        INC     DPTR
        MOVX    A,@DPTR
        MOV     R7,A
// 3311 
// 3312   defaultRspCmd = (zclDefaultRspCmd_t *)osal_mem_alloc( sizeof ( zclDefaultRspCmd_t ) );
        ; Setup parameters for call to function osal_mem_alloc
        MOV     R2,#0x2
        MOV     R3,#0x0
        LCALL   ??osal_mem_alloc?relay
// 3313   if ( defaultRspCmd != NULL )
        MOV     A,R2
        ORL     A,R3
        JZ      ??zclParseInDefaultRspCmd_0
// 3314   {
// 3315     defaultRspCmd->commandID = *pBuf++;
        LCALL   ?Subroutine31 & 0xFFFF
??CrossCallReturnLabel_137:
        LCALL   ?Subroutine13 & 0xFFFF
// 3316     defaultRspCmd->statusCode = *pBuf;
??CrossCallReturnLabel_18:
        LCALL   ??Subroutine63_0 & 0xFFFF
// 3317   }
??CrossCallReturnLabel_134:
        INC     DPTR
        MOVX    @DPTR,A
// 3318 
// 3319   return ( (void *)defaultRspCmd );
??zclParseInDefaultRspCmd_0:
        LJMP    ?Subroutine4 & 0xFFFF
        CFI EndBlock cfiBlock266
// 3320 }

        RSEG BANKED_CODE:CODE:NOROOT(0)
?Subroutine31:
        CFI Block cfiCond267 Using cfiCommon0
        CFI NoFunction
        CFI Conditional ??CrossCallReturnLabel_135
        CFI R6 load(1, XDATA, add(CFA_XSP16, literal(-16)))
        CFI VB load(1, XDATA, add(CFA_XSP16, literal(-15)))
        CFI V0 load(1, XDATA, add(CFA_XSP16, literal(-14)))
        CFI V1 load(1, XDATA, add(CFA_XSP16, literal(-13)))
        CFI V2 load(1, XDATA, add(CFA_XSP16, literal(-12)))
        CFI V3 load(1, XDATA, add(CFA_XSP16, literal(-11)))
        CFI V4 load(1, XDATA, add(CFA_XSP16, literal(-10)))
        CFI V5 load(1, XDATA, add(CFA_XSP16, literal(-9)))
        CFI V6 load(1, XDATA, add(CFA_XSP16, literal(-8)))
        CFI V7 load(1, XDATA, add(CFA_XSP16, literal(-7)))
        CFI R7 load(1, XDATA, add(CFA_XSP16, literal(-6)))
        CFI ?RET_LOW load(1, XDATA, add(CFA_XSP16, literal(-5)))
        CFI ?RET_HIGH load(1, XDATA, add(CFA_XSP16, literal(-4)))
        CFI ?BRET_EXT load(1, XDATA, add(CFA_XSP16, literal(-3)))
        CFI DPL0 load(1, XDATA, add(CFA_XSP16, literal(-2)))
        CFI DPH0 load(1, XDATA, add(CFA_XSP16, literal(-1)))
        CFI CFA_SP SP+0
        CFI CFA_XSP16 add(XSP16, 16)
        CFI Block cfiCond268 Using cfiCommon0
        CFI (cfiCond268) NoFunction
        CFI (cfiCond268) Conditional ??CrossCallReturnLabel_136
        CFI (cfiCond268) R6 load(1, XDATA, add(CFA_XSP16, literal(-16)))
        CFI (cfiCond268) VB load(1, XDATA, add(CFA_XSP16, literal(-15)))
        CFI (cfiCond268) V0 load(1, XDATA, add(CFA_XSP16, literal(-14)))
        CFI (cfiCond268) V1 load(1, XDATA, add(CFA_XSP16, literal(-13)))
        CFI (cfiCond268) V2 load(1, XDATA, add(CFA_XSP16, literal(-12)))
        CFI (cfiCond268) V3 load(1, XDATA, add(CFA_XSP16, literal(-11)))
        CFI (cfiCond268) V4 load(1, XDATA, add(CFA_XSP16, literal(-10)))
        CFI (cfiCond268) V5 load(1, XDATA, add(CFA_XSP16, literal(-9)))
        CFI (cfiCond268) V6 load(1, XDATA, add(CFA_XSP16, literal(-8)))
        CFI (cfiCond268) V7 load(1, XDATA, add(CFA_XSP16, literal(-7)))
        CFI (cfiCond268) R7 load(1, XDATA, add(CFA_XSP16, literal(-6)))
        CFI (cfiCond268) ?RET_LOW load(1, XDATA, add(CFA_XSP16, literal(-5)))
        CFI (cfiCond268) ?RET_HIGH load(1, XDATA, add(CFA_XSP16, literal(-4)))
        CFI (cfiCond268) ?BRET_EXT load(1, XDATA, add(CFA_XSP16, literal(-3)))
        CFI (cfiCond268) DPL0 load(1, XDATA, add(CFA_XSP16, literal(-2)))
        CFI (cfiCond268) DPH0 load(1, XDATA, add(CFA_XSP16, literal(-1)))
        CFI (cfiCond268) CFA_SP SP+0
        CFI (cfiCond268) CFA_XSP16 add(XSP16, 16)
        CFI Block cfiCond269 Using cfiCommon0
        CFI (cfiCond269) NoFunction
        CFI (cfiCond269) Conditional ??CrossCallReturnLabel_137
        CFI (cfiCond269) R6 load(1, XDATA, add(CFA_XSP16, literal(-10)))
        CFI (cfiCond269) VB load(1, XDATA, add(CFA_XSP16, literal(-9)))
        CFI (cfiCond269) V0 load(1, XDATA, add(CFA_XSP16, literal(-8)))
        CFI (cfiCond269) V1 load(1, XDATA, add(CFA_XSP16, literal(-7)))
        CFI (cfiCond269) R7 load(1, XDATA, add(CFA_XSP16, literal(-6)))
        CFI (cfiCond269) ?RET_LOW load(1, XDATA, add(CFA_XSP16, literal(-5)))
        CFI (cfiCond269) ?RET_HIGH load(1, XDATA, add(CFA_XSP16, literal(-4)))
        CFI (cfiCond269) ?BRET_EXT load(1, XDATA, add(CFA_XSP16, literal(-3)))
        CFI (cfiCond269) DPL0 load(1, XDATA, add(CFA_XSP16, literal(-2)))
        CFI (cfiCond269) DPH0 load(1, XDATA, add(CFA_XSP16, literal(-1)))
        CFI (cfiCond269) CFA_SP SP+0
        CFI (cfiCond269) CFA_XSP16 add(XSP16, 10)
        CFI Block cfiPicker270 Using cfiCommon1
        CFI (cfiPicker270) NoFunction
        CFI (cfiPicker270) Picker
        MOV     DPL,R6
        MOV     DPH,R7
        CFI EndBlock cfiCond267
        CFI EndBlock cfiCond268
        CFI EndBlock cfiCond269
        CFI EndBlock cfiPicker270
        REQUIRE ??Subroutine63_0
        ; // Fall through to label ??Subroutine63_0

        RSEG BANKED_CODE:CODE:NOROOT(0)
??Subroutine63_0:
        CFI Block cfiCond271 Using cfiCommon0
        CFI NoFunction
        CFI Conditional ??CrossCallReturnLabel_133
        CFI R6 load(1, XDATA, add(CFA_XSP16, literal(-16)))
        CFI VB load(1, XDATA, add(CFA_XSP16, literal(-15)))
        CFI V0 load(1, XDATA, add(CFA_XSP16, literal(-14)))
        CFI V1 load(1, XDATA, add(CFA_XSP16, literal(-13)))
        CFI V2 load(1, XDATA, add(CFA_XSP16, literal(-12)))
        CFI V3 load(1, XDATA, add(CFA_XSP16, literal(-11)))
        CFI V4 load(1, XDATA, add(CFA_XSP16, literal(-10)))
        CFI V5 load(1, XDATA, add(CFA_XSP16, literal(-9)))
        CFI V6 load(1, XDATA, add(CFA_XSP16, literal(-8)))
        CFI V7 load(1, XDATA, add(CFA_XSP16, literal(-7)))
        CFI R7 load(1, XDATA, add(CFA_XSP16, literal(-6)))
        CFI ?RET_LOW load(1, XDATA, add(CFA_XSP16, literal(-5)))
        CFI ?RET_HIGH load(1, XDATA, add(CFA_XSP16, literal(-4)))
        CFI ?BRET_EXT load(1, XDATA, add(CFA_XSP16, literal(-3)))
        CFI DPL0 load(1, XDATA, add(CFA_XSP16, literal(-2)))
        CFI DPH0 load(1, XDATA, add(CFA_XSP16, literal(-1)))
        CFI CFA_SP SP+0
        CFI CFA_XSP16 add(XSP16, 16)
        CFI Block cfiCond272 Using cfiCommon0
        CFI (cfiCond272) NoFunction
        CFI (cfiCond272) Conditional ??CrossCallReturnLabel_134
        CFI (cfiCond272) R6 load(1, XDATA, add(CFA_XSP16, literal(-10)))
        CFI (cfiCond272) VB load(1, XDATA, add(CFA_XSP16, literal(-9)))
        CFI (cfiCond272) V0 load(1, XDATA, add(CFA_XSP16, literal(-8)))
        CFI (cfiCond272) V1 load(1, XDATA, add(CFA_XSP16, literal(-7)))
        CFI (cfiCond272) R7 load(1, XDATA, add(CFA_XSP16, literal(-6)))
        CFI (cfiCond272) ?RET_LOW load(1, XDATA, add(CFA_XSP16, literal(-5)))
        CFI (cfiCond272) ?RET_HIGH load(1, XDATA, add(CFA_XSP16, literal(-4)))
        CFI (cfiCond272) ?BRET_EXT load(1, XDATA, add(CFA_XSP16, literal(-3)))
        CFI (cfiCond272) DPL0 load(1, XDATA, add(CFA_XSP16, literal(-2)))
        CFI (cfiCond272) DPH0 load(1, XDATA, add(CFA_XSP16, literal(-1)))
        CFI (cfiCond272) CFA_SP SP+0
        CFI (cfiCond272) CFA_XSP16 add(XSP16, 10)
        CFI Block cfiCond273 Using cfiCommon0
        CFI (cfiCond273) NoFunction
        CFI (cfiCond273) Conditional ??CrossCallReturnLabel_135
        CFI (cfiCond273) R6 load(1, XDATA, add(CFA_XSP16, literal(-16)))
        CFI (cfiCond273) VB load(1, XDATA, add(CFA_XSP16, literal(-15)))
        CFI (cfiCond273) V0 load(1, XDATA, add(CFA_XSP16, literal(-14)))
        CFI (cfiCond273) V1 load(1, XDATA, add(CFA_XSP16, literal(-13)))
        CFI (cfiCond273) V2 load(1, XDATA, add(CFA_XSP16, literal(-12)))
        CFI (cfiCond273) V3 load(1, XDATA, add(CFA_XSP16, literal(-11)))
        CFI (cfiCond273) V4 load(1, XDATA, add(CFA_XSP16, literal(-10)))
        CFI (cfiCond273) V5 load(1, XDATA, add(CFA_XSP16, literal(-9)))
        CFI (cfiCond273) V6 load(1, XDATA, add(CFA_XSP16, literal(-8)))
        CFI (cfiCond273) V7 load(1, XDATA, add(CFA_XSP16, literal(-7)))
        CFI (cfiCond273) R7 load(1, XDATA, add(CFA_XSP16, literal(-6)))
        CFI (cfiCond273) ?RET_LOW load(1, XDATA, add(CFA_XSP16, literal(-5)))
        CFI (cfiCond273) ?RET_HIGH load(1, XDATA, add(CFA_XSP16, literal(-4)))
        CFI (cfiCond273) ?BRET_EXT load(1, XDATA, add(CFA_XSP16, literal(-3)))
        CFI (cfiCond273) DPL0 load(1, XDATA, add(CFA_XSP16, literal(-2)))
        CFI (cfiCond273) DPH0 load(1, XDATA, add(CFA_XSP16, literal(-1)))
        CFI (cfiCond273) CFA_SP SP+0
        CFI (cfiCond273) CFA_XSP16 add(XSP16, 16)
        CFI Block cfiCond274 Using cfiCommon0
        CFI (cfiCond274) NoFunction
        CFI (cfiCond274) Conditional ??CrossCallReturnLabel_136
        CFI (cfiCond274) R6 load(1, XDATA, add(CFA_XSP16, literal(-16)))
        CFI (cfiCond274) VB load(1, XDATA, add(CFA_XSP16, literal(-15)))
        CFI (cfiCond274) V0 load(1, XDATA, add(CFA_XSP16, literal(-14)))
        CFI (cfiCond274) V1 load(1, XDATA, add(CFA_XSP16, literal(-13)))
        CFI (cfiCond274) V2 load(1, XDATA, add(CFA_XSP16, literal(-12)))
        CFI (cfiCond274) V3 load(1, XDATA, add(CFA_XSP16, literal(-11)))
        CFI (cfiCond274) V4 load(1, XDATA, add(CFA_XSP16, literal(-10)))
        CFI (cfiCond274) V5 load(1, XDATA, add(CFA_XSP16, literal(-9)))
        CFI (cfiCond274) V6 load(1, XDATA, add(CFA_XSP16, literal(-8)))
        CFI (cfiCond274) V7 load(1, XDATA, add(CFA_XSP16, literal(-7)))
        CFI (cfiCond274) R7 load(1, XDATA, add(CFA_XSP16, literal(-6)))
        CFI (cfiCond274) ?RET_LOW load(1, XDATA, add(CFA_XSP16, literal(-5)))
        CFI (cfiCond274) ?RET_HIGH load(1, XDATA, add(CFA_XSP16, literal(-4)))
        CFI (cfiCond274) ?BRET_EXT load(1, XDATA, add(CFA_XSP16, literal(-3)))
        CFI (cfiCond274) DPL0 load(1, XDATA, add(CFA_XSP16, literal(-2)))
        CFI (cfiCond274) DPH0 load(1, XDATA, add(CFA_XSP16, literal(-1)))
        CFI (cfiCond274) CFA_SP SP+0
        CFI (cfiCond274) CFA_XSP16 add(XSP16, 16)
        CFI Block cfiCond275 Using cfiCommon0
        CFI (cfiCond275) NoFunction
        CFI (cfiCond275) Conditional ??CrossCallReturnLabel_137
        CFI (cfiCond275) R6 load(1, XDATA, add(CFA_XSP16, literal(-10)))
        CFI (cfiCond275) VB load(1, XDATA, add(CFA_XSP16, literal(-9)))
        CFI (cfiCond275) V0 load(1, XDATA, add(CFA_XSP16, literal(-8)))
        CFI (cfiCond275) V1 load(1, XDATA, add(CFA_XSP16, literal(-7)))
        CFI (cfiCond275) R7 load(1, XDATA, add(CFA_XSP16, literal(-6)))
        CFI (cfiCond275) ?RET_LOW load(1, XDATA, add(CFA_XSP16, literal(-5)))
        CFI (cfiCond275) ?RET_HIGH load(1, XDATA, add(CFA_XSP16, literal(-4)))
        CFI (cfiCond275) ?BRET_EXT load(1, XDATA, add(CFA_XSP16, literal(-3)))
        CFI (cfiCond275) DPL0 load(1, XDATA, add(CFA_XSP16, literal(-2)))
        CFI (cfiCond275) DPH0 load(1, XDATA, add(CFA_XSP16, literal(-1)))
        CFI (cfiCond275) CFA_SP SP+0
        CFI (cfiCond275) CFA_XSP16 add(XSP16, 10)
        CFI Block cfiPicker276 Using cfiCommon1
        CFI (cfiPicker276) NoFunction
        CFI (cfiPicker276) Picker
        MOVX    A,@DPTR
        MOV     DPL,R2
        MOV     DPH,R3
        RET
        CFI EndBlock cfiCond271
        CFI EndBlock cfiCond272
        CFI EndBlock cfiCond273
        CFI EndBlock cfiCond274
        CFI EndBlock cfiCond275
        CFI EndBlock cfiPicker276

        RSEG BANKED_CODE:CODE:NOROOT(0)
?Subroutine13:
        CFI Block cfiCond277 Using cfiCommon0
        CFI NoFunction
        CFI Conditional ??CrossCallReturnLabel_17
        CFI R6 load(1, XDATA, add(CFA_XSP16, literal(-12)))
        CFI VB load(1, XDATA, add(CFA_XSP16, literal(-11)))
        CFI V0 load(1, XDATA, add(CFA_XSP16, literal(-10)))
        CFI V1 load(1, XDATA, add(CFA_XSP16, literal(-9)))
        CFI V2 load(1, XDATA, add(CFA_XSP16, literal(-8)))
        CFI V3 load(1, XDATA, add(CFA_XSP16, literal(-7)))
        CFI R7 load(1, XDATA, add(CFA_XSP16, literal(-6)))
        CFI ?RET_LOW load(1, XDATA, add(CFA_XSP16, literal(-5)))
        CFI ?RET_HIGH load(1, XDATA, add(CFA_XSP16, literal(-4)))
        CFI ?BRET_EXT load(1, XDATA, add(CFA_XSP16, literal(-3)))
        CFI DPL0 load(1, XDATA, add(CFA_XSP16, literal(-2)))
        CFI DPH0 load(1, XDATA, add(CFA_XSP16, literal(-1)))
        CFI CFA_SP SP+0
        CFI CFA_XSP16 add(XSP16, 12)
        CFI Block cfiCond278 Using cfiCommon0
        CFI (cfiCond278) NoFunction
        CFI (cfiCond278) Conditional ??CrossCallReturnLabel_18
        CFI (cfiCond278) R6 load(1, XDATA, add(CFA_XSP16, literal(-10)))
        CFI (cfiCond278) VB load(1, XDATA, add(CFA_XSP16, literal(-9)))
        CFI (cfiCond278) V0 load(1, XDATA, add(CFA_XSP16, literal(-8)))
        CFI (cfiCond278) V1 load(1, XDATA, add(CFA_XSP16, literal(-7)))
        CFI (cfiCond278) R7 load(1, XDATA, add(CFA_XSP16, literal(-6)))
        CFI (cfiCond278) ?RET_LOW load(1, XDATA, add(CFA_XSP16, literal(-5)))
        CFI (cfiCond278) ?RET_HIGH load(1, XDATA, add(CFA_XSP16, literal(-4)))
        CFI (cfiCond278) ?BRET_EXT load(1, XDATA, add(CFA_XSP16, literal(-3)))
        CFI (cfiCond278) DPL0 load(1, XDATA, add(CFA_XSP16, literal(-2)))
        CFI (cfiCond278) DPH0 load(1, XDATA, add(CFA_XSP16, literal(-1)))
        CFI (cfiCond278) CFA_SP SP+0
        CFI (cfiCond278) CFA_XSP16 add(XSP16, 10)
        CFI Block cfiCond279 Using cfiCommon0
        CFI (cfiCond279) NoFunction
        CFI (cfiCond279) Conditional ??CrossCallReturnLabel_16
        CFI (cfiCond279) R6 load(1, XDATA, add(CFA_XSP16, literal(-10)))
        CFI (cfiCond279) VB load(1, XDATA, add(CFA_XSP16, literal(-9)))
        CFI (cfiCond279) V0 load(1, XDATA, add(CFA_XSP16, literal(-8)))
        CFI (cfiCond279) V1 load(1, XDATA, add(CFA_XSP16, literal(-7)))
        CFI (cfiCond279) R7 load(1, XDATA, add(CFA_XSP16, literal(-6)))
        CFI (cfiCond279) ?RET_LOW load(1, XDATA, add(CFA_XSP16, literal(-5)))
        CFI (cfiCond279) ?RET_HIGH load(1, XDATA, add(CFA_XSP16, literal(-4)))
        CFI (cfiCond279) ?BRET_EXT load(1, XDATA, add(CFA_XSP16, literal(-3)))
        CFI (cfiCond279) DPL0 load(1, XDATA, add(CFA_XSP16, literal(-2)))
        CFI (cfiCond279) DPH0 load(1, XDATA, add(CFA_XSP16, literal(-1)))
        CFI (cfiCond279) CFA_SP SP+0
        CFI (cfiCond279) CFA_XSP16 add(XSP16, 10)
        CFI Block cfiPicker280 Using cfiCommon1
        CFI (cfiPicker280) NoFunction
        CFI (cfiPicker280) Picker
        LCALL   ?Subroutine43 & 0xFFFF
??CrossCallReturnLabel_74:
        INC     DPTR
        RET
        CFI EndBlock cfiCond277
        CFI EndBlock cfiCond278
        CFI EndBlock cfiCond279
        CFI EndBlock cfiPicker280

        RSEG BANKED_CODE:CODE:NOROOT(0)
?Subroutine43:
        CFI Block cfiCond281 Using cfiCommon0
        CFI NoFunction
        CFI Conditional ??CrossCallReturnLabel_72
        CFI R6 load(1, XDATA, add(CFA_XSP16, literal(-12)))
        CFI VB load(1, XDATA, add(CFA_XSP16, literal(-11)))
        CFI V0 load(1, XDATA, add(CFA_XSP16, literal(-10)))
        CFI V1 load(1, XDATA, add(CFA_XSP16, literal(-9)))
        CFI V2 load(1, XDATA, add(CFA_XSP16, literal(-8)))
        CFI V3 load(1, XDATA, add(CFA_XSP16, literal(-7)))
        CFI R7 load(1, XDATA, add(CFA_XSP16, literal(-6)))
        CFI ?RET_LOW load(1, XDATA, add(CFA_XSP16, literal(-5)))
        CFI ?RET_HIGH load(1, XDATA, add(CFA_XSP16, literal(-4)))
        CFI ?BRET_EXT load(1, XDATA, add(CFA_XSP16, literal(-3)))
        CFI DPL0 load(1, XDATA, add(CFA_XSP16, literal(-2)))
        CFI DPH0 load(1, XDATA, add(CFA_XSP16, literal(-1)))
        CFI CFA_SP SP+0
        CFI CFA_XSP16 add(XSP16, 12)
        CFI Block cfiCond282 Using cfiCommon0
        CFI (cfiCond282) NoFunction
        CFI (cfiCond282) Conditional ??CrossCallReturnLabel_73, ??CrossCallReturnLabel_11
        CFI (cfiCond282) R6 load(1, XDATA, add(CFA_XSP16, literal(-12)))
        CFI (cfiCond282) VB load(1, XDATA, add(CFA_XSP16, literal(-11)))
        CFI (cfiCond282) V0 load(1, XDATA, add(CFA_XSP16, literal(-10)))
        CFI (cfiCond282) V1 load(1, XDATA, add(CFA_XSP16, literal(-9)))
        CFI (cfiCond282) V2 load(1, XDATA, add(CFA_XSP16, literal(-8)))
        CFI (cfiCond282) V3 load(1, XDATA, add(CFA_XSP16, literal(-7)))
        CFI (cfiCond282) R7 load(1, XDATA, add(CFA_XSP16, literal(-6)))
        CFI (cfiCond282) ?RET_LOW load(1, XDATA, add(CFA_XSP16, literal(-5)))
        CFI (cfiCond282) ?RET_HIGH load(1, XDATA, add(CFA_XSP16, literal(-4)))
        CFI (cfiCond282) ?BRET_EXT load(1, XDATA, add(CFA_XSP16, literal(-3)))
        CFI (cfiCond282) DPL0 load(1, XDATA, add(CFA_XSP16, literal(-2)))
        CFI (cfiCond282) DPH0 load(1, XDATA, add(CFA_XSP16, literal(-1)))
        CFI (cfiCond282) CFA_SP SP+0
        CFI (cfiCond282) CFA_XSP16 add(XSP16, 12)
        CFI Block cfiCond283 Using cfiCommon0
        CFI (cfiCond283) NoFunction
        CFI (cfiCond283) Conditional ??CrossCallReturnLabel_73, ??CrossCallReturnLabel_12
        CFI (cfiCond283) R6 load(1, XDATA, add(CFA_XSP16, literal(-12)))
        CFI (cfiCond283) VB load(1, XDATA, add(CFA_XSP16, literal(-11)))
        CFI (cfiCond283) V0 load(1, XDATA, add(CFA_XSP16, literal(-10)))
        CFI (cfiCond283) V1 load(1, XDATA, add(CFA_XSP16, literal(-9)))
        CFI (cfiCond283) V2 load(1, XDATA, add(CFA_XSP16, literal(-8)))
        CFI (cfiCond283) V3 load(1, XDATA, add(CFA_XSP16, literal(-7)))
        CFI (cfiCond283) R7 load(1, XDATA, add(CFA_XSP16, literal(-6)))
        CFI (cfiCond283) ?RET_LOW load(1, XDATA, add(CFA_XSP16, literal(-5)))
        CFI (cfiCond283) ?RET_HIGH load(1, XDATA, add(CFA_XSP16, literal(-4)))
        CFI (cfiCond283) ?BRET_EXT load(1, XDATA, add(CFA_XSP16, literal(-3)))
        CFI (cfiCond283) DPL0 load(1, XDATA, add(CFA_XSP16, literal(-2)))
        CFI (cfiCond283) DPH0 load(1, XDATA, add(CFA_XSP16, literal(-1)))
        CFI (cfiCond283) CFA_SP SP+0
        CFI (cfiCond283) CFA_XSP16 add(XSP16, 12)
        CFI Block cfiCond284 Using cfiCommon0
        CFI (cfiCond284) NoFunction
        CFI (cfiCond284) Conditional ??CrossCallReturnLabel_74, ??CrossCallReturnLabel_17
        CFI (cfiCond284) R6 load(1, XDATA, add(CFA_XSP16, literal(-12)))
        CFI (cfiCond284) VB load(1, XDATA, add(CFA_XSP16, literal(-11)))
        CFI (cfiCond284) V0 load(1, XDATA, add(CFA_XSP16, literal(-10)))
        CFI (cfiCond284) V1 load(1, XDATA, add(CFA_XSP16, literal(-9)))
        CFI (cfiCond284) V2 load(1, XDATA, add(CFA_XSP16, literal(-8)))
        CFI (cfiCond284) V3 load(1, XDATA, add(CFA_XSP16, literal(-7)))
        CFI (cfiCond284) R7 load(1, XDATA, add(CFA_XSP16, literal(-6)))
        CFI (cfiCond284) ?RET_LOW load(1, XDATA, add(CFA_XSP16, literal(-5)))
        CFI (cfiCond284) ?RET_HIGH load(1, XDATA, add(CFA_XSP16, literal(-4)))
        CFI (cfiCond284) ?BRET_EXT load(1, XDATA, add(CFA_XSP16, literal(-3)))
        CFI (cfiCond284) DPL0 load(1, XDATA, add(CFA_XSP16, literal(-2)))
        CFI (cfiCond284) DPH0 load(1, XDATA, add(CFA_XSP16, literal(-1)))
        CFI (cfiCond284) CFA_SP SP+0
        CFI (cfiCond284) CFA_XSP16 add(XSP16, 12)
        CFI Block cfiCond285 Using cfiCommon0
        CFI (cfiCond285) NoFunction
        CFI (cfiCond285) Conditional ??CrossCallReturnLabel_74, ??CrossCallReturnLabel_18
        CFI (cfiCond285) R6 load(1, XDATA, add(CFA_XSP16, literal(-10)))
        CFI (cfiCond285) VB load(1, XDATA, add(CFA_XSP16, literal(-9)))
        CFI (cfiCond285) V0 load(1, XDATA, add(CFA_XSP16, literal(-8)))
        CFI (cfiCond285) V1 load(1, XDATA, add(CFA_XSP16, literal(-7)))
        CFI (cfiCond285) R7 load(1, XDATA, add(CFA_XSP16, literal(-6)))
        CFI (cfiCond285) ?RET_LOW load(1, XDATA, add(CFA_XSP16, literal(-5)))
        CFI (cfiCond285) ?RET_HIGH load(1, XDATA, add(CFA_XSP16, literal(-4)))
        CFI (cfiCond285) ?BRET_EXT load(1, XDATA, add(CFA_XSP16, literal(-3)))
        CFI (cfiCond285) DPL0 load(1, XDATA, add(CFA_XSP16, literal(-2)))
        CFI (cfiCond285) DPH0 load(1, XDATA, add(CFA_XSP16, literal(-1)))
        CFI (cfiCond285) CFA_SP SP+0
        CFI (cfiCond285) CFA_XSP16 add(XSP16, 10)
        CFI Block cfiCond286 Using cfiCommon0
        CFI (cfiCond286) NoFunction
        CFI (cfiCond286) Conditional ??CrossCallReturnLabel_74, ??CrossCallReturnLabel_16
        CFI (cfiCond286) R6 load(1, XDATA, add(CFA_XSP16, literal(-10)))
        CFI (cfiCond286) VB load(1, XDATA, add(CFA_XSP16, literal(-9)))
        CFI (cfiCond286) V0 load(1, XDATA, add(CFA_XSP16, literal(-8)))
        CFI (cfiCond286) V1 load(1, XDATA, add(CFA_XSP16, literal(-7)))
        CFI (cfiCond286) R7 load(1, XDATA, add(CFA_XSP16, literal(-6)))
        CFI (cfiCond286) ?RET_LOW load(1, XDATA, add(CFA_XSP16, literal(-5)))
        CFI (cfiCond286) ?RET_HIGH load(1, XDATA, add(CFA_XSP16, literal(-4)))
        CFI (cfiCond286) ?BRET_EXT load(1, XDATA, add(CFA_XSP16, literal(-3)))
        CFI (cfiCond286) DPL0 load(1, XDATA, add(CFA_XSP16, literal(-2)))
        CFI (cfiCond286) DPH0 load(1, XDATA, add(CFA_XSP16, literal(-1)))
        CFI (cfiCond286) CFA_SP SP+0
        CFI (cfiCond286) CFA_XSP16 add(XSP16, 10)
        CFI Block cfiCond287 Using cfiCommon0
        CFI (cfiCond287) NoFunction
        CFI (cfiCond287) Conditional ??CrossCallReturnLabel_75, ??CrossCallReturnLabel_2
        CFI (cfiCond287) R6 load(1, XDATA, add(CFA_XSP16, literal(-12)))
        CFI (cfiCond287) VB load(1, XDATA, add(CFA_XSP16, literal(-11)))
        CFI (cfiCond287) V0 load(1, XDATA, add(CFA_XSP16, literal(-10)))
        CFI (cfiCond287) V1 load(1, XDATA, add(CFA_XSP16, literal(-9)))
        CFI (cfiCond287) V2 load(1, XDATA, add(CFA_XSP16, literal(-8)))
        CFI (cfiCond287) V3 load(1, XDATA, add(CFA_XSP16, literal(-7)))
        CFI (cfiCond287) R7 load(1, XDATA, add(CFA_XSP16, literal(-6)))
        CFI (cfiCond287) ?RET_LOW load(1, XDATA, add(CFA_XSP16, literal(-5)))
        CFI (cfiCond287) ?RET_HIGH load(1, XDATA, add(CFA_XSP16, literal(-4)))
        CFI (cfiCond287) ?BRET_EXT load(1, XDATA, add(CFA_XSP16, literal(-3)))
        CFI (cfiCond287) DPL0 load(1, XDATA, add(CFA_XSP16, literal(-2)))
        CFI (cfiCond287) DPH0 load(1, XDATA, add(CFA_XSP16, literal(-1)))
        CFI (cfiCond287) CFA_SP SP+0
        CFI (cfiCond287) CFA_XSP16 add(XSP16, 12)
        CFI Block cfiCond288 Using cfiCommon0
        CFI (cfiCond288) NoFunction
        CFI (cfiCond288) Conditional ??CrossCallReturnLabel_75, ??CrossCallReturnLabel_3
        CFI (cfiCond288) R6 load(1, XDATA, add(CFA_XSP16, literal(-12)))
        CFI (cfiCond288) VB load(1, XDATA, add(CFA_XSP16, literal(-11)))
        CFI (cfiCond288) V0 load(1, XDATA, add(CFA_XSP16, literal(-10)))
        CFI (cfiCond288) V1 load(1, XDATA, add(CFA_XSP16, literal(-9)))
        CFI (cfiCond288) V2 load(1, XDATA, add(CFA_XSP16, literal(-8)))
        CFI (cfiCond288) V3 load(1, XDATA, add(CFA_XSP16, literal(-7)))
        CFI (cfiCond288) R7 load(1, XDATA, add(CFA_XSP16, literal(-6)))
        CFI (cfiCond288) ?RET_LOW load(1, XDATA, add(CFA_XSP16, literal(-5)))
        CFI (cfiCond288) ?RET_HIGH load(1, XDATA, add(CFA_XSP16, literal(-4)))
        CFI (cfiCond288) ?BRET_EXT load(1, XDATA, add(CFA_XSP16, literal(-3)))
        CFI (cfiCond288) DPL0 load(1, XDATA, add(CFA_XSP16, literal(-2)))
        CFI (cfiCond288) DPH0 load(1, XDATA, add(CFA_XSP16, literal(-1)))
        CFI (cfiCond288) CFA_SP SP+0
        CFI (cfiCond288) CFA_XSP16 add(XSP16, 12)
        CFI Block cfiCond289 Using cfiCommon0
        CFI (cfiCond289) NoFunction
        CFI (cfiCond289) Conditional ??CrossCallReturnLabel_75, ??CrossCallReturnLabel_4
        CFI (cfiCond289) R6 load(1, XDATA, add(CFA_XSP16, literal(-10)))
        CFI (cfiCond289) VB load(1, XDATA, add(CFA_XSP16, literal(-9)))
        CFI (cfiCond289) V0 load(1, XDATA, add(CFA_XSP16, literal(-8)))
        CFI (cfiCond289) V1 load(1, XDATA, add(CFA_XSP16, literal(-7)))
        CFI (cfiCond289) R7 load(1, XDATA, add(CFA_XSP16, literal(-6)))
        CFI (cfiCond289) ?RET_LOW load(1, XDATA, add(CFA_XSP16, literal(-5)))
        CFI (cfiCond289) ?RET_HIGH load(1, XDATA, add(CFA_XSP16, literal(-4)))
        CFI (cfiCond289) ?BRET_EXT load(1, XDATA, add(CFA_XSP16, literal(-3)))
        CFI (cfiCond289) DPL0 load(1, XDATA, add(CFA_XSP16, literal(-2)))
        CFI (cfiCond289) DPH0 load(1, XDATA, add(CFA_XSP16, literal(-1)))
        CFI (cfiCond289) CFA_SP SP+0
        CFI (cfiCond289) CFA_XSP16 add(XSP16, 10)
        CFI Block cfiPicker290 Using cfiCommon1
        CFI (cfiPicker290) NoFunction
        CFI (cfiPicker290) Picker
        MOVX    @DPTR,A
        MOV     DPL,R6
        MOV     DPH,R7
        RET
        CFI EndBlock cfiCond281
        CFI EndBlock cfiCond282
        CFI EndBlock cfiCond283
        CFI EndBlock cfiCond284
        CFI EndBlock cfiCond285
        CFI EndBlock cfiCond286
        CFI EndBlock cfiCond287
        CFI EndBlock cfiCond288
        CFI EndBlock cfiCond289
        CFI EndBlock cfiPicker290
// 3321 
// 3322 #ifdef ZCL_DISCOVER
// 3323 /*********************************************************************
// 3324  * @fn      zclParseInDiscCmd
// 3325  *
// 3326  * @brief   Parse the "Profile" Discovery Commands
// 3327  *
// 3328  *      NOTE: THIS FUNCTION ALLOCATES THE RETURN BUFFER, SO THE CALLING
// 3329  *            FUNCTION IS RESPONSIBLE TO FREE THE MEMORY.
// 3330  *
// 3331  * @param   pCmd - pointer to incoming data to parse
// 3332  *
// 3333  * @return  pointer to the parsed command structure
// 3334  */
// 3335 void *zclParseInDiscCmd( zclParseCmd_t *pCmd )
// 3336 {
// 3337   zclDiscoverCmd_t *discoverCmd;
// 3338   uint8 *pBuf = pCmd->pData;
// 3339 
// 3340   discoverCmd = (zclDiscoverCmd_t *)osal_mem_alloc( sizeof ( zclDiscoverCmd_t ) );
// 3341   if ( discoverCmd != NULL )
// 3342   {
// 3343     discoverCmd->startAttr = BUILD_UINT16( pBuf[0], pBuf[1] );
// 3344     pBuf += 2;
// 3345     discoverCmd->maxAttrIDs = *pBuf;
// 3346   }
// 3347 
// 3348   return ( (void *)discoverCmd );
// 3349 }
// 3350 
// 3351 /*********************************************************************
// 3352  * @fn      zclParseInDiscRspCmd
// 3353  *
// 3354  * @brief   Parse the "Profile" Discovery Response Commands
// 3355  *
// 3356  *      NOTE: THIS FUNCTION ALLOCATES THE RETURN BUFFER, SO THE CALLING
// 3357  *            FUNCTION IS RESPONSIBLE TO FREE THE MEMORY.
// 3358  *
// 3359  * @param   pCmd - pointer to incoming data to parse
// 3360  *
// 3361  * @return  pointer to the parsed command structure
// 3362  */
// 3363 #define ZCLDISCRSPCMD_DATALEN(a)  ((a)-1) // data len - Discovery Complete
// 3364 static void *zclParseInDiscRspCmd( zclParseCmd_t *pCmd )
// 3365 {
// 3366   zclDiscoverRspCmd_t *discoverRspCmd;
// 3367   uint8 *pBuf = pCmd->pData;
// 3368   uint8 numAttr = ZCLDISCRSPCMD_DATALEN(pCmd->dataLen) / ( 2 + 1 ); // Attr ID + Data Type
// 3369 
// 3370   discoverRspCmd = (zclDiscoverRspCmd_t *)osal_mem_alloc( sizeof ( zclDiscoverRspCmd_t )
// 3371                                                  + ( numAttr * sizeof(zclDiscoverInfo_t) ) );
// 3372   if ( discoverRspCmd != NULL )
// 3373   {
// 3374     discoverRspCmd->discComplete = *pBuf++;
// 3375     discoverRspCmd->numAttr = numAttr;
// 3376 
// 3377     for ( uint8 i = 0; i < numAttr; i++ )
// 3378     {
// 3379       discoverRspCmd->attrList[i].attrID = BUILD_UINT16( pBuf[0], pBuf[1] );
// 3380       pBuf += 2;
// 3381       discoverRspCmd->attrList[i].dataType = *pBuf++;;
// 3382     }
// 3383   }
// 3384 
// 3385   return ( (void *)discoverRspCmd );
// 3386 }
// 3387 #endif // ZCL_DISCOVER
// 3388 
// 3389 #ifdef ZCL_READ
// 3390 /*********************************************************************
// 3391  * @fn      zclProcessInReadCmd
// 3392  *
// 3393  * @brief   Process the "Profile" Read Command
// 3394  *
// 3395  * @param   pInMsg - incoming message to process
// 3396  *
// 3397  * @return  TRUE if command processed. FALSE, otherwise.
// 3398  */
// 3399 static uint8 zclProcessInReadCmd( zclIncoming_t *pInMsg )
// 3400 {
// 3401   zclReadCmd_t *readCmd;
// 3402   zclReadRspCmd_t *readRspCmd;
// 3403   zclAttrRec_t attrRec;
// 3404   uint16 len;
// 3405 
// 3406   readCmd = (zclReadCmd_t *)pInMsg->attrCmd;
// 3407 
// 3408   // calculate the length of the response status record
// 3409   len = sizeof( zclReadRspCmd_t ) + (readCmd->numAttr * sizeof( zclReadRspStatus_t ));
// 3410 
// 3411   readRspCmd = osal_mem_alloc( len );
// 3412   if ( readRspCmd == NULL )
// 3413   {
// 3414     return FALSE; // EMBEDDED RETURN
// 3415   }
// 3416 
// 3417   readRspCmd->numAttr = readCmd->numAttr;
// 3418   for ( uint8 i = 0; i < readCmd->numAttr; i++ )
// 3419   {
// 3420     zclReadRspStatus_t *statusRec = &(readRspCmd->attrList[i]);
// 3421 
// 3422     statusRec->attrID = readCmd->attrID[i];
// 3423 
// 3424     if ( zclFindAttrRec( pInMsg->msg->endPoint, pInMsg->msg->clusterId,
// 3425                          readCmd->attrID[i], &attrRec ) )
// 3426     {
// 3427       if ( zcl_AccessCtrlRead( attrRec.attr.accessControl ) )
// 3428       {
// 3429         statusRec->status = zclAuthorizeRead( pInMsg->msg->endPoint,
// 3430                                               &(pInMsg->msg->srcAddr), &attrRec );
// 3431         if ( statusRec->status == ZCL_STATUS_SUCCESS )
// 3432         {
// 3433           statusRec->data = attrRec.attr.dataPtr;
// 3434           statusRec->dataType = attrRec.attr.dataType;
// 3435         }
// 3436       }
// 3437       else
// 3438       {
// 3439         statusRec->status = ZCL_STATUS_WRITE_ONLY;
// 3440       }
// 3441     }
// 3442     else
// 3443     {
// 3444       statusRec->status = ZCL_STATUS_UNSUPPORTED_ATTRIBUTE;
// 3445     }
// 3446   }
// 3447 
// 3448   // Build and send Read Response command
// 3449   zcl_SendReadRsp( pInMsg->msg->endPoint, &(pInMsg->msg->srcAddr), pInMsg->msg->clusterId,
// 3450                    readRspCmd, ZCL_FRAME_SERVER_CLIENT_DIR,
// 3451                    true, pInMsg->hdr.transSeqNum );
// 3452   osal_mem_free( readRspCmd );
// 3453 
// 3454   return TRUE;
// 3455 }
// 3456 #endif // ZCL_READ
// 3457 
// 3458 #ifdef ZCL_WRITE
// 3459 /*********************************************************************
// 3460  * @fn      processInWriteCmd
// 3461  *
// 3462  * @brief   Process the "Profile" Write and Write No Response Commands
// 3463  *
// 3464  * @param   pInMsg - incoming message to process
// 3465  *
// 3466  * @return  TRUE if command processed. FALSE, otherwise.
// 3467  */
// 3468 static uint8 zclProcessInWriteCmd( zclIncoming_t *pInMsg )
// 3469 {
// 3470   zclWriteCmd_t *writeCmd;
// 3471   zclWriteRspCmd_t *writeRspCmd;
// 3472   uint8 sendRsp = FALSE;
// 3473   uint8 j = 0;
// 3474 
// 3475   writeCmd = (zclWriteCmd_t *)pInMsg->attrCmd;
// 3476   if ( pInMsg->hdr.commandID == ZCL_CMD_WRITE )
// 3477   {
// 3478     // We need to send a response back - allocate space for it
// 3479     writeRspCmd = (zclWriteRspCmd_t *)osal_mem_alloc( sizeof( zclWriteRspCmd_t )
// 3480             + sizeof( zclWriteRspStatus_t ) * writeCmd->numAttr );
// 3481     if ( writeRspCmd == NULL )
// 3482     {
// 3483       return FALSE; // EMBEDDED RETURN
// 3484     }
// 3485 
// 3486     sendRsp = TRUE;
// 3487   }
// 3488 
// 3489   for ( uint8 i = 0; i < writeCmd->numAttr; i++ )
// 3490   {
// 3491     zclAttrRec_t attrRec;
// 3492     zclWriteRec_t *statusRec = &(writeCmd->attrList[i]);
// 3493 
// 3494     if ( zclFindAttrRec( pInMsg->msg->endPoint, pInMsg->msg->clusterId,
// 3495                          statusRec->attrID, &attrRec ) )
// 3496     {
// 3497       if ( statusRec->dataType == attrRec.attr.dataType )
// 3498       {
// 3499         uint8 status;
// 3500 
// 3501         // Write the new attribute value
// 3502         if ( attrRec.attr.dataPtr != NULL )
// 3503         {
// 3504           status = zclWriteAttrData( pInMsg->msg->endPoint, &(pInMsg->msg->srcAddr),
// 3505                                      &attrRec, statusRec );
// 3506         }
// 3507         else // Use CB
// 3508         {
// 3509           status = zclWriteAttrDataUsingCB( pInMsg->msg->endPoint, &(pInMsg->msg->srcAddr),
// 3510                                             &attrRec, statusRec->attrData );
// 3511         }
// 3512 
// 3513         // If successful, a write attribute status record shall NOT be generated
// 3514         if ( sendRsp && status != ZCL_STATUS_SUCCESS )
// 3515         {
// 3516           // Attribute is read only - move on to the next write attribute record
// 3517           writeRspCmd->attrList[j].status = status;
// 3518           writeRspCmd->attrList[j++].attrID = statusRec->attrID;
// 3519         }
// 3520       }
// 3521       else
// 3522       {
// 3523         // Attribute data type is incorrect - move on to the next write attribute record
// 3524         if ( sendRsp )
// 3525         {
// 3526           writeRspCmd->attrList[j].status = ZCL_STATUS_INVALID_DATA_TYPE;
// 3527           writeRspCmd->attrList[j++].attrID = statusRec->attrID;
// 3528         }
// 3529       }
// 3530     }
// 3531     else
// 3532     {
// 3533       // Attribute is not supported - move on to the next write attribute record
// 3534       if ( sendRsp )
// 3535       {
// 3536         writeRspCmd->attrList[j].status = ZCL_STATUS_UNSUPPORTED_ATTRIBUTE;
// 3537         writeRspCmd->attrList[j++].attrID = statusRec->attrID;
// 3538       }
// 3539     }
// 3540   } // for loop
// 3541 
// 3542   if ( sendRsp )
// 3543   {
// 3544     writeRspCmd->numAttr = j;
// 3545     if ( writeRspCmd->numAttr == 0 )
// 3546     {
// 3547       // Since all records were written successful, include a single status record
// 3548       // in the resonse command with the status field set to SUCCESS and the
// 3549       // attribute ID field omitted.
// 3550       writeRspCmd->attrList[0].status = ZCL_STATUS_SUCCESS;
// 3551       writeRspCmd->numAttr = 1;
// 3552     }
// 3553 
// 3554     zcl_SendWriteRsp( pInMsg->msg->endPoint, &(pInMsg->msg->srcAddr),
// 3555                       pInMsg->msg->clusterId, writeRspCmd, ZCL_FRAME_SERVER_CLIENT_DIR,
// 3556                       true, pInMsg->hdr.transSeqNum );
// 3557     osal_mem_free( writeRspCmd );
// 3558   }
// 3559 
// 3560   return TRUE;
// 3561 }
// 3562 
// 3563 /*********************************************************************
// 3564  * @fn      zclRevertWriteUndividedCmd
// 3565  *
// 3566  * @brief   Revert the "Profile" Write Undevided Command
// 3567  *
// 3568  * @param   pInMsg - incoming message to process
// 3569  * @param   curWriteRec - old data
// 3570  * @param   numAttr - number of attributes to be reverted
// 3571  *
// 3572  * @return  none
// 3573  */
// 3574 static void zclRevertWriteUndividedCmd( zclIncoming_t *pInMsg,
// 3575                                     zclWriteRec_t *curWriteRec, uint16 numAttr )
// 3576 {
// 3577   for ( uint8 i = 0; i < numAttr; i++ )
// 3578   {
// 3579     zclAttrRec_t attrRec;
// 3580     zclWriteRec_t *statusRec = &(curWriteRec[i]);
// 3581 
// 3582     if ( !zclFindAttrRec( pInMsg->msg->endPoint, pInMsg->msg->clusterId,
// 3583                           statusRec->attrID, &attrRec ) )
// 3584     {
// 3585       break; // should never happen
// 3586     }
// 3587 
// 3588     if ( attrRec.attr.dataPtr != NULL )
// 3589     {
// 3590       // Just copy the old data back - no need to validate the data
// 3591       uint16 dataLen = zclGetAttrDataLength( attrRec.attr.dataType, statusRec->attrData );
// 3592       osal_memcpy( attrRec.attr.dataPtr, statusRec->attrData, dataLen );
// 3593     }
// 3594     else // Use CB
// 3595     {
// 3596       // Write the old data back
// 3597       zclWriteAttrDataUsingCB( pInMsg->msg->endPoint, &(pInMsg->msg->srcAddr),
// 3598                                &attrRec, statusRec->attrData );
// 3599     }
// 3600   } // for loop
// 3601 }
// 3602 
// 3603 /*********************************************************************
// 3604  * @fn      zclProcessInWriteUndividedCmd
// 3605  *
// 3606  * @brief   Process the "Profile" Write Undivided Command
// 3607  *
// 3608  * @param   pInMsg - incoming message to process
// 3609  *
// 3610  * @return  TRUE if command processed. FALSE, otherwise.
// 3611  */
// 3612 static uint8 zclProcessInWriteUndividedCmd( zclIncoming_t *pInMsg )
// 3613 {
// 3614   zclWriteCmd_t *writeCmd;
// 3615   zclWriteRspCmd_t *writeRspCmd;
// 3616   zclAttrRec_t attrRec;
// 3617   uint16 dataLen;
// 3618   uint16 curLen = 0;
// 3619   uint8 j = 0;
// 3620 
// 3621   writeCmd = (zclWriteCmd_t *)pInMsg->attrCmd;
// 3622 
// 3623   // Allocate space for Write Response Command
// 3624   writeRspCmd = (zclWriteRspCmd_t *)osal_mem_alloc( sizeof( zclWriteRspCmd_t )
// 3625                    + sizeof( zclWriteRspStatus_t )* writeCmd->numAttr );
// 3626   if ( writeRspCmd == NULL )
// 3627   {
// 3628     return FALSE; // EMBEDDED RETURN
// 3629   }
// 3630 
// 3631   // If any attribute cannot be written, no attribute values are changed. Hence,
// 3632   // make sure all the attributes are supported and writable
// 3633   for ( uint8 i = 0; i < writeCmd->numAttr; i++ )
// 3634   {
// 3635     zclWriteRec_t *statusRec = &(writeCmd->attrList[i]);
// 3636 
// 3637     if ( !zclFindAttrRec( pInMsg->msg->endPoint, pInMsg->msg->clusterId,
// 3638                           statusRec->attrID, &attrRec ) )
// 3639     {
// 3640       // Attribute is not supported - stop here
// 3641       writeRspCmd->attrList[j].status = ZCL_STATUS_UNSUPPORTED_ATTRIBUTE;
// 3642       writeRspCmd->attrList[j++].attrID = statusRec->attrID;
// 3643       break;
// 3644     }
// 3645 
// 3646     if ( statusRec->dataType != attrRec.attr.dataType )
// 3647     {
// 3648       // Attribute data type is incorrect - stope here
// 3649       writeRspCmd->attrList[j].status = ZCL_STATUS_INVALID_DATA_TYPE;
// 3650       writeRspCmd->attrList[j++].attrID = statusRec->attrID;
// 3651       break;
// 3652     }
// 3653 
// 3654     if ( !zcl_AccessCtrlWrite( attrRec.attr.accessControl ) )
// 3655     {
// 3656       // Attribute is not writable - stop here
// 3657       writeRspCmd->attrList[j].status = ZCL_STATUS_READ_ONLY;
// 3658       writeRspCmd->attrList[j++].attrID = statusRec->attrID;
// 3659       break;
// 3660     }
// 3661 
// 3662     if ( zcl_AccessCtrlAuthWrite( attrRec.attr.accessControl ) )
// 3663     {
// 3664       // Not authorized to write - stop here
// 3665       writeRspCmd->attrList[j].status = ZCL_STATUS_NOT_AUTHORIZED;
// 3666       writeRspCmd->attrList[j++].attrID = statusRec->attrID;
// 3667       break;
// 3668     }
// 3669 
// 3670     // Attribute Data length
// 3671     if ( attrRec.attr.dataPtr != NULL )
// 3672     {
// 3673       dataLen = zclGetAttrDataLength( attrRec.attr.dataType, attrRec.attr.dataPtr );
// 3674     }
// 3675     else // Use CB
// 3676     {
// 3677       dataLen = zclGetAttrDataLengthUsingCB( pInMsg->msg->endPoint, pInMsg->msg->clusterId,
// 3678                                              statusRec->attrID );
// 3679     }
// 3680 
// 3681     // add padding if needed
// 3682     if ( PADDING_NEEDED( dataLen ) )
// 3683     {
// 3684       dataLen++;
// 3685     }
// 3686 
// 3687     curLen += dataLen;
// 3688   } // for loop
// 3689 
// 3690   writeRspCmd->numAttr = j;
// 3691   if ( writeRspCmd->numAttr == 0 ) // All attributes can be written
// 3692   {
// 3693     uint8 *curDataPtr;
// 3694     zclWriteRec_t *curWriteRec;
// 3695 
// 3696     // calculate the length of the current data header
// 3697     uint8 hdrLen = j * sizeof( zclWriteRec_t );
// 3698 
// 3699     // Allocate space to keep a copy of the current data
// 3700     curWriteRec = (zclWriteRec_t *) osal_mem_alloc( hdrLen + curLen );
// 3701     if ( curWriteRec == NULL )
// 3702     {
// 3703       osal_mem_free(writeRspCmd );
// 3704       return FALSE; // EMBEDDED RETURN
// 3705     }
// 3706 
// 3707     curDataPtr = (uint8 *)((uint8 *)curWriteRec + hdrLen);
// 3708 
// 3709     // Write the new data over
// 3710     for ( uint8 i = 0; i < writeCmd->numAttr; i++ )
// 3711     {
// 3712       uint8 status;
// 3713       zclWriteRec_t *statusRec = &(writeCmd->attrList[i]);
// 3714       zclWriteRec_t *curStatusRec = &(curWriteRec[i]);
// 3715 
// 3716       if ( !zclFindAttrRec( pInMsg->msg->endPoint, pInMsg->msg->clusterId,
// 3717                             statusRec->attrID, &attrRec ) )
// 3718       {
// 3719         break; // should never happen
// 3720       }
// 3721 
// 3722       // Keep a copy of the current data before before writing the new data over
// 3723       curStatusRec->attrID = statusRec->attrID;
// 3724       curStatusRec->attrData = curDataPtr;
// 3725 
// 3726       if ( attrRec.attr.dataPtr != NULL )
// 3727       {
// 3728         // Read the current value
// 3729         zclReadAttrData( curDataPtr, &attrRec, &dataLen );
// 3730 
// 3731         // Write the new attribute value
// 3732         status = zclWriteAttrData( pInMsg->msg->endPoint, &(pInMsg->msg->srcAddr),
// 3733                                    &attrRec, statusRec );
// 3734       }
// 3735       else // Use CBs
// 3736       {
// 3737         // Read the current value
// 3738         zclReadAttrDataUsingCB( pInMsg->msg->endPoint, pInMsg->msg->clusterId,
// 3739                                 statusRec->attrID, curDataPtr, &dataLen );
// 3740         // Write the new attribute value
// 3741         status = zclWriteAttrDataUsingCB( pInMsg->msg->endPoint, &(pInMsg->msg->srcAddr),
// 3742                                           &attrRec, statusRec->attrData );
// 3743       }
// 3744 
// 3745       // If successful, a write attribute status record shall NOT be generated
// 3746       if ( status != ZCL_STATUS_SUCCESS )
// 3747       {
// 3748         writeRspCmd->attrList[j].status = status;
// 3749         writeRspCmd->attrList[j++].attrID = statusRec->attrID;
// 3750 
// 3751         // Since this write failed, we need to revert all the pervious writes
// 3752         zclRevertWriteUndividedCmd( pInMsg, curWriteRec, i);
// 3753         break;
// 3754       }
// 3755 
// 3756       // add padding if needed
// 3757       if ( PADDING_NEEDED( dataLen ) )
// 3758       {
// 3759         dataLen++;
// 3760       }
// 3761 
// 3762       curDataPtr += dataLen;
// 3763     } // for loop
// 3764 
// 3765     writeRspCmd->numAttr = j;
// 3766     if ( writeRspCmd->numAttr  == 0 )
// 3767     {
// 3768       // Since all records were written successful, include a single status record
// 3769       // in the resonse command with the status field set to SUCCESS and the
// 3770       // attribute ID field omitted.
// 3771       writeRspCmd->attrList[0].status = ZCL_STATUS_SUCCESS;
// 3772       writeRspCmd->numAttr = 1;
// 3773     }
// 3774 
// 3775     osal_mem_free( curWriteRec );
// 3776   }
// 3777 
// 3778   zcl_SendWriteRsp( pInMsg->msg->endPoint, &(pInMsg->msg->srcAddr),
// 3779                     pInMsg->msg->clusterId, writeRspCmd, ZCL_FRAME_SERVER_CLIENT_DIR,
// 3780                     true, pInMsg->hdr.transSeqNum );
// 3781   osal_mem_free( writeRspCmd );
// 3782 
// 3783   return TRUE;
// 3784 }
// 3785 #endif // ZCL_WRITE
// 3786 
// 3787 #ifdef ZCL_DISCOVER
// 3788 /*********************************************************************
// 3789  * @fn      zclProcessInDiscCmd
// 3790  *
// 3791  * @brief   Process the "Profile" Discover Command
// 3792  *
// 3793  * @param   pInMsg - incoming message to process
// 3794  *
// 3795  * @return  TRUE if command processed. FALSE, otherwise.
// 3796  */
// 3797 static uint8 zclProcessInDiscCmd( zclIncoming_t *pInMsg )
// 3798 {
// 3799   zclDiscoverCmd_t *discoverCmd;
// 3800   zclDiscoverRspCmd_t *discoverRspCmd;
// 3801   uint8 discComplete = TRUE;
// 3802   zclAttrRec_t attrRec;
// 3803   uint16 attrID;
// 3804   uint8 i;
// 3805 
// 3806   discoverCmd = (zclDiscoverCmd_t *)pInMsg->attrCmd;
// 3807 
// 3808   // Find out the number of attributes supported within the specified range
// 3809   for ( i = 0, attrID = discoverCmd->startAttr; i < discoverCmd->maxAttrIDs; i++, attrID++ )
// 3810   {
// 3811     if ( !zclFindNextAttrRec( pInMsg->msg->endPoint, pInMsg->msg->clusterId, &attrID, &attrRec ) )
// 3812     {
// 3813       break;
// 3814     }
// 3815   }
// 3816 
// 3817   // Allocate space for the response command
// 3818   discoverRspCmd = (zclDiscoverRspCmd_t *)osal_mem_alloc( sizeof (zclDiscoverRspCmd_t)
// 3819                                                          + sizeof ( zclDiscoverInfo_t ) * i );
// 3820   if ( discoverRspCmd == NULL )
// 3821   {
// 3822     return FALSE; // EMEDDED RETURN
// 3823   }
// 3824 
// 3825   discoverRspCmd->numAttr = i;
// 3826   if ( discoverRspCmd->numAttr != 0 )
// 3827   {
// 3828     for ( i = 0, attrID = discoverCmd->startAttr; i < discoverRspCmd->numAttr; i++, attrID++ )
// 3829     {
// 3830       if ( !zclFindNextAttrRec( pInMsg->msg->endPoint, pInMsg->msg->clusterId, &attrID, &attrRec ) )
// 3831       {
// 3832         break; // Attribute not supported
// 3833       }
// 3834 
// 3835       discoverRspCmd->attrList[i].attrID = attrRec.attr.attrId;
// 3836       discoverRspCmd->attrList[i].dataType = attrRec.attr.dataType;
// 3837     }
// 3838 
// 3839     // Are there more attributes to be discovered?
// 3840     if ( zclFindNextAttrRec( pInMsg->msg->endPoint, pInMsg->msg->clusterId, &attrID, &attrRec ) )
// 3841     {
// 3842       discComplete = FALSE;
// 3843     }
// 3844   }
// 3845 
// 3846   discoverRspCmd->discComplete = discComplete;
// 3847   zcl_SendDiscoverRspCmd( pInMsg->msg->endPoint, &pInMsg->msg->srcAddr,
// 3848                           pInMsg->msg->clusterId, discoverRspCmd, ZCL_FRAME_SERVER_CLIENT_DIR,
// 3849                           true, pInMsg->hdr.transSeqNum );
// 3850   osal_mem_free( discoverRspCmd );
// 3851 
// 3852   return TRUE;
// 3853 }
// 3854 #endif // ZCL_DISCOVER
// 3855 
// 3856 /*********************************************************************
// 3857  * @fn      zclSendMsg
// 3858  *
// 3859  * @brief   Send an incoming message to the Application
// 3860  *
// 3861  * @param   pInMsg - incoming message to process
// 3862  *
// 3863  * @return  TRUE
// 3864  */

        RSEG BANKED_CODE:CODE:NOROOT(0)
// 3865 static uint8 zclSendMsg( zclIncoming_t *pInMsg )
zclSendMsg:
        CFI Block cfiBlock291 Using cfiCommon0
        CFI Function zclSendMsg
        CODE
// 3866 {
        FUNCALL zclSendMsg, osal_msg_allocate
        LOCFRAME ISTACK, 0, STACK
        LOCFRAME PSTACK, 0, STACK
        LOCFRAME XSTACK, 10, STACK
        LOCFRAME IOVERLAY, 0, STATIC
        LOCFRAME DOVERLAY, 0, STATIC
        ARGFRAME ISTACK, 0, STACK
        ARGFRAME PSTACK, 0, STACK
        ARGFRAME XSTACK, 10, STACK
        ARGFRAME IOVERLAY, 0, STATIC
        ARGFRAME DOVERLAY, 0, STATIC
        FUNCALL zclSendMsg, osal_msg_send
        LOCFRAME ISTACK, 0, STACK
        LOCFRAME PSTACK, 0, STACK
        LOCFRAME XSTACK, 10, STACK
        LOCFRAME IOVERLAY, 0, STATIC
        LOCFRAME DOVERLAY, 0, STATIC
        ARGFRAME ISTACK, 0, STACK
        ARGFRAME PSTACK, 0, STACK
        ARGFRAME XSTACK, 10, STACK
        ARGFRAME IOVERLAY, 0, STATIC
        ARGFRAME DOVERLAY, 0, STATIC
        MOV     A,#-0xa
        LCALL   ?BANKED_ENTER_XDATA
        CFI DPH0 load(1, XDATA, add(CFA_XSP16, literal(-1)))
        CFI DPL0 load(1, XDATA, add(CFA_XSP16, literal(-2)))
        CFI ?BRET_EXT load(1, XDATA, add(CFA_XSP16, literal(-3)))
        CFI ?RET_HIGH load(1, XDATA, add(CFA_XSP16, literal(-4)))
        CFI ?RET_LOW load(1, XDATA, add(CFA_XSP16, literal(-5)))
        CFI R7 load(1, XDATA, add(CFA_XSP16, literal(-6)))
        CFI V1 load(1, XDATA, add(CFA_XSP16, literal(-7)))
        CFI V0 load(1, XDATA, add(CFA_XSP16, literal(-8)))
        CFI VB load(1, XDATA, add(CFA_XSP16, literal(-9)))
        CFI R6 load(1, XDATA, add(CFA_XSP16, literal(-10)))
        CFI CFA_SP SP+0
        CFI CFA_XSP16 add(XSP16, 10)
        ; Saved register size: 10
        ; Auto size: 0
        MOV     A,R2
        MOV     R6,A
        MOV     A,R3
        MOV     R7,A
// 3867   zclIncomingMsg_t *pCmd;
// 3868 
// 3869   if ( zcl_RegisteredMsgTaskID == TASK_NO_TASK )
        MOV     DPTR,#zcl_RegisteredMsgTaskID
        MOVX    A,@DPTR
        CPL     A
        JNZ     ??zclSendMsg_0
// 3870   {
// 3871     return ( TRUE );
??zclSendMsg_1:
        MOV     R1,#0x1
        LJMP    ?Subroutine4 & 0xFFFF
// 3872   }
// 3873 
// 3874   pCmd = (zclIncomingMsg_t *)osal_msg_allocate( sizeof ( zclIncomingMsg_t ) );
??zclSendMsg_0:
        ; Setup parameters for call to function osal_msg_allocate
        MOV     R2,#0x19
        MOV     R3,#0x0
        LCALL   ??osal_msg_allocate?relay
// 3875   if ( pCmd != NULL )
        MOV     A,R2
        ORL     A,R3
        JZ      ??zclSendMsg_1
// 3876   {
// 3877     // fill in the message
// 3878     pCmd->hdr.event = ZCL_INCOMING_MSG;
        MOV     DPL,R2
        MOV     DPH,R3
        MOV     A,#0x34
        LCALL   ?Subroutine13 & 0xFFFF
// 3879     pCmd->zclHdr    = pInMsg->hdr;
??CrossCallReturnLabel_16:
        INC     DPTR
        MOV     A,R2
        ADD     A,#0x2
        MOV     R4,A
        MOV     A,R3
        ADDC    A,#0x0
        MOV     R5,A
        MOV     A,#0x6
        LCALL   ?MOVE_LONG8_XDATA_XDATA
// 3880     pCmd->clusterId = pInMsg->msg->clusterId;
        MOV     DPL,R6
        MOV     DPH,R7
        MOVX    A,@DPTR
        LCALL   ?Subroutine33 & 0xFFFF
??CrossCallReturnLabel_54:
        LCALL   ?Subroutine28 & 0xFFFF
??CrossCallReturnLabel_47:
        MOV     DPL,R2
        MOV     DPH,R3
        INC     DPTR
        INC     DPTR
        INC     DPTR
        INC     DPTR
        INC     DPTR
        INC     DPTR
        INC     DPTR
        INC     DPTR
        MOV     A,R0
        LCALL   ?Subroutine6 & 0xFFFF
// 3881     pCmd->srcAddr   = pInMsg->msg->srcAddr;
??CrossCallReturnLabel_4:
        LCALL   ?Subroutine33 & 0xFFFF
??CrossCallReturnLabel_55:
        INC     DPTR
        INC     DPTR
        MOV     A,R2
        ADD     A,#0xa
        MOV     R4,A
        MOV     A,R3
        ADDC    A,#0x0
        MOV     R5,A
        MOV     A,#0xc
        LCALL   ?MOVE_LONG8_XDATA_XDATA
// 3882     pCmd->endPoint  = pInMsg->msg->endPoint;
        MOV     DPL,R6
        MOV     DPH,R7
        MOVX    A,@DPTR
        ADD     A,#0x14
        LCALL   ??Subroutine57_0 & 0xFFFF
??CrossCallReturnLabel_101:
        PUSH    A
        CFI CFA_SP SP+-1
        MOV     A,R2
        ADD     A,#0x16
        MOV     DPL,A
        MOV     A,R3
        LCALL   ??Subroutine56_0 & 0xFFFF
??CrossCallReturnLabel_95:
        POP     A
        CFI CFA_SP SP+0
        MOVX    @DPTR,A
// 3883     pCmd->attrCmd   = pInMsg->attrCmd;
        MOV     A,R6
        ADD     A,#0xc
        MOV     R0,A
        MOV     A,R7
        LCALL   ?Subroutine51 & 0xFFFF
??CrossCallReturnLabel_107:
        LCALL   ??Subroutine64_0 & 0xFFFF
??CrossCallReturnLabel_139:
        MOV     A,R2
        ADD     A,#0x17
        MOV     DPL,A
        MOV     A,R3
        LCALL   ??Subroutine56_0 & 0xFFFF
??CrossCallReturnLabel_96:
        MOV     A,R4
        MOVX    @DPTR,A
        INC     DPTR
        MOV     A,R5
        MOVX    @DPTR,A
// 3884 
// 3885     // Application will free the attrCmd buffer
// 3886     pInMsg->attrCmd = NULL;
        MOV     DPL,R0
        MOV     DPH,R1
        CLR     A
        MOVX    @DPTR,A
        INC     DPTR
        MOVX    @DPTR,A
// 3887 
// 3888     /* send message through task message */
// 3889     osal_msg_send( zcl_RegisteredMsgTaskID, (uint8 *)pCmd );
        ; Setup parameters for call to function osal_msg_send
        MOV     DPTR,#zcl_RegisteredMsgTaskID
        MOVX    A,@DPTR
        MOV     R1,A
        LCALL   ??osal_msg_send?relay
        LJMP    ??zclSendMsg_1 & 0xFFFF
        CFI EndBlock cfiBlock291
// 3890   }
// 3891 
// 3892   return ( TRUE );
// 3893 }

        RSEG BANKED_CODE:CODE:NOROOT(0)
?Subroutine46:
        CFI Block cfiCond292 Using cfiCommon0
        CFI NoFunction
        CFI Conditional ??CrossCallReturnLabel_141
        CFI R6 load(1, XDATA, add(CFA_XSP16, literal(-12)))
        CFI VB load(1, XDATA, add(CFA_XSP16, literal(-11)))
        CFI V0 load(1, XDATA, add(CFA_XSP16, literal(-10)))
        CFI V1 load(1, XDATA, add(CFA_XSP16, literal(-9)))
        CFI V2 load(1, XDATA, add(CFA_XSP16, literal(-8)))
        CFI V3 load(1, XDATA, add(CFA_XSP16, literal(-7)))
        CFI R7 load(1, XDATA, add(CFA_XSP16, literal(-6)))
        CFI ?RET_LOW load(1, XDATA, add(CFA_XSP16, literal(-5)))
        CFI ?RET_HIGH load(1, XDATA, add(CFA_XSP16, literal(-4)))
        CFI ?BRET_EXT load(1, XDATA, add(CFA_XSP16, literal(-3)))
        CFI DPL0 load(1, XDATA, add(CFA_XSP16, literal(-2)))
        CFI DPH0 load(1, XDATA, add(CFA_XSP16, literal(-1)))
        CFI CFA_SP SP+0
        CFI CFA_XSP16 add(XSP16, 33)
        CFI Block cfiCond293 Using cfiCommon0
        CFI (cfiCond293) NoFunction
        CFI (cfiCond293) Conditional ??CrossCallReturnLabel_142, ??CrossCallReturnLabel_35
        CFI (cfiCond293) R6 load(1, XDATA, add(CFA_XSP16, literal(-12)))
        CFI (cfiCond293) VB load(1, XDATA, add(CFA_XSP16, literal(-11)))
        CFI (cfiCond293) V0 load(1, XDATA, add(CFA_XSP16, literal(-10)))
        CFI (cfiCond293) V1 load(1, XDATA, add(CFA_XSP16, literal(-9)))
        CFI (cfiCond293) V2 load(1, XDATA, add(CFA_XSP16, literal(-8)))
        CFI (cfiCond293) V3 load(1, XDATA, add(CFA_XSP16, literal(-7)))
        CFI (cfiCond293) R7 load(1, XDATA, add(CFA_XSP16, literal(-6)))
        CFI (cfiCond293) ?RET_LOW load(1, XDATA, add(CFA_XSP16, literal(-5)))
        CFI (cfiCond293) ?RET_HIGH load(1, XDATA, add(CFA_XSP16, literal(-4)))
        CFI (cfiCond293) ?BRET_EXT load(1, XDATA, add(CFA_XSP16, literal(-3)))
        CFI (cfiCond293) DPL0 load(1, XDATA, add(CFA_XSP16, literal(-2)))
        CFI (cfiCond293) DPH0 load(1, XDATA, add(CFA_XSP16, literal(-1)))
        CFI (cfiCond293) CFA_SP SP+0
        CFI (cfiCond293) CFA_XSP16 add(XSP16, 40)
        CFI Block cfiCond294 Using cfiCommon0
        CFI (cfiCond294) NoFunction
        CFI (cfiCond294) Conditional ??CrossCallReturnLabel_142, ??CrossCallReturnLabel_36
        CFI (cfiCond294) R6 load(1, XDATA, add(CFA_XSP16, literal(-12)))
        CFI (cfiCond294) VB load(1, XDATA, add(CFA_XSP16, literal(-11)))
        CFI (cfiCond294) V0 load(1, XDATA, add(CFA_XSP16, literal(-10)))
        CFI (cfiCond294) V1 load(1, XDATA, add(CFA_XSP16, literal(-9)))
        CFI (cfiCond294) V2 load(1, XDATA, add(CFA_XSP16, literal(-8)))
        CFI (cfiCond294) V3 load(1, XDATA, add(CFA_XSP16, literal(-7)))
        CFI (cfiCond294) R7 load(1, XDATA, add(CFA_XSP16, literal(-6)))
        CFI (cfiCond294) ?RET_LOW load(1, XDATA, add(CFA_XSP16, literal(-5)))
        CFI (cfiCond294) ?RET_HIGH load(1, XDATA, add(CFA_XSP16, literal(-4)))
        CFI (cfiCond294) ?BRET_EXT load(1, XDATA, add(CFA_XSP16, literal(-3)))
        CFI (cfiCond294) DPL0 load(1, XDATA, add(CFA_XSP16, literal(-2)))
        CFI (cfiCond294) DPH0 load(1, XDATA, add(CFA_XSP16, literal(-1)))
        CFI (cfiCond294) CFA_SP SP+0
        CFI (cfiCond294) CFA_XSP16 add(XSP16, 40)
        CFI Block cfiPicker295 Using cfiCommon1
        CFI (cfiPicker295) NoFunction
        CFI (cfiPicker295) Picker
        INC     DPTR
        INC     DPTR
        CFI EndBlock cfiCond292
        CFI EndBlock cfiCond293
        CFI EndBlock cfiCond294
        CFI EndBlock cfiPicker295
        REQUIRE ??Subroutine64_0
        ; // Fall through to label ??Subroutine64_0

        RSEG BANKED_CODE:CODE:NOROOT(0)
??Subroutine64_0:
        CFI Block cfiCond296 Using cfiCommon0
        CFI NoFunction
        CFI Conditional ??CrossCallReturnLabel_140, ??CrossCallReturnLabel_19
        CFI R6 load(1, XDATA, add(CFA_XSP16, literal(-14)))
        CFI VB load(1, XDATA, add(CFA_XSP16, literal(-13)))
        CFI V0 load(1, XDATA, add(CFA_XSP16, literal(-12)))
        CFI V1 load(1, XDATA, add(CFA_XSP16, literal(-11)))
        CFI V2 load(1, XDATA, add(CFA_XSP16, literal(-10)))
        CFI V3 load(1, XDATA, add(CFA_XSP16, literal(-9)))
        CFI V4 load(1, XDATA, add(CFA_XSP16, literal(-8)))
        CFI V5 load(1, XDATA, add(CFA_XSP16, literal(-7)))
        CFI R7 load(1, XDATA, add(CFA_XSP16, literal(-6)))
        CFI ?RET_LOW load(1, XDATA, add(CFA_XSP16, literal(-5)))
        CFI ?RET_HIGH load(1, XDATA, add(CFA_XSP16, literal(-4)))
        CFI ?BRET_EXT load(1, XDATA, add(CFA_XSP16, literal(-3)))
        CFI DPL0 load(1, XDATA, add(CFA_XSP16, literal(-2)))
        CFI DPH0 load(1, XDATA, add(CFA_XSP16, literal(-1)))
        CFI CFA_SP SP+0
        CFI CFA_XSP16 add(XSP16, 14)
        CFI Block cfiCond297 Using cfiCommon0
        CFI (cfiCond297) NoFunction
        CFI (cfiCond297) Conditional ??CrossCallReturnLabel_140, ??CrossCallReturnLabel_20
        CFI (cfiCond297) R6 load(1, XDATA, add(CFA_XSP16, literal(-12)))
        CFI (cfiCond297) VB load(1, XDATA, add(CFA_XSP16, literal(-11)))
        CFI (cfiCond297) V0 load(1, XDATA, add(CFA_XSP16, literal(-10)))
        CFI (cfiCond297) V1 load(1, XDATA, add(CFA_XSP16, literal(-9)))
        CFI (cfiCond297) V2 load(1, XDATA, add(CFA_XSP16, literal(-8)))
        CFI (cfiCond297) V3 load(1, XDATA, add(CFA_XSP16, literal(-7)))
        CFI (cfiCond297) R7 load(1, XDATA, add(CFA_XSP16, literal(-6)))
        CFI (cfiCond297) ?RET_LOW load(1, XDATA, add(CFA_XSP16, literal(-5)))
        CFI (cfiCond297) ?RET_HIGH load(1, XDATA, add(CFA_XSP16, literal(-4)))
        CFI (cfiCond297) ?BRET_EXT load(1, XDATA, add(CFA_XSP16, literal(-3)))
        CFI (cfiCond297) DPL0 load(1, XDATA, add(CFA_XSP16, literal(-2)))
        CFI (cfiCond297) DPH0 load(1, XDATA, add(CFA_XSP16, literal(-1)))
        CFI (cfiCond297) CFA_SP SP+0
        CFI (cfiCond297) CFA_XSP16 add(XSP16, 12)
        CFI Block cfiCond298 Using cfiCommon0
        CFI (cfiCond298) NoFunction
        CFI (cfiCond298) Conditional ??CrossCallReturnLabel_140, ??CrossCallReturnLabel_21
        CFI (cfiCond298) R6 load(1, XDATA, add(CFA_XSP16, literal(-12)))
        CFI (cfiCond298) VB load(1, XDATA, add(CFA_XSP16, literal(-11)))
        CFI (cfiCond298) V0 load(1, XDATA, add(CFA_XSP16, literal(-10)))
        CFI (cfiCond298) V1 load(1, XDATA, add(CFA_XSP16, literal(-9)))
        CFI (cfiCond298) V2 load(1, XDATA, add(CFA_XSP16, literal(-8)))
        CFI (cfiCond298) V3 load(1, XDATA, add(CFA_XSP16, literal(-7)))
        CFI (cfiCond298) R7 load(1, XDATA, add(CFA_XSP16, literal(-6)))
        CFI (cfiCond298) ?RET_LOW load(1, XDATA, add(CFA_XSP16, literal(-5)))
        CFI (cfiCond298) ?RET_HIGH load(1, XDATA, add(CFA_XSP16, literal(-4)))
        CFI (cfiCond298) ?BRET_EXT load(1, XDATA, add(CFA_XSP16, literal(-3)))
        CFI (cfiCond298) DPL0 load(1, XDATA, add(CFA_XSP16, literal(-2)))
        CFI (cfiCond298) DPH0 load(1, XDATA, add(CFA_XSP16, literal(-1)))
        CFI (cfiCond298) CFA_SP SP+0
        CFI (cfiCond298) CFA_XSP16 add(XSP16, 12)
        CFI Block cfiCond299 Using cfiCommon0
        CFI (cfiCond299) NoFunction
        CFI (cfiCond299) Conditional ??CrossCallReturnLabel_138
        CFI (cfiCond299) R6 load(1, XDATA, add(CFA_XSP16, literal(-12)))
        CFI (cfiCond299) VB load(1, XDATA, add(CFA_XSP16, literal(-11)))
        CFI (cfiCond299) V0 load(1, XDATA, add(CFA_XSP16, literal(-10)))
        CFI (cfiCond299) V1 load(1, XDATA, add(CFA_XSP16, literal(-9)))
        CFI (cfiCond299) V2 load(1, XDATA, add(CFA_XSP16, literal(-8)))
        CFI (cfiCond299) V3 load(1, XDATA, add(CFA_XSP16, literal(-7)))
        CFI (cfiCond299) R7 load(1, XDATA, add(CFA_XSP16, literal(-6)))
        CFI (cfiCond299) ?RET_LOW load(1, XDATA, add(CFA_XSP16, literal(-5)))
        CFI (cfiCond299) ?RET_HIGH load(1, XDATA, add(CFA_XSP16, literal(-4)))
        CFI (cfiCond299) ?BRET_EXT load(1, XDATA, add(CFA_XSP16, literal(-3)))
        CFI (cfiCond299) DPL0 load(1, XDATA, add(CFA_XSP16, literal(-2)))
        CFI (cfiCond299) DPH0 load(1, XDATA, add(CFA_XSP16, literal(-1)))
        CFI (cfiCond299) CFA_SP SP+0
        CFI (cfiCond299) CFA_XSP16 add(XSP16, 33)
        CFI Block cfiCond300 Using cfiCommon0
        CFI (cfiCond300) NoFunction
        CFI (cfiCond300) Conditional ??CrossCallReturnLabel_139
        CFI (cfiCond300) R6 load(1, XDATA, add(CFA_XSP16, literal(-10)))
        CFI (cfiCond300) VB load(1, XDATA, add(CFA_XSP16, literal(-9)))
        CFI (cfiCond300) V0 load(1, XDATA, add(CFA_XSP16, literal(-8)))
        CFI (cfiCond300) V1 load(1, XDATA, add(CFA_XSP16, literal(-7)))
        CFI (cfiCond300) R7 load(1, XDATA, add(CFA_XSP16, literal(-6)))
        CFI (cfiCond300) ?RET_LOW load(1, XDATA, add(CFA_XSP16, literal(-5)))
        CFI (cfiCond300) ?RET_HIGH load(1, XDATA, add(CFA_XSP16, literal(-4)))
        CFI (cfiCond300) ?BRET_EXT load(1, XDATA, add(CFA_XSP16, literal(-3)))
        CFI (cfiCond300) DPL0 load(1, XDATA, add(CFA_XSP16, literal(-2)))
        CFI (cfiCond300) DPH0 load(1, XDATA, add(CFA_XSP16, literal(-1)))
        CFI (cfiCond300) CFA_SP SP+0
        CFI (cfiCond300) CFA_XSP16 add(XSP16, 10)
        CFI Block cfiCond301 Using cfiCommon0
        CFI (cfiCond301) NoFunction
        CFI (cfiCond301) Conditional ??CrossCallReturnLabel_141
        CFI (cfiCond301) R6 load(1, XDATA, add(CFA_XSP16, literal(-12)))
        CFI (cfiCond301) VB load(1, XDATA, add(CFA_XSP16, literal(-11)))
        CFI (cfiCond301) V0 load(1, XDATA, add(CFA_XSP16, literal(-10)))
        CFI (cfiCond301) V1 load(1, XDATA, add(CFA_XSP16, literal(-9)))
        CFI (cfiCond301) V2 load(1, XDATA, add(CFA_XSP16, literal(-8)))
        CFI (cfiCond301) V3 load(1, XDATA, add(CFA_XSP16, literal(-7)))
        CFI (cfiCond301) R7 load(1, XDATA, add(CFA_XSP16, literal(-6)))
        CFI (cfiCond301) ?RET_LOW load(1, XDATA, add(CFA_XSP16, literal(-5)))
        CFI (cfiCond301) ?RET_HIGH load(1, XDATA, add(CFA_XSP16, literal(-4)))
        CFI (cfiCond301) ?BRET_EXT load(1, XDATA, add(CFA_XSP16, literal(-3)))
        CFI (cfiCond301) DPL0 load(1, XDATA, add(CFA_XSP16, literal(-2)))
        CFI (cfiCond301) DPH0 load(1, XDATA, add(CFA_XSP16, literal(-1)))
        CFI (cfiCond301) CFA_SP SP+0
        CFI (cfiCond301) CFA_XSP16 add(XSP16, 33)
        CFI Block cfiCond302 Using cfiCommon0
        CFI (cfiCond302) NoFunction
        CFI (cfiCond302) Conditional ??CrossCallReturnLabel_142, ??CrossCallReturnLabel_35
        CFI (cfiCond302) R6 load(1, XDATA, add(CFA_XSP16, literal(-12)))
        CFI (cfiCond302) VB load(1, XDATA, add(CFA_XSP16, literal(-11)))
        CFI (cfiCond302) V0 load(1, XDATA, add(CFA_XSP16, literal(-10)))
        CFI (cfiCond302) V1 load(1, XDATA, add(CFA_XSP16, literal(-9)))
        CFI (cfiCond302) V2 load(1, XDATA, add(CFA_XSP16, literal(-8)))
        CFI (cfiCond302) V3 load(1, XDATA, add(CFA_XSP16, literal(-7)))
        CFI (cfiCond302) R7 load(1, XDATA, add(CFA_XSP16, literal(-6)))
        CFI (cfiCond302) ?RET_LOW load(1, XDATA, add(CFA_XSP16, literal(-5)))
        CFI (cfiCond302) ?RET_HIGH load(1, XDATA, add(CFA_XSP16, literal(-4)))
        CFI (cfiCond302) ?BRET_EXT load(1, XDATA, add(CFA_XSP16, literal(-3)))
        CFI (cfiCond302) DPL0 load(1, XDATA, add(CFA_XSP16, literal(-2)))
        CFI (cfiCond302) DPH0 load(1, XDATA, add(CFA_XSP16, literal(-1)))
        CFI (cfiCond302) CFA_SP SP+0
        CFI (cfiCond302) CFA_XSP16 add(XSP16, 40)
        CFI Block cfiCond303 Using cfiCommon0
        CFI (cfiCond303) NoFunction
        CFI (cfiCond303) Conditional ??CrossCallReturnLabel_142, ??CrossCallReturnLabel_36
        CFI (cfiCond303) R6 load(1, XDATA, add(CFA_XSP16, literal(-12)))
        CFI (cfiCond303) VB load(1, XDATA, add(CFA_XSP16, literal(-11)))
        CFI (cfiCond303) V0 load(1, XDATA, add(CFA_XSP16, literal(-10)))
        CFI (cfiCond303) V1 load(1, XDATA, add(CFA_XSP16, literal(-9)))
        CFI (cfiCond303) V2 load(1, XDATA, add(CFA_XSP16, literal(-8)))
        CFI (cfiCond303) V3 load(1, XDATA, add(CFA_XSP16, literal(-7)))
        CFI (cfiCond303) R7 load(1, XDATA, add(CFA_XSP16, literal(-6)))
        CFI (cfiCond303) ?RET_LOW load(1, XDATA, add(CFA_XSP16, literal(-5)))
        CFI (cfiCond303) ?RET_HIGH load(1, XDATA, add(CFA_XSP16, literal(-4)))
        CFI (cfiCond303) ?BRET_EXT load(1, XDATA, add(CFA_XSP16, literal(-3)))
        CFI (cfiCond303) DPL0 load(1, XDATA, add(CFA_XSP16, literal(-2)))
        CFI (cfiCond303) DPH0 load(1, XDATA, add(CFA_XSP16, literal(-1)))
        CFI (cfiCond303) CFA_SP SP+0
        CFI (cfiCond303) CFA_XSP16 add(XSP16, 40)
        CFI Block cfiPicker304 Using cfiCommon1
        CFI (cfiPicker304) NoFunction
        CFI (cfiPicker304) Picker
        MOVX    A,@DPTR
        MOV     R4,A
        INC     DPTR
        MOVX    A,@DPTR
        MOV     R5,A
        RET
        CFI EndBlock cfiCond296
        CFI EndBlock cfiCond297
        CFI EndBlock cfiCond298
        CFI EndBlock cfiCond299
        CFI EndBlock cfiCond300
        CFI EndBlock cfiCond301
        CFI EndBlock cfiCond302
        CFI EndBlock cfiCond303
        CFI EndBlock cfiPicker304

        RSEG BANKED_CODE:CODE:NOROOT(0)
?Subroutine33:
        CFI Block cfiCond305 Using cfiCommon0
        CFI NoFunction
        CFI Conditional ??CrossCallReturnLabel_54
        CFI R6 load(1, XDATA, add(CFA_XSP16, literal(-10)))
        CFI VB load(1, XDATA, add(CFA_XSP16, literal(-9)))
        CFI V0 load(1, XDATA, add(CFA_XSP16, literal(-8)))
        CFI V1 load(1, XDATA, add(CFA_XSP16, literal(-7)))
        CFI R7 load(1, XDATA, add(CFA_XSP16, literal(-6)))
        CFI ?RET_LOW load(1, XDATA, add(CFA_XSP16, literal(-5)))
        CFI ?RET_HIGH load(1, XDATA, add(CFA_XSP16, literal(-4)))
        CFI ?BRET_EXT load(1, XDATA, add(CFA_XSP16, literal(-3)))
        CFI DPL0 load(1, XDATA, add(CFA_XSP16, literal(-2)))
        CFI DPH0 load(1, XDATA, add(CFA_XSP16, literal(-1)))
        CFI CFA_SP SP+0
        CFI CFA_XSP16 add(XSP16, 10)
        CFI Block cfiCond306 Using cfiCommon0
        CFI (cfiCond306) NoFunction
        CFI (cfiCond306) Conditional ??CrossCallReturnLabel_55
        CFI (cfiCond306) R6 load(1, XDATA, add(CFA_XSP16, literal(-10)))
        CFI (cfiCond306) VB load(1, XDATA, add(CFA_XSP16, literal(-9)))
        CFI (cfiCond306) V0 load(1, XDATA, add(CFA_XSP16, literal(-8)))
        CFI (cfiCond306) V1 load(1, XDATA, add(CFA_XSP16, literal(-7)))
        CFI (cfiCond306) R7 load(1, XDATA, add(CFA_XSP16, literal(-6)))
        CFI (cfiCond306) ?RET_LOW load(1, XDATA, add(CFA_XSP16, literal(-5)))
        CFI (cfiCond306) ?RET_HIGH load(1, XDATA, add(CFA_XSP16, literal(-4)))
        CFI (cfiCond306) ?BRET_EXT load(1, XDATA, add(CFA_XSP16, literal(-3)))
        CFI (cfiCond306) DPL0 load(1, XDATA, add(CFA_XSP16, literal(-2)))
        CFI (cfiCond306) DPH0 load(1, XDATA, add(CFA_XSP16, literal(-1)))
        CFI (cfiCond306) CFA_SP SP+0
        CFI (cfiCond306) CFA_XSP16 add(XSP16, 10)
        CFI Block cfiPicker307 Using cfiCommon1
        CFI (cfiPicker307) NoFunction
        CFI (cfiPicker307) Picker
        MOV     R0,A
        LCALL   ??Subroutine54_0 & 0xFFFF
??CrossCallReturnLabel_92:
        INC     DPTR
        INC     DPTR
        INC     DPTR
        RET
        CFI EndBlock cfiCond305
        CFI EndBlock cfiCond306
        CFI EndBlock cfiPicker307

        RSEG BANKED_CODE:CODE:NOROOT(0)
?Subroutine6:
        CFI Block cfiCond308 Using cfiCommon0
        CFI NoFunction
        CFI Conditional ??CrossCallReturnLabel_2
        CFI R6 load(1, XDATA, add(CFA_XSP16, literal(-12)))
        CFI VB load(1, XDATA, add(CFA_XSP16, literal(-11)))
        CFI V0 load(1, XDATA, add(CFA_XSP16, literal(-10)))
        CFI V1 load(1, XDATA, add(CFA_XSP16, literal(-9)))
        CFI V2 load(1, XDATA, add(CFA_XSP16, literal(-8)))
        CFI V3 load(1, XDATA, add(CFA_XSP16, literal(-7)))
        CFI R7 load(1, XDATA, add(CFA_XSP16, literal(-6)))
        CFI ?RET_LOW load(1, XDATA, add(CFA_XSP16, literal(-5)))
        CFI ?RET_HIGH load(1, XDATA, add(CFA_XSP16, literal(-4)))
        CFI ?BRET_EXT load(1, XDATA, add(CFA_XSP16, literal(-3)))
        CFI DPL0 load(1, XDATA, add(CFA_XSP16, literal(-2)))
        CFI DPH0 load(1, XDATA, add(CFA_XSP16, literal(-1)))
        CFI CFA_SP SP+0
        CFI CFA_XSP16 add(XSP16, 12)
        CFI Block cfiCond309 Using cfiCommon0
        CFI (cfiCond309) NoFunction
        CFI (cfiCond309) Conditional ??CrossCallReturnLabel_3
        CFI (cfiCond309) R6 load(1, XDATA, add(CFA_XSP16, literal(-12)))
        CFI (cfiCond309) VB load(1, XDATA, add(CFA_XSP16, literal(-11)))
        CFI (cfiCond309) V0 load(1, XDATA, add(CFA_XSP16, literal(-10)))
        CFI (cfiCond309) V1 load(1, XDATA, add(CFA_XSP16, literal(-9)))
        CFI (cfiCond309) V2 load(1, XDATA, add(CFA_XSP16, literal(-8)))
        CFI (cfiCond309) V3 load(1, XDATA, add(CFA_XSP16, literal(-7)))
        CFI (cfiCond309) R7 load(1, XDATA, add(CFA_XSP16, literal(-6)))
        CFI (cfiCond309) ?RET_LOW load(1, XDATA, add(CFA_XSP16, literal(-5)))
        CFI (cfiCond309) ?RET_HIGH load(1, XDATA, add(CFA_XSP16, literal(-4)))
        CFI (cfiCond309) ?BRET_EXT load(1, XDATA, add(CFA_XSP16, literal(-3)))
        CFI (cfiCond309) DPL0 load(1, XDATA, add(CFA_XSP16, literal(-2)))
        CFI (cfiCond309) DPH0 load(1, XDATA, add(CFA_XSP16, literal(-1)))
        CFI (cfiCond309) CFA_SP SP+0
        CFI (cfiCond309) CFA_XSP16 add(XSP16, 12)
        CFI Block cfiCond310 Using cfiCommon0
        CFI (cfiCond310) NoFunction
        CFI (cfiCond310) Conditional ??CrossCallReturnLabel_4
        CFI (cfiCond310) R6 load(1, XDATA, add(CFA_XSP16, literal(-10)))
        CFI (cfiCond310) VB load(1, XDATA, add(CFA_XSP16, literal(-9)))
        CFI (cfiCond310) V0 load(1, XDATA, add(CFA_XSP16, literal(-8)))
        CFI (cfiCond310) V1 load(1, XDATA, add(CFA_XSP16, literal(-7)))
        CFI (cfiCond310) R7 load(1, XDATA, add(CFA_XSP16, literal(-6)))
        CFI (cfiCond310) ?RET_LOW load(1, XDATA, add(CFA_XSP16, literal(-5)))
        CFI (cfiCond310) ?RET_HIGH load(1, XDATA, add(CFA_XSP16, literal(-4)))
        CFI (cfiCond310) ?BRET_EXT load(1, XDATA, add(CFA_XSP16, literal(-3)))
        CFI (cfiCond310) DPL0 load(1, XDATA, add(CFA_XSP16, literal(-2)))
        CFI (cfiCond310) DPH0 load(1, XDATA, add(CFA_XSP16, literal(-1)))
        CFI (cfiCond310) CFA_SP SP+0
        CFI (cfiCond310) CFA_XSP16 add(XSP16, 10)
        CFI Block cfiPicker311 Using cfiCommon1
        CFI (cfiPicker311) NoFunction
        CFI (cfiPicker311) Picker
        MOVX    @DPTR,A
        INC     DPTR
        MOV     A,R1
        LCALL   ?Subroutine43 & 0xFFFF
??CrossCallReturnLabel_75:
        MOVX    A,@DPTR
        RET
        CFI EndBlock cfiCond308
        CFI EndBlock cfiCond309
        CFI EndBlock cfiCond310
        CFI EndBlock cfiPicker311

        RSEG XDATA_ID:CODE:NOROOT(0)
`?<Initializer for zcl_RegisteredMsgTaskID>`:
        DATA8
        DB 255

        RSEG BANK_RELAYS:CODE:REORDER:NOROOT(0)
??zcl_Init?relay:
        LCALL   ?BDISPATCH
        DATA
        DC24    zcl_Init

        RSEG BANK_RELAYS:CODE:REORDER:NOROOT(0)
??zcl_event_loop?relay:
        LCALL   ?BDISPATCH
        DATA
        DC24    zcl_event_loop

        RSEG BANK_RELAYS:CODE:REORDER:NOROOT(0)
??zcl_getRawAFMsg?relay:
        LCALL   ?BDISPATCH
        DATA
        DC24    zcl_getRawAFMsg

        RSEG BANK_RELAYS:CODE:REORDER:NOROOT(0)
??zcl_registerPlugin?relay:
        LCALL   ?BDISPATCH
        DATA
        DC24    zcl_registerPlugin

        RSEG BANK_RELAYS:CODE:REORDER:NOROOT(0)
??zcl_registerAttrList?relay:
        LCALL   ?BDISPATCH
        DATA
        DC24    zcl_registerAttrList

        RSEG BANK_RELAYS:CODE:REORDER:NOROOT(0)
??zcl_registerClusterOptionList?relay:
        LCALL   ?BDISPATCH
        DATA
        DC24    zcl_registerClusterOptionList

        RSEG BANK_RELAYS:CODE:REORDER:NOROOT(0)
??zcl_registerValidateAttrData?relay:
        LCALL   ?BDISPATCH
        DATA
        DC24    zcl_registerValidateAttrData

        RSEG BANK_RELAYS:CODE:REORDER:NOROOT(0)
??zcl_registerReadWriteCB?relay:
        LCALL   ?BDISPATCH
        DATA
        DC24    zcl_registerReadWriteCB

        RSEG BANK_RELAYS:CODE:REORDER:NOROOT(0)
??zcl_registerForMsg?relay:
        LCALL   ?BDISPATCH
        DATA
        DC24    zcl_registerForMsg

        RSEG BANK_RELAYS:CODE:REORDER:NOROOT(0)
??zcl_DeviceOperational?relay:
        LCALL   ?BDISPATCH
        DATA
        DC24    zcl_DeviceOperational

        RSEG BANK_RELAYS:CODE:REORDER:NOROOT(0)
??zcl_SendCommand?relay:
        LCALL   ?BDISPATCH
        DATA
        DC24    zcl_SendCommand

        RSEG BANK_RELAYS:CODE:REORDER:NOROOT(0)
??zcl_SendDefaultRspCmd?relay:
        LCALL   ?BDISPATCH
        DATA
        DC24    zcl_SendDefaultRspCmd

        RSEG BANK_RELAYS:CODE:REORDER:NOROOT(0)
??zclProcessMessageMSG?relay:
        LCALL   ?BDISPATCH
        DATA
        DC24    zclProcessMessageMSG

        RSEG BANK_RELAYS:CODE:REORDER:NOROOT(0)
??zclParseHdr?relay:
        LCALL   ?BDISPATCH
        DATA
        DC24    zclParseHdr

        RSEG BANK_RELAYS:CODE:REORDER:NOROOT(0)
??zclBuildHdr?relay:
        LCALL   ?BDISPATCH
        DATA
        DC24    zclBuildHdr

        RSEG BANK_RELAYS:CODE:REORDER:NOROOT(0)
??zclFindAttrRecsList?relay:
        LCALL   ?BDISPATCH
        DATA
        DC24    zclFindAttrRecsList

        RSEG BANK_RELAYS:CODE:REORDER:NOROOT(0)
??zclFindAttrRec?relay:
        LCALL   ?BDISPATCH
        DATA
        DC24    zclFindAttrRec

        RSEG BANK_RELAYS:CODE:REORDER:NOROOT(0)
??zclFindClusterOption?relay:
        LCALL   ?BDISPATCH
        DATA
        DC24    zclFindClusterOption

        RSEG BANK_RELAYS:CODE:REORDER:NOROOT(0)
??zclGetClusterOption?relay:
        LCALL   ?BDISPATCH
        DATA
        DC24    zclGetClusterOption

        RSEG BANK_RELAYS:CODE:REORDER:NOROOT(0)
??zclSetSecurityOption?relay:
        LCALL   ?BDISPATCH
        DATA
        DC24    zclSetSecurityOption

        RSEG BANK_RELAYS:CODE:REORDER:NOROOT(0)
??zclSerializeData?relay:
        LCALL   ?BDISPATCH
        DATA
        DC24    zclSerializeData

        RSEG BANK_RELAYS:CODE:REORDER:NOROOT(0)
??zclGetDataTypeLength?relay:
        LCALL   ?BDISPATCH
        DATA
        DC24    zclGetDataTypeLength

        RSEG BANK_RELAYS:CODE:REORDER:NOROOT(0)
??zclGetAttrDataLength?relay:
        LCALL   ?BDISPATCH
        DATA
        DC24    zclGetAttrDataLength

        RSEG BANK_RELAYS:CODE:REORDER:NOROOT(0)
??zclReadAttrData?relay:
        LCALL   ?BDISPATCH
        DATA
        DC24    zclReadAttrData

        RSEG BANK_RELAYS:CODE:REORDER:NOROOT(0)
??zclParseInDefaultRspCmd?relay:
        LCALL   ?BDISPATCH
        DATA
        DC24    zclParseInDefaultRspCmd

        RSEG BANK_RELAYS:CODE:REORDER:NOROOT(0)
??zclSendMsg?relay:
        LCALL   ?BDISPATCH
        DATA
        DC24    zclSendMsg

        END
// 3894 
// 3895 /*********************************************************************
// 3896 *********************************************************************/
// 
// 4 381 bytes in segment BANKED_CODE
//   156 bytes in segment BANK_RELAYS
//    56 bytes in segment CODE_C
//     1 byte  in segment XDATA_I
//     1 byte  in segment XDATA_ID
//    13 bytes in segment XDATA_Z
// 
// 4 594 bytes of CODE  memory
//    14 bytes of XDATA memory
//
//Errors: none
//Warnings: none
