///////////////////////////////////////////////////////////////////////////////
//                                                                            /
// IAR C/C++ Compiler V8.10.1.10194/W32 for 8051        10/Sep/2013  11:26:45 /
// Copyright 2004-2011 IAR Systems AB.                                        /
//                                                                            /
//    Core               =  plain                                             /
//    Code model         =  banked                                            /
//    Data model         =  large                                             /
//    Calling convention =  xdata reentrant                                   /
//    Constant location  =  data_rom                                          /
//    Dptr setup         =  1,16                                              /
//    Source file        =  D:\Texas Instruments\ZIG_TEMCO\Projects\zstack\Sa /
//                          mples\GenericApp\Source\GenericApp.c              /
//    Command line       =  -f "D:\Texas Instruments\ZIG_TEMCO\Projects\zstac /
//                          k\Samples\GenericApp\CC2530DB\..\..\..\Tools\CC25 /
//                          30DB\f8wCoord.cfg" (-DCPU32MHZ                    /
//                          -DROOT=__near_func -DMAC_CFG_APP_PENDING_QUEUE=TR /
//                          UE -DMAC_CFG_TX_DATA_MAX=5 -DMAC_CFG_TX_MAX=8     /
//                          -DMAC_CFG_RX_MAX=5 -DZDO_COORDINATOR -DRTR_NWK)   /
//                          -f "D:\Texas Instruments\ZIG_TEMCO\Projects\zstac /
//                          k\Samples\GenericApp\CC2530DB\..\..\..\Tools\CC25 /
//                          30DB\f8wConfig.cfg" (-DZIGBEEPRO -DSECURE=0       /
//                          -DZG_SECURE_DYNAMIC=0 -DREFLECTOR                 /
//                          -DDEFAULT_CHANLIST=0x00002000                     /
//                          -DZDAPP_CONFIG_PAN_ID=0xFFFF                      /
//                          -DNWK_START_DELAY=100 -DEXTENDED_JOINING_RANDOM_M /
//                          ASK=0x007F -DBEACON_REQUEST_DELAY=100             /
//                          -DBEACON_REQ_DELAY_MASK=0x00FF                    /
//                          -DLINK_STATUS_JITTER_MASK=0x007F                  /
//                          -DROUTE_EXPIRY_TIME=30 -DAPSC_ACK_WAIT_DURATION_P /
//                          OLLED=3000 -DNWK_INDIRECT_MSG_TIMEOUT=7           /
//                          -DMAX_RREQ_ENTRIES=8 -DAPSC_MAX_FRAME_RETRIES=3   /
//                          -DNWK_MAX_DATA_RETRIES=2                          /
//                          -DMAX_POLL_FAILURE_RETRIES=2 -DMAX_BCAST=9        /
//                          -DAPS_MAX_GROUPS=16 -DMAX_RTG_ENTRIES=40          /
//                          -DNWK_MAX_BINDING_ENTRIES=4                       /
//                          -DMAX_BINDING_CLUSTER_IDS=4                       /
//                          "-DDEFAULT_KEY={0x01, 0x03, 0x05, 0x07, 0x09,     /
//                          0x0B, 0x0D, 0x0F, 0x00, 0x02, 0x04, 0x06, 0x08,   /
//                          0x0A, 0x0C, 0x0D}" -DMAC_MAX_FRAME_SIZE=116       /
//                          -DZDNWKMGR_MIN_TRANSMISSIONS=20 "-DCONST=const    /
//                          __code" -DGENERIC=__generic                       /
//                          -DRFD_RCVC_ALWAYS_ON=FALSE -DPOLL_RATE=1000       /
//                          -DQUEUED_POLL_RATE=100 -DRESPONSE_POLL_RATE=100)  /
//                          -DREJOIN_POLL_RATE=440 "D:\Texas                  /
//                          Instruments\ZIG_TEMCO\Projects\zstack\Samples\Gen /
//                          ericApp\Source\GenericApp.c" -D ZTOOL_P1 -D       /
//                          NV_INIT -D xNV_RESTORE -D ZIGBEE_FREQ_AGILITY -D  /
//                          PANID_DISPLAY -D ZIGBEE_PANID_CONFLICT -D         /
//                          NWK_MANAGER -D xMT_TASK -D xMT_SYS_FUNC -D        /
//                          xMT_ZDO_FUNC -lC "D:\Texas                        /
//                          Instruments\ZIG_TEMCO\Projects\zstack\Samples\Gen /
//                          ericApp\CC2530DB\CoordinatorEB\List\" -lA         /
//                          "D:\Texas Instruments\ZIG_TEMCO\Projects\zstack\S /
//                          amples\GenericApp\CC2530DB\CoordinatorEB\List\"   /
//                          --diag_suppress Pe001,Pa010 -o "D:\Texas          /
//                          Instruments\ZIG_TEMCO\Projects\zstack\Samples\Gen /
//                          ericApp\CC2530DB\CoordinatorEB\Obj\" -e           /
//                          --no_code_motion --debug --core=plain             /
//                          --dptr=16,1 --data_model=large                    /
//                          --code_model=banked --calling_convention=xdata_re /
//                          entrant --place_constants=data_rom                /
//                          --nr_virtual_regs 16 -I "D:\Texas                 /
//                          Instruments\ZIG_TEMCO\Projects\zstack\Samples\Gen /
//                          ericApp\CC2530DB\" -I "D:\Texas                   /
//                          Instruments\ZIG_TEMCO\Projects\zstack\Samples\Gen /
//                          ericApp\CC2530DB\..\Source\" -I "D:\Texas         /
//                          Instruments\ZIG_TEMCO\Projects\zstack\Samples\Gen /
//                          ericApp\CC2530DB\..\..\..\ZMain\TI2530DB\" -I     /
//                          "D:\Texas Instruments\ZIG_TEMCO\Projects\zstack\S /
//                          amples\GenericApp\CC2530DB\..\..\..\..\..\Compone /
//                          nts\hal\include\" -I "D:\Texas                    /
//                          Instruments\ZIG_TEMCO\Projects\zstack\Samples\Gen /
//                          ericApp\CC2530DB\..\..\..\..\..\Components\hal\ta /
//                          rget\CC2530EB\" -I "D:\Texas                      /
//                          Instruments\ZIG_TEMCO\Projects\zstack\Samples\Gen /
//                          ericApp\CC2530DB\..\..\..\..\..\Components\mac\in /
//                          clude\" -I "D:\Texas Instruments\ZIG_TEMCO\Projec /
//                          ts\zstack\Samples\GenericApp\CC2530DB\..\..\..\.. /
//                          \..\Components\mac\high_level\" -I "D:\Texas      /
//                          Instruments\ZIG_TEMCO\Projects\zstack\Samples\Gen /
//                          ericApp\CC2530DB\..\..\..\..\..\Components\mac\lo /
//                          w_level\srf04\" -I "D:\Texas                      /
//                          Instruments\ZIG_TEMCO\Projects\zstack\Samples\Gen /
//                          ericApp\CC2530DB\..\..\..\..\..\Components\mac\lo /
//                          w_level\srf04\single_chip\" -I "D:\Texas          /
//                          Instruments\ZIG_TEMCO\Projects\zstack\Samples\Gen /
//                          ericApp\CC2530DB\..\..\..\..\..\Components\mt\"   /
//                          -I "D:\Texas Instruments\ZIG_TEMCO\Projects\zstac /
//                          k\Samples\GenericApp\CC2530DB\..\..\..\..\..\Comp /
//                          onents\osal\include\" -I "D:\Texas                /
//                          Instruments\ZIG_TEMCO\Projects\zstack\Samples\Gen /
//                          ericApp\CC2530DB\..\..\..\..\..\Components\servic /
//                          es\saddr\" -I "D:\Texas                           /
//                          Instruments\ZIG_TEMCO\Projects\zstack\Samples\Gen /
//                          ericApp\CC2530DB\..\..\..\..\..\Components\servic /
//                          es\sdata\" -I "D:\Texas                           /
//                          Instruments\ZIG_TEMCO\Projects\zstack\Samples\Gen /
//                          ericApp\CC2530DB\..\..\..\..\..\Components\stack\ /
//                          af\" -I "D:\Texas Instruments\ZIG_TEMCO\Projects\ /
//                          zstack\Samples\GenericApp\CC2530DB\..\..\..\..\.. /
//                          \Components\stack\nwk\" -I "D:\Texas              /
//                          Instruments\ZIG_TEMCO\Projects\zstack\Samples\Gen /
//                          ericApp\CC2530DB\..\..\..\..\..\Components\stack\ /
//                          sapi\" -I "D:\Texas Instruments\ZIG_TEMCO\Project /
//                          s\zstack\Samples\GenericApp\CC2530DB\..\..\..\..\ /
//                          ..\Components\stack\sec\" -I "D:\Texas            /
//                          Instruments\ZIG_TEMCO\Projects\zstack\Samples\Gen /
//                          ericApp\CC2530DB\..\..\..\..\..\Components\stack\ /
//                          sys\" -I "D:\Texas Instruments\ZIG_TEMCO\Projects /
//                          \zstack\Samples\GenericApp\CC2530DB\..\..\..\..\. /
//                          .\Components\stack\zdo\" -I "D:\Texas             /
//                          Instruments\ZIG_TEMCO\Projects\zstack\Samples\Gen /
//                          ericApp\CC2530DB\..\..\..\..\..\Components\zmac\" /
//                           -I "D:\Texas Instruments\ZIG_TEMCO\Projects\zsta /
//                          ck\Samples\GenericApp\CC2530DB\..\..\..\..\..\Com /
//                          ponents\zmac\f8w\" -Ohz --require_prototypes      /
//    List file          =  D:\Texas Instruments\ZIG_TEMCO\Projects\zstack\Sa /
//                          mples\GenericApp\CC2530DB\CoordinatorEB\List\Gene /
//                          ricApp.s51                                        /
//                                                                            /
//                                                                            /
///////////////////////////////////////////////////////////////////////////////

        NAME GenericApp

        RTMODEL "__SystemLibrary", "CLib"
        RTMODEL "__calling_convention", "xdata_reentrant"
        RTMODEL "__code_model", "banked"
        RTMODEL "__core", "plain"
        RTMODEL "__data_model", "large"
        RTMODEL "__dptr_size", "16"
        RTMODEL "__extended_stack", "disabled"
        RTMODEL "__location_for_constants", "data"
        RTMODEL "__number_of_dptrs", "1"
        RTMODEL "__rt_version", "1"

        RSEG DOVERLAY:DATA:NOROOT(0)
        RSEG IOVERLAY:IDATA:NOROOT(0)
        RSEG ISTACK:IDATA:NOROOT(0)
        RSEG PSTACK:XDATA:NOROOT(0)
        RSEG XSTACK:XDATA:NOROOT(0)

        EXTERN ?ALLOC_XSTACK8
        EXTERN ?BANKED_ENTER_XDATA
        EXTERN ?BANKED_LEAVE_XDATA
        EXTERN ?BDISPATCH
        EXTERN ?BRET
        EXTERN ?DEALLOC_XSTACK8
        EXTERN ?PUSH_XSTACK_I_ONE
        EXTERN ?PUSH_XSTACK_I_THREE
        EXTERN ?PUSH_XSTACK_I_TWO
        EXTERN ?US_SWITCH_DENSE
        EXTERN ?US_SWITCH_SPARSE
        EXTERN ?V0
        EXTERN ?XSP
        EXTERN ?XSTACK_DISP0_8
        EXTERN __INIT_XDATA_Z

        PUBLIC ??CRC16_Tstat?relay
        FUNCTION ??CRC16_Tstat?relay,0203H
        PUBLIC ??GenericApp_Init?relay
        FUNCTION ??GenericApp_Init?relay,0203H
        PUBLIC ??GenericApp_ProcessEvent?relay
        FUNCTION ??GenericApp_ProcessEvent?relay,0203H
        PUBLIC ??InitCRC16?relay
        FUNCTION ??InitCRC16?relay,0203H
        PUBLIC ??calcCRC16?relay
        FUNCTION ??calcCRC16?relay,0203H
        PUBLIC ??zb_SendDataRequest?relay
        FUNCTION ??zb_SendDataRequest?relay,0203H
        PUBLIC CRC16_Tstat
        FUNCTION CRC16_Tstat,0203H
        ARGFRAME XSTACK, 14, STACK
        ARGFRAME IOVERLAY, 0, STATIC
        ARGFRAME DOVERLAY, 0, STATIC
        LOCFRAME ISTACK, 2, STACK
        PUBLIC CRChi
        PUBLIC CRClo
        PUBLIC GenericApp_ClusterList
        PUBLIC GenericApp_DstAddr
        PUBLIC GenericApp_Init
        FUNCTION GenericApp_Init,021203H
        ARGFRAME XSTACK, 0, STACK
        LOCFRAME XSTACK, 9, STACK
        PUBLIC GenericApp_NwkState
        PUBLIC GenericApp_ProcessEvent
        FUNCTION GenericApp_ProcessEvent,0a1203H
        ARGFRAME XSTACK, 0, STACK
        LOCFRAME XSTACK, 20, STACK
        PUBLIC GenericApp_SimpleDesc
        PUBLIC GenericApp_TaskID
        PUBLIC GenericApp_TransID
        PUBLIC GenericApp_epDesc
        PUBLIC InitCRC16
        FUNCTION InitCRC16,0203H
        ARGFRAME XSTACK, 0, STACK
        LOCFRAME ISTACK, 2, STACK
        PUBLIC TxBuffer
        PUBWEAK _A_P1
        PUBLIC auchCRCHi
        PUBLIC auchCRCLo
        PUBLIC calcCRC16
        FUNCTION calcCRC16,021203H
        ARGFRAME XSTACK, 15, STACK
        ARGFRAME IOVERLAY, 0, STATIC
        ARGFRAME DOVERLAY, 0, STATIC
        LOCFRAME ISTACK, 1, STACK
        LOCFRAME XSTACK, 17, STACK
        PUBLIC modbus_rssi
        PUBLIC panId_send
        PUBLIC panId_send_hi
        PUBLIC panId_send_lo
        PUBLIC rssi_send_hi
        PUBLIC rssi_send_lo
        PUBLIC update_addr
        PUBLIC zb_SendDataRequest
        FUNCTION zb_SendDataRequest,021203H
        ARGFRAME XSTACK, 20, STACK
        ARGFRAME IOVERLAY, 0, STATIC
        ARGFRAME DOVERLAY, 0, STATIC
        LOCFRAME ISTACK, 1, STACK
        LOCFRAME XSTACK, 35, STACK
        
        CFI Names cfiNames0
        CFI StackFrame CFA_SP SP IDATA
        CFI StackFrame CFA_PSP16 PSP16 XDATA
        CFI StackFrame CFA_XSP16 XSP16 XDATA
        CFI StaticOverlayFrame CFA_IOVERLAY IOVERLAY
        CFI StaticOverlayFrame CFA_DOVERLAY DOVERLAY
        CFI Resource `PSW.CY`:1, `B.BR0`:1, `B.BR1`:1, `B.BR2`:1, `B.BR3`:1
        CFI Resource `B.BR4`:1, `B.BR5`:1, `B.BR6`:1, `B.BR7`:1, `VB.BR8`:1
        CFI Resource `VB.BR9`:1, `VB.BR10`:1, `VB.BR11`:1, `VB.BR12`:1
        CFI Resource `VB.BR13`:1, `VB.BR14`:1, `VB.BR15`:1, VB:8, B:8, A:8
        CFI Resource PSW:8, DPL0:8, DPH0:8, R0:8, R1:8, R2:8, R3:8, R4:8, R5:8
        CFI Resource R6:8, R7:8, V0:8, V1:8, V2:8, V3:8, V4:8, V5:8, V6:8, V7:8
        CFI Resource V8:8, V9:8, V10:8, V11:8, V12:8, V13:8, V14:8, V15:8, SP:8
        CFI Resource PSPH:8, PSPL:8, PSP16:16, XSPH:8, XSPL:8, XSP16:16
        CFI VirtualResource ?RET:24
        CFI Resource ?BRET_EXT:8
        CFI VirtualResource ?RET_HIGH:8, ?RET_LOW:8
        CFI ResourceParts PSP16 PSPH, PSPL
        CFI ResourceParts XSP16 XSPH, XSPL
        CFI ResourceParts ?RET ?BRET_EXT, ?RET_HIGH, ?RET_LOW
        CFI EndNames cfiNames0
        
        CFI Common cfiCommon0 Using cfiNames0
        CFI CodeAlign 1
        CFI DataAlign -1
        CFI ReturnAddress ?RET CODE
        CFI CFA_DOVERLAY Used
        CFI CFA_IOVERLAY Used
        CFI CFA_SP SP+-3
        CFI CFA_PSP16 PSP16+0
        CFI CFA_XSP16 XSP16+0
        CFI `PSW.CY` SameValue
        CFI `B.BR0` SameValue
        CFI `B.BR1` SameValue
        CFI `B.BR2` SameValue
        CFI `B.BR3` SameValue
        CFI `B.BR4` SameValue
        CFI `B.BR5` SameValue
        CFI `B.BR6` SameValue
        CFI `B.BR7` SameValue
        CFI `VB.BR8` SameValue
        CFI `VB.BR9` SameValue
        CFI `VB.BR10` SameValue
        CFI `VB.BR11` SameValue
        CFI `VB.BR12` SameValue
        CFI `VB.BR13` SameValue
        CFI `VB.BR14` SameValue
        CFI `VB.BR15` SameValue
        CFI VB SameValue
        CFI B Undefined
        CFI A Undefined
        CFI PSW SameValue
        CFI DPL0 SameValue
        CFI DPH0 SameValue
        CFI R0 Undefined
        CFI R1 Undefined
        CFI R2 Undefined
        CFI R3 Undefined
        CFI R4 Undefined
        CFI R5 Undefined
        CFI R6 SameValue
        CFI R7 SameValue
        CFI V0 SameValue
        CFI V1 SameValue
        CFI V2 SameValue
        CFI V3 SameValue
        CFI V4 SameValue
        CFI V5 SameValue
        CFI V6 SameValue
        CFI V7 SameValue
        CFI V8 SameValue
        CFI V9 SameValue
        CFI V10 SameValue
        CFI V11 SameValue
        CFI V12 SameValue
        CFI V13 SameValue
        CFI V14 SameValue
        CFI V15 SameValue
        CFI PSPH Undefined
        CFI PSPL Undefined
        CFI XSPH Undefined
        CFI XSPL Undefined
        CFI ?RET Concat
        CFI ?BRET_EXT Frame(CFA_SP, 3)
        CFI ?RET_HIGH Frame(CFA_SP, 2)
        CFI ?RET_LOW Frame(CFA_SP, 1)
        CFI EndCommon cfiCommon0
        
        
        CFI Common cfiCommon1 Using cfiNames0
        CFI CodeAlign 1
        CFI DataAlign -1
        CFI ReturnAddress ?RET CODE
        CFI CFA_DOVERLAY Used
        CFI CFA_IOVERLAY Used
        CFI CFA_SP SP+-2
        CFI CFA_PSP16 PSP16+0
        CFI CFA_XSP16 XSP16+0
        CFI `PSW.CY` SameValue
        CFI `B.BR0` SameValue
        CFI `B.BR1` SameValue
        CFI `B.BR2` SameValue
        CFI `B.BR3` SameValue
        CFI `B.BR4` SameValue
        CFI `B.BR5` SameValue
        CFI `B.BR6` SameValue
        CFI `B.BR7` SameValue
        CFI `VB.BR8` SameValue
        CFI `VB.BR9` SameValue
        CFI `VB.BR10` SameValue
        CFI `VB.BR11` SameValue
        CFI `VB.BR12` SameValue
        CFI `VB.BR13` SameValue
        CFI `VB.BR14` SameValue
        CFI `VB.BR15` SameValue
        CFI VB SameValue
        CFI B SameValue
        CFI A SameValue
        CFI PSW SameValue
        CFI DPL0 SameValue
        CFI DPH0 SameValue
        CFI R0 SameValue
        CFI R1 SameValue
        CFI R2 SameValue
        CFI R3 SameValue
        CFI R4 SameValue
        CFI R5 SameValue
        CFI R6 SameValue
        CFI R7 SameValue
        CFI V0 SameValue
        CFI V1 SameValue
        CFI V2 SameValue
        CFI V3 SameValue
        CFI V4 SameValue
        CFI V5 SameValue
        CFI V6 SameValue
        CFI V7 SameValue
        CFI V8 SameValue
        CFI V9 SameValue
        CFI V10 SameValue
        CFI V11 SameValue
        CFI V12 SameValue
        CFI V13 SameValue
        CFI V14 SameValue
        CFI V15 SameValue
        CFI PSPH Undefined
        CFI PSPL Undefined
        CFI XSPH Undefined
        CFI XSPL Undefined
        CFI ?RET Concat
        CFI ?BRET_EXT SameValue
        CFI ?RET_HIGH Frame(CFA_SP, 2)
        CFI ?RET_LOW Frame(CFA_SP, 1)
        CFI EndCommon cfiCommon1
        
MT_UartInit         SYMBOL "MT_UartInit"
afRegister          SYMBOL "afRegister"
RegisterForKeys     SYMBOL "RegisterForKeys"
ZDO_RegisterForZDOMsg SYMBOL "ZDO_RegisterForZDOMsg"
osal_set_event      SYMBOL "osal_set_event"
osal_msg_receive    SYMBOL "osal_msg_receive"
osal_msg_deallocate SYMBOL "osal_msg_deallocate"
ZDO_ParseEPListRsp  SYMBOL "ZDO_ParseEPListRsp"
HalLedSet           SYMBOL "HalLedSet"
osal_mem_free       SYMBOL "osal_mem_free"
send_str_Uart       SYMBOL "send_str_Uart"
osal_start_timerEx  SYMBOL "osal_start_timerEx"
AF_DataRequest      SYMBOL "AF_DataRequest"
osal_mem_alloc      SYMBOL "osal_mem_alloc"
osal_memcpy         SYMBOL "osal_memcpy"
??AF_DataRequest?relay SYMBOL "?relay", AF_DataRequest
??HalLedSet?relay   SYMBOL "?relay", HalLedSet
??MT_UartInit?relay SYMBOL "?relay", MT_UartInit
??RegisterForKeys?relay SYMBOL "?relay", RegisterForKeys
??ZDO_ParseEPListRsp?relay SYMBOL "?relay", ZDO_ParseEPListRsp
??ZDO_RegisterForZDOMsg?relay SYMBOL "?relay", ZDO_RegisterForZDOMsg
??afRegister?relay  SYMBOL "?relay", afRegister
??osal_mem_alloc?relay SYMBOL "?relay", osal_mem_alloc
??osal_mem_free?relay SYMBOL "?relay", osal_mem_free
??osal_memcpy?relay SYMBOL "?relay", osal_memcpy
??osal_msg_deallocate?relay SYMBOL "?relay", osal_msg_deallocate
??osal_msg_receive?relay SYMBOL "?relay", osal_msg_receive
??osal_set_event?relay SYMBOL "?relay", osal_set_event
??osal_start_timerEx?relay SYMBOL "?relay", osal_start_timerEx
??send_str_Uart?relay SYMBOL "?relay", send_str_Uart
CRC16_Tstat         SYMBOL "CRC16_Tstat"
??CRC16_Tstat?relay SYMBOL "?relay", CRC16_Tstat
GenericApp_Init     SYMBOL "GenericApp_Init"
??GenericApp_Init?relay SYMBOL "?relay", GenericApp_Init
GenericApp_ProcessEvent SYMBOL "GenericApp_ProcessEvent"
??GenericApp_ProcessEvent?relay SYMBOL "?relay", GenericApp_ProcessEvent
InitCRC16           SYMBOL "InitCRC16"
??InitCRC16?relay   SYMBOL "?relay", InitCRC16
calcCRC16           SYMBOL "calcCRC16"
??calcCRC16?relay   SYMBOL "?relay", calcCRC16
zb_SendDataRequest  SYMBOL "zb_SendDataRequest"
??zb_SendDataRequest?relay SYMBOL "?relay", zb_SendDataRequest

        EXTERN MT_UartInit
        FUNCTION MT_UartInit,0202H
        ARGFRAME ISTACK, 0, STACK
        ARGFRAME PSTACK, 0, STACK
        ARGFRAME XSTACK, 9, STACK
        ARGFRAME IOVERLAY, 0, STATIC
        ARGFRAME DOVERLAY, 0, STATIC
        EXTERN afRegister
        FUNCTION afRegister,0202H
        ARGFRAME ISTACK, 0, STACK
        ARGFRAME PSTACK, 0, STACK
        ARGFRAME XSTACK, 9, STACK
        ARGFRAME IOVERLAY, 0, STATIC
        ARGFRAME DOVERLAY, 0, STATIC
        EXTERN RegisterForKeys
        FUNCTION RegisterForKeys,0202H
        ARGFRAME ISTACK, 0, STACK
        ARGFRAME PSTACK, 0, STACK
        ARGFRAME XSTACK, 9, STACK
        ARGFRAME IOVERLAY, 0, STATIC
        ARGFRAME DOVERLAY, 0, STATIC
        EXTERN ZDO_RegisterForZDOMsg
        FUNCTION ZDO_RegisterForZDOMsg,0202H
        ARGFRAME ISTACK, 0, STACK
        ARGFRAME PSTACK, 0, STACK
        ARGFRAME XSTACK, 9, STACK
        ARGFRAME IOVERLAY, 0, STATIC
        ARGFRAME DOVERLAY, 0, STATIC
        EXTERN osal_set_event
        FUNCTION osal_set_event,0202H
        ARGFRAME ISTACK, 0, STACK
        ARGFRAME PSTACK, 0, STACK
        ARGFRAME XSTACK, 9, STACK
        ARGFRAME IOVERLAY, 0, STATIC
        ARGFRAME DOVERLAY, 0, STATIC
        EXTERN osal_msg_receive
        FUNCTION osal_msg_receive,0202H
        ARGFRAME ISTACK, 0, STACK
        ARGFRAME PSTACK, 0, STACK
        ARGFRAME XSTACK, 15, STACK
        ARGFRAME IOVERLAY, 0, STATIC
        ARGFRAME DOVERLAY, 0, STATIC
        EXTERN osal_msg_deallocate
        FUNCTION osal_msg_deallocate,0202H
        ARGFRAME ISTACK, 0, STACK
        ARGFRAME PSTACK, 0, STACK
        ARGFRAME XSTACK, 15, STACK
        ARGFRAME IOVERLAY, 0, STATIC
        ARGFRAME DOVERLAY, 0, STATIC
        EXTERN ZDO_ParseEPListRsp
        FUNCTION ZDO_ParseEPListRsp,0202H
        ARGFRAME ISTACK, 0, STACK
        ARGFRAME PSTACK, 0, STACK
        ARGFRAME XSTACK, 15, STACK
        ARGFRAME IOVERLAY, 0, STATIC
        ARGFRAME DOVERLAY, 0, STATIC
        EXTERN HalLedSet
        FUNCTION HalLedSet,0202H
        ARGFRAME ISTACK, 0, STACK
        ARGFRAME PSTACK, 0, STACK
        ARGFRAME XSTACK, 15, STACK
        ARGFRAME IOVERLAY, 0, STATIC
        ARGFRAME DOVERLAY, 0, STATIC
        EXTERN osal_mem_free
        FUNCTION osal_mem_free,0202H
        ARGFRAME ISTACK, 0, STACK
        ARGFRAME PSTACK, 0, STACK
        ARGFRAME XSTACK, 15, STACK
        ARGFRAME IOVERLAY, 0, STATIC
        ARGFRAME DOVERLAY, 0, STATIC
        EXTERN send_str_Uart
        FUNCTION send_str_Uart,0202H
        ARGFRAME ISTACK, 0, STACK
        ARGFRAME PSTACK, 0, STACK
        ARGFRAME XSTACK, 15, STACK
        ARGFRAME IOVERLAY, 0, STATIC
        ARGFRAME DOVERLAY, 0, STATIC
        EXTERN osal_start_timerEx
        FUNCTION osal_start_timerEx,0202H
        ARGFRAME ISTACK, 0, STACK
        ARGFRAME PSTACK, 0, STACK
        ARGFRAME XSTACK, 15, STACK
        ARGFRAME IOVERLAY, 0, STATIC
        ARGFRAME DOVERLAY, 0, STATIC
        EXTERN AF_DataRequest
        FUNCTION AF_DataRequest,0202H
        ARGFRAME ISTACK, 0, STACK
        ARGFRAME PSTACK, 0, STACK
        ARGFRAME XSTACK, 35, STACK
        ARGFRAME IOVERLAY, 0, STATIC
        ARGFRAME DOVERLAY, 0, STATIC
        EXTERN osal_mem_alloc
        FUNCTION osal_mem_alloc,0202H
        ARGFRAME ISTACK, 0, STACK
        ARGFRAME PSTACK, 0, STACK
        ARGFRAME XSTACK, 14, STACK
        ARGFRAME IOVERLAY, 0, STATIC
        ARGFRAME DOVERLAY, 0, STATIC
        EXTERN osal_memcpy
        FUNCTION osal_memcpy,0202H
        ARGFRAME ISTACK, 0, STACK
        ARGFRAME PSTACK, 0, STACK
        ARGFRAME XSTACK, 17, STACK
        ARGFRAME IOVERLAY, 0, STATIC
        ARGFRAME DOVERLAY, 0, STATIC
        EXTERN ??AF_DataRequest?relay
        FUNCTION ??AF_DataRequest?relay,00H
        EXTERN ??HalLedSet?relay
        FUNCTION ??HalLedSet?relay,00H
        EXTERN ??MT_UartInit?relay
        FUNCTION ??MT_UartInit?relay,00H
        EXTERN ??RegisterForKeys?relay
        FUNCTION ??RegisterForKeys?relay,00H
        EXTERN ??ZDO_ParseEPListRsp?relay
        FUNCTION ??ZDO_ParseEPListRsp?relay,00H
        EXTERN ??ZDO_RegisterForZDOMsg?relay
        FUNCTION ??ZDO_RegisterForZDOMsg?relay,00H
        EXTERN ??afRegister?relay
        FUNCTION ??afRegister?relay,00H
        EXTERN ??osal_mem_alloc?relay
        FUNCTION ??osal_mem_alloc?relay,00H
        EXTERN ??osal_mem_free?relay
        FUNCTION ??osal_mem_free?relay,00H
        EXTERN ??osal_memcpy?relay
        FUNCTION ??osal_memcpy?relay,00H
        EXTERN ??osal_msg_deallocate?relay
        FUNCTION ??osal_msg_deallocate?relay,00H
        EXTERN ??osal_msg_receive?relay
        FUNCTION ??osal_msg_receive?relay,00H
        EXTERN ??osal_set_event?relay
        FUNCTION ??osal_set_event?relay,00H
        EXTERN ??osal_start_timerEx?relay
        FUNCTION ??osal_start_timerEx?relay,00H
        EXTERN ??send_str_Uart?relay
        FUNCTION ??send_str_Uart?relay,00H
        EXTERN _NIB

// D:\Texas Instruments\ZIG_TEMCO\Projects\zstack\Samples\GenericApp\Source\GenericApp.c
//    1 /******************************************************************************
//    2   Filename:       GenericApp.c
//    3   Revised:        $Date: 2012-03-07 01:04:58 -0800 (Wed, 07 Mar 2012) $
//    4   Revision:       $Revision: 29656 $
//    5 
//    6   Description:    Generic Application (no Profile).
//    7 
//    8 
//    9   Copyright 2004-2012 Texas Instruments Incorporated. All rights reserved.
//   10 
//   11   IMPORTANT: Your use of this Software is limited to those specific rights
//   12   granted under the terms of a software license agreement between the user
//   13   who downloaded the software, his/her employer (which must be your employer)
//   14   and Texas Instruments Incorporated (the "License"). You may not use this
//   15   Software unless you agree to abide by the terms of the License. The License
//   16   limits your use, and you acknowledge, that the Software may not be modified,
//   17   copied or distributed unless embedded on a Texas Instruments microcontroller
//   18   or used solely and exclusively in conjunction with a Texas Instruments radio
//   19   frequency transceiver, which is integrated into your product. Other than for
//   20   the foregoing purpose, you may not use, reproduce, copy, prepare derivative
//   21   works of, modify, distribute, perform, display or sell this Software and/or
//   22   its documentation for any purpose.
//   23 
//   24   YOU FURTHER ACKNOWLEDGE AND AGREE THAT THE SOFTWARE AND DOCUMENTATION ARE
//   25   PROVIDED AS IS?WITHOUT WARRANTY OF ANY KIND, EITHER EXPRESS OR IMPLIED,
//   26   INCLUDING WITHOUT LIMITATION, ANY WARRANTY OF MERCHANTABILITY, TITLE,
//   27   NON-INFRINGEMENT AND FITNESS FOR A PARTICULAR PURPOSE. IN NO EVENT SHALL
//   28   TEXAS INSTRUMENTS OR ITS LICENSORS BE LIABLE OR OBLIGATED UNDER CONTRACT,
//   29   NEGLIGENCE, STRICT LIABILITY, CONTRIBUTION, BREACH OF WARRANTY, OR OTHER
//   30   LEGAL EQUITABLE THEORY ANY DIRECT OR INDIRECT DAMAGES OR EXPENSES
//   31   INCLUDING BUT NOT LIMITED TO ANY INCIDENTAL, SPECIAL, INDIRECT, PUNITIVE
//   32   OR CONSEQUENTIAL DAMAGES, LOST PROFITS OR LOST DATA, COST OF PROCUREMENT
//   33   OF SUBSTITUTE GOODS, TECHNOLOGY, SERVICES, OR ANY CLAIMS BY THIRD PARTIES
//   34   (INCLUDING BUT NOT LIMITED TO ANY DEFENSE THEREOF), OR OTHER SIMILAR COSTS.
//   35 
//   36   Should you have any questions regarding your right to use this Software,
//   37   contact Texas Instruments Incorporated at www.TI.com.
//   38 ******************************************************************************/
//   39 
//   40 /*********************************************************************
//   41   This application isn't intended to do anything useful, it is
//   42   intended to be a simple example of an application's structure.
//   43 
//   44   This application sends "Hello World" to another "Generic"
//   45   application every 5 seconds.  The application will also
//   46   receives "Hello World" packets.
//   47 
//   48   The "Hello World" messages are sent/received as MSG type message.
//   49 
//   50   This applications doesn't have a profile, so it handles everything
//   51   directly - itself.
//   52 
//   53   Key control:
//   54     SW1:
//   55     SW2:  initiates end device binding
//   56     SW3:
//   57     SW4:  initiates a match description request
//   58 *********************************************************************/
//   59 
//   60 /*********************************************************************
//   61  * INCLUDES
//   62  */
//   63 #include "OSAL.h"
//   64 #include "AF.h"
//   65 #include "ZDApp.h"
//   66 #include "ZDObject.h"
//   67 #include "ZDProfile.h"
//   68 
//   69 #include "GenericApp.h"
//   70 #include "DebugTrace.h"
//   71 
//   72 #if !defined( WIN32 )
//   73   #include "OnBoard.h"

        ASEGN SFR_AN:DATA:NOROOT,090H
// union <unnamed> volatile __sfr _A_P1
_A_P1:
        DATA8
        DS 1
//   74 #endif
//   75 
//   76 /* HAL */
//   77 #include "hal_lcd.h"
//   78 #include "hal_led.h"
//   79 #include "hal_key.h"
//   80 #include "hal_uart.h"
//   81 #include "MT_UART.h"
//   82 
//   83 #if defined ( MODBUS_SUPPLY)
//   84   #include "modbus.h"
//   85 #endif
//   86 /*********************************************************************
//   87  * MACROS
//   88  */
//   89 
//   90 /*********************************************************************
//   91  * CONSTANTS
//   92  */
//   93 
//   94 /*********************************************************************
//   95  * TYPEDEFS
//   96  */
//   97 #if defined ( START_ROUTER)
//   98   // signal strength list
//   99   typedef struct signalStrength
//  100   {
//  101     struct signalStrength *next;
//  102     uint8 modbus_id;
//  103     int8 rssi;
//  104   } signalStrength_t;
//  105 #endif
//  106 
//  107 /*********************************************************************
//  108  * GLOBAL VARIABLES
//  109  */
//  110 // This list should be filled with Application specific Cluster IDs.

        RSEG XDATA_ROM_C:CONST:REORDER:NOROOT(0)
        DATA16
//  111 const cId_t GenericApp_ClusterList[GENERICAPP_MAX_CLUSTERS] =
GenericApp_ClusterList:
        DW 2
//  112 {
//  113   GENERICAPP_CLUSTERID
//  114 };
//  115 

        RSEG XDATA_ROM_C:CONST:REORDER:NOROOT(0)
        DATA8
//  116 const SimpleDescriptionFormat_t GenericApp_SimpleDesc =
GenericApp_SimpleDesc:
        DB 2
        DATA16
        DW 3856
        DW 1
        DATA8
        DB 0
        DB 1
        DATA16
        DW GenericApp_ClusterList
        DATA8
        DB 1
        DATA16
        DW GenericApp_ClusterList
//  117 {
//  118   GENERICAPP_ENDPOINT,              //  int Endpoint;
//  119   GENERICAPP_PROFID,                //  uint16 AppProfId[2];
//  120   GENERICAPP_DEVICEID,              //  uint16 AppDeviceId[2];
//  121   GENERICAPP_DEVICE_VERSION,        //  int   AppDevVer:4;
//  122   GENERICAPP_FLAGS,                 //  int   AppFlags:4;
//  123   GENERICAPP_MAX_CLUSTERS,          //  byte  AppNumInClusters;
//  124   (cId_t *)GenericApp_ClusterList,  //  byte *pAppInClusterList;
//  125   GENERICAPP_MAX_CLUSTERS,          //  byte  AppNumInClusters;
//  126   (cId_t *)GenericApp_ClusterList   //  byte *pAppInClusterList;
//  127 };
//  128 
//  129 // This is the Endpoint/Interface description.  It is defined here, but
//  130 // filled-in in GenericApp_Init().  Another way to go would be to fill
//  131 // in the structure here and make it a "const" (in code space).  The
//  132 // way it's defined in this sample app it is define in RAM.

        RSEG XDATA_Z:XDATA:NOROOT(0)
        DATA8
//  133 endPointDesc_t GenericApp_epDesc;
GenericApp_epDesc:
        DS 6
        REQUIRE __INIT_XDATA_Z
//  134 

        RSEG XDATA_Z:XDATA:NOROOT(0)
        DATA8
//  135 Tx_data_t TxBuffer;
TxBuffer:
        DS 514
        REQUIRE __INIT_XDATA_Z
//  136 
//  137 #if defined (START_ROUTER)
//  138   uint8 reg_len;
//  139   uint8 len_check_flag = 0;
//  140   bool ack_exist = TRUE;
//  141   // check tstat modbus id
//  142   uint8 ask_modbus_id[8] = { 0xff, 0x03, 0x00, 0x06, 0x00, 0x01, 0x71, 0xd5};
//  143   uint8 tstat_id = 0;
//  144   signalStrength_t *pSignalStren;
//  145   uint8 numSignalStren = 0;
//  146 #else
//  147   #ifdef PANID_DISPLAY

        RSEG XDATA_Z:XDATA:NOROOT(0)
        DATA8
//  148     bool panId_send = FALSE;
panId_send:
        DS 1
        REQUIRE __INIT_XDATA_Z

        RSEG XDATA_Z:XDATA:NOROOT(0)
        DATA8
//  149     uint8 panId_send_hi, panId_send_lo;
panId_send_hi:
        DS 1
        REQUIRE __INIT_XDATA_Z

        RSEG XDATA_Z:XDATA:NOROOT(0)
        DATA8
panId_send_lo:
        DS 1
        REQUIRE __INIT_XDATA_Z

        RSEG XDATA_Z:XDATA:NOROOT(0)
        DATA8
//  150     uint8 rssi_send_hi, rssi_send_lo;
rssi_send_hi:
        DS 1
        REQUIRE __INIT_XDATA_Z

        RSEG XDATA_Z:XDATA:NOROOT(0)
        DATA8
rssi_send_lo:
        DS 1
        REQUIRE __INIT_XDATA_Z
//  151   #endif

        RSEG XDATA_Z:XDATA:NOROOT(0)
        DATA16
//  152   uint16 update_addr;
update_addr:
        DS 2
        REQUIRE __INIT_XDATA_Z
//  153   
//  154 #endif
//  155 /*********************************************************************
//  156  * EXTERNAL VARIABLES
//  157  */
//  158 
//  159 /*********************************************************************
//  160  * EXTERNAL FUNCTIONS
//  161  */
//  162 
//  163 /*********************************************************************
//  164  * LOCAL VARIABLES
//  165  */

        RSEG XDATA_Z:XDATA:NOROOT(0)
        DATA8
//  166 byte GenericApp_TaskID;   // Task ID for internal task/event processing
GenericApp_TaskID:
        DS 1
        REQUIRE __INIT_XDATA_Z
//  167                           // This variable will be received when
//  168                           // GenericApp_Init() is called.

        RSEG XDATA_Z:XDATA:NOROOT(0)
        DATA8
//  169 devStates_t GenericApp_NwkState;
GenericApp_NwkState:
        DS 1
        REQUIRE __INIT_XDATA_Z
//  170 
//  171 

        RSEG XDATA_Z:XDATA:NOROOT(0)
        DATA8
//  172 byte GenericApp_TransID;  // This is the unique message ID (counter)
GenericApp_TransID:
        DS 1
        REQUIRE __INIT_XDATA_Z
//  173 

        RSEG XDATA_Z:XDATA:NOROOT(0)
        DATA8
//  174 afAddrType_t GenericApp_DstAddr;
GenericApp_DstAddr:
        DS 12
        REQUIRE __INIT_XDATA_Z
//  175 
//  176 /*********************************************************************
//  177  * LOCAL FUNCTIONS
//  178  */
//  179 static void GenericApp_ProcessZDOMsgs( zdoIncomingMsg_t *inMsg );
//  180 static void GenericApp_MessageMSGCB( afIncomingMSGPacket_t *pckt );
//  181 
//  182 afStatus_t zb_SendDataRequest( uint16 destination, uint16 commandId, uint8 len,
//  183                           uint8 *pData, uint8 handle, uint8 txOptions, uint8 radius );
//  184 
//  185 void InitCRC16(void);
//  186 void CRC16_Tstat(unsigned char ch);
//  187 void calcCRC16( uint8* data, uint8 len);
//  188 
//  189 #if defined (START_ROUTER)
//  190   static Status_t register_signalStrength( uint8 modbus_id, int8 rssi);
//  191   static signalStrength_t *findSignalStrength( uint8 modbus_id);
//  192   static void sendAllSignalStren( void);
//  193 #endif
//  194 /*********************************************************************
//  195  * NETWORK LAYER CALLBACKS
//  196  */
//  197 
//  198 /*********************************************************************
//  199  * PUBLIC FUNCTIONS
//  200  */
//  201 
//  202 /*********************************************************************
//  203  * @fn      GenericApp_Init
//  204  *
//  205  * @brief   Initialization function for the Generic App Task.
//  206  *          This is called during initialization and should contain
//  207  *          any application specific initialization (ie. hardware
//  208  *          initialization/setup, table initialization, power up
//  209  *          notificaiton ... ).
//  210  *
//  211  * @param   task_id - the ID assigned by OSAL.  This ID should be
//  212  *                    used to send messages and set timers.
//  213  *
//  214  * @return  none
//  215  */

        RSEG BANKED_CODE:CODE:NOROOT(0)
//  216 void GenericApp_Init( uint8 task_id )
GenericApp_Init:
        CFI Block cfiBlock0 Using cfiCommon0
        CFI Function GenericApp_Init
        CODE
//  217 {
        FUNCALL GenericApp_Init, MT_UartInit
        LOCFRAME ISTACK, 0, STACK
        LOCFRAME PSTACK, 0, STACK
        LOCFRAME XSTACK, 9, STACK
        LOCFRAME IOVERLAY, 0, STATIC
        LOCFRAME DOVERLAY, 0, STATIC
        ARGFRAME ISTACK, 0, STACK
        ARGFRAME PSTACK, 0, STACK
        ARGFRAME XSTACK, 9, STACK
        ARGFRAME IOVERLAY, 0, STATIC
        ARGFRAME DOVERLAY, 0, STATIC
        FUNCALL GenericApp_Init, afRegister
        LOCFRAME ISTACK, 0, STACK
        LOCFRAME PSTACK, 0, STACK
        LOCFRAME XSTACK, 9, STACK
        LOCFRAME IOVERLAY, 0, STATIC
        LOCFRAME DOVERLAY, 0, STATIC
        ARGFRAME ISTACK, 0, STACK
        ARGFRAME PSTACK, 0, STACK
        ARGFRAME XSTACK, 9, STACK
        ARGFRAME IOVERLAY, 0, STATIC
        ARGFRAME DOVERLAY, 0, STATIC
        FUNCALL GenericApp_Init, RegisterForKeys
        LOCFRAME ISTACK, 0, STACK
        LOCFRAME PSTACK, 0, STACK
        LOCFRAME XSTACK, 9, STACK
        LOCFRAME IOVERLAY, 0, STATIC
        LOCFRAME DOVERLAY, 0, STATIC
        ARGFRAME ISTACK, 0, STACK
        ARGFRAME PSTACK, 0, STACK
        ARGFRAME XSTACK, 9, STACK
        ARGFRAME IOVERLAY, 0, STATIC
        ARGFRAME DOVERLAY, 0, STATIC
        FUNCALL GenericApp_Init, ZDO_RegisterForZDOMsg
        LOCFRAME ISTACK, 0, STACK
        LOCFRAME PSTACK, 0, STACK
        LOCFRAME XSTACK, 9, STACK
        LOCFRAME IOVERLAY, 0, STATIC
        LOCFRAME DOVERLAY, 0, STATIC
        ARGFRAME ISTACK, 0, STACK
        ARGFRAME PSTACK, 0, STACK
        ARGFRAME XSTACK, 9, STACK
        ARGFRAME IOVERLAY, 0, STATIC
        ARGFRAME DOVERLAY, 0, STATIC
        FUNCALL GenericApp_Init, ZDO_RegisterForZDOMsg
        LOCFRAME ISTACK, 0, STACK
        LOCFRAME PSTACK, 0, STACK
        LOCFRAME XSTACK, 9, STACK
        LOCFRAME IOVERLAY, 0, STATIC
        LOCFRAME DOVERLAY, 0, STATIC
        ARGFRAME ISTACK, 0, STACK
        ARGFRAME PSTACK, 0, STACK
        ARGFRAME XSTACK, 9, STACK
        ARGFRAME IOVERLAY, 0, STATIC
        ARGFRAME DOVERLAY, 0, STATIC
        FUNCALL GenericApp_Init, osal_set_event
        LOCFRAME ISTACK, 0, STACK
        LOCFRAME PSTACK, 0, STACK
        LOCFRAME XSTACK, 9, STACK
        LOCFRAME IOVERLAY, 0, STATIC
        LOCFRAME DOVERLAY, 0, STATIC
        ARGFRAME ISTACK, 0, STACK
        ARGFRAME PSTACK, 0, STACK
        ARGFRAME XSTACK, 9, STACK
        ARGFRAME IOVERLAY, 0, STATIC
        ARGFRAME DOVERLAY, 0, STATIC
        MOV     A,#-0x9
        LCALL   ?BANKED_ENTER_XDATA
        CFI DPH0 load(1, XDATA, add(CFA_XSP16, literal(-1)))
        CFI DPL0 load(1, XDATA, add(CFA_XSP16, literal(-2)))
        CFI ?BRET_EXT load(1, XDATA, add(CFA_XSP16, literal(-3)))
        CFI ?RET_HIGH load(1, XDATA, add(CFA_XSP16, literal(-4)))
        CFI ?RET_LOW load(1, XDATA, add(CFA_XSP16, literal(-5)))
        CFI R7 load(1, XDATA, add(CFA_XSP16, literal(-6)))
        CFI V0 load(1, XDATA, add(CFA_XSP16, literal(-7)))
        CFI VB load(1, XDATA, add(CFA_XSP16, literal(-8)))
        CFI R6 load(1, XDATA, add(CFA_XSP16, literal(-9)))
        CFI CFA_SP SP+0
        CFI CFA_XSP16 add(XSP16, 9)
        ; Saved register size: 9
        ; Auto size: 0
        MOV     A,R1
        MOV     R6,A
//  218   MT_UartInit();
        ; Setup parameters for call to function MT_UartInit
        LCALL   ??MT_UartInit?relay
//  219   GenericApp_TaskID = task_id;
        MOV     A,R6
        MOV     DPTR,#GenericApp_TaskID
        MOVX    @DPTR,A
//  220   GenericApp_NwkState = DEV_INIT;
        MOV     DPTR,#GenericApp_NwkState
        MOV     A,#0x1
        MOVX    @DPTR,A
//  221   GenericApp_TransID = 0;
        MOV     DPTR,#GenericApp_TransID
        CLR     A
        MOVX    @DPTR,A
//  222 
//  223   // Device hardware initialization can be added here or in main() (Zmain.c).
//  224   // If the hardware is application specific - add it here.
//  225   // If the hardware is other parts of the device add it in main().
//  226 
//  227   GenericApp_DstAddr.addrMode = (afAddrMode_t)AddrNotPresent;
        MOV     DPTR,#GenericApp_DstAddr + 8
        MOVX    @DPTR,A
//  228   GenericApp_DstAddr.endPoint = 0;
        INC     DPTR
        MOVX    @DPTR,A
//  229   GenericApp_DstAddr.addr.shortAddr = 0;
        MOV     DPTR,#GenericApp_DstAddr
        MOVX    @DPTR,A
        INC     DPTR
        MOVX    @DPTR,A
//  230 
//  231   // Fill out the endpoint description.
//  232   GenericApp_epDesc.endPoint = GENERICAPP_ENDPOINT;
        MOV     DPTR,#GenericApp_epDesc
        MOV     A,#0x2
        MOVX    @DPTR,A
//  233   GenericApp_epDesc.task_id = &GenericApp_TaskID;
        INC     DPTR
        MOV     A,#GenericApp_TaskID & 0xff
        MOVX    @DPTR,A
        INC     DPTR
        MOV     A,#(GenericApp_TaskID >> 8) & 0xff
        MOVX    @DPTR,A
//  234   GenericApp_epDesc.simpleDesc
//  235             = (SimpleDescriptionFormat_t *)&GenericApp_SimpleDesc;
        INC     DPTR
        MOV     A,#GenericApp_SimpleDesc & 0xff
        MOVX    @DPTR,A
        INC     DPTR
        MOV     A,#(GenericApp_SimpleDesc >> 8) & 0xff
        MOVX    @DPTR,A
//  236   GenericApp_epDesc.latencyReq = noLatencyReqs;
        INC     DPTR
        CLR     A
        MOVX    @DPTR,A
//  237 
//  238   // Register the endpoint description with the AF
//  239   afRegister( &GenericApp_epDesc );
        ; Setup parameters for call to function afRegister
        MOV     R2,#GenericApp_epDesc & 0xff
        MOV     R3,#(GenericApp_epDesc >> 8) & 0xff
        LCALL   ??afRegister?relay
//  240 
//  241   // Register for all key events - This app will handle all key events
//  242   RegisterForKeys( GenericApp_TaskID );
        ; Setup parameters for call to function RegisterForKeys
        MOV     DPTR,#GenericApp_TaskID
        MOVX    A,@DPTR
        MOV     R1,A
        LCALL   ??RegisterForKeys?relay
//  243 
//  244   // Update the display
//  245 #if defined ( LCD_SUPPORTED )
//  246   HalLcdWriteString( "GenericApp", HAL_LCD_LINE_1 );
//  247 #endif
//  248 
//  249   ZDO_RegisterForZDOMsg( GenericApp_TaskID, End_Device_Bind_rsp );
        ; Setup parameters for call to function ZDO_RegisterForZDOMsg
        MOV     R2,#0x20
        MOV     R3,#-0x80
        MOV     DPTR,#GenericApp_TaskID
        MOVX    A,@DPTR
        MOV     R1,A
        LCALL   ??ZDO_RegisterForZDOMsg?relay
//  250   ZDO_RegisterForZDOMsg( GenericApp_TaskID, Match_Desc_rsp );
        ; Setup parameters for call to function ZDO_RegisterForZDOMsg
        MOV     R2,#0x6
        MOV     R3,#-0x80
        MOV     DPTR,#GenericApp_TaskID
        MOVX    A,@DPTR
        MOV     R1,A
        LCALL   ??ZDO_RegisterForZDOMsg?relay
//  251 
//  252 #if defined START_ROUTER
//  253   //P0SEL &= ~BV(6);
//  254   //P0DIR |= BV(6);
//  255   //P0_6 = 1;
//  256   pSignalStren = (signalStrength_t*)NULL;
//  257 #else
//  258   HAL_TURN_ON_LED1();
        CLR     0x90.0
//  259   osal_set_event(GenericApp_TaskID, TX_MSG_EVENT);    // 用轮询的方法，发送串口消息
        ; Setup parameters for call to function osal_set_event
        MOV     R2,#0x4
        MOV     R3,#0x0
        MOV     DPTR,#GenericApp_TaskID
        MOVX    A,@DPTR
        MOV     R1,A
        LCALL   ??osal_set_event?relay
//  260 #endif
//  261 }
        MOV     R7,#0x1
        LJMP    ?BANKED_LEAVE_XDATA
        CFI EndBlock cfiBlock0
        REQUIRE _A_P1
//  262 
//  263 /*********************************************************************
//  264  * @fn      GenericApp_ProcessEvent
//  265  *
//  266  * @brief   Generic Application Task event processor.  This function
//  267  *          is called to process all events for the task.  Events
//  268  *          include timers, messages and any other user defined events.
//  269  *
//  270  * @param   task_id  - The OSAL assigned task ID.
//  271  * @param   events - events to process.  This is a bit map and can
//  272  *                   contain more than one event.
//  273  *
//  274  * @return  none
//  275  */

        RSEG BANKED_CODE:CODE:NOROOT(0)
//  276 uint16 GenericApp_ProcessEvent( uint8 task_id, uint16 events )
GenericApp_ProcessEvent:
        CFI Block cfiBlock1 Using cfiCommon0
        CFI Function GenericApp_ProcessEvent
        CODE
//  277 {
        FUNCALL GenericApp_ProcessEvent, osal_msg_receive
        LOCFRAME ISTACK, 0, STACK
        LOCFRAME PSTACK, 0, STACK
        LOCFRAME XSTACK, 15, STACK
        LOCFRAME IOVERLAY, 0, STATIC
        LOCFRAME DOVERLAY, 0, STATIC
        ARGFRAME ISTACK, 0, STACK
        ARGFRAME PSTACK, 0, STACK
        ARGFRAME XSTACK, 15, STACK
        ARGFRAME IOVERLAY, 0, STATIC
        ARGFRAME DOVERLAY, 0, STATIC
        FUNCALL GenericApp_ProcessEvent, osal_msg_deallocate
        LOCFRAME ISTACK, 0, STACK
        LOCFRAME PSTACK, 0, STACK
        LOCFRAME XSTACK, 15, STACK
        LOCFRAME IOVERLAY, 0, STATIC
        LOCFRAME DOVERLAY, 0, STATIC
        ARGFRAME ISTACK, 0, STACK
        ARGFRAME PSTACK, 0, STACK
        ARGFRAME XSTACK, 15, STACK
        ARGFRAME IOVERLAY, 0, STATIC
        ARGFRAME DOVERLAY, 0, STATIC
        FUNCALL GenericApp_ProcessEvent, osal_msg_receive
        LOCFRAME ISTACK, 0, STACK
        LOCFRAME PSTACK, 0, STACK
        LOCFRAME XSTACK, 15, STACK
        LOCFRAME IOVERLAY, 0, STATIC
        LOCFRAME DOVERLAY, 0, STATIC
        ARGFRAME ISTACK, 0, STACK
        ARGFRAME PSTACK, 0, STACK
        ARGFRAME XSTACK, 15, STACK
        ARGFRAME IOVERLAY, 0, STATIC
        ARGFRAME DOVERLAY, 0, STATIC
        FUNCALL GenericApp_ProcessEvent, ZDO_ParseEPListRsp
        LOCFRAME ISTACK, 0, STACK
        LOCFRAME PSTACK, 0, STACK
        LOCFRAME XSTACK, 15, STACK
        LOCFRAME IOVERLAY, 0, STATIC
        LOCFRAME DOVERLAY, 0, STATIC
        ARGFRAME ISTACK, 0, STACK
        ARGFRAME PSTACK, 0, STACK
        ARGFRAME XSTACK, 15, STACK
        ARGFRAME IOVERLAY, 0, STATIC
        ARGFRAME DOVERLAY, 0, STATIC
        FUNCALL GenericApp_ProcessEvent, HalLedSet
        LOCFRAME ISTACK, 0, STACK
        LOCFRAME PSTACK, 0, STACK
        LOCFRAME XSTACK, 15, STACK
        LOCFRAME IOVERLAY, 0, STATIC
        LOCFRAME DOVERLAY, 0, STATIC
        ARGFRAME ISTACK, 0, STACK
        ARGFRAME PSTACK, 0, STACK
        ARGFRAME XSTACK, 15, STACK
        ARGFRAME IOVERLAY, 0, STATIC
        ARGFRAME DOVERLAY, 0, STATIC
        FUNCALL GenericApp_ProcessEvent, osal_mem_free
        LOCFRAME ISTACK, 0, STACK
        LOCFRAME PSTACK, 0, STACK
        LOCFRAME XSTACK, 15, STACK
        LOCFRAME IOVERLAY, 0, STATIC
        LOCFRAME DOVERLAY, 0, STATIC
        ARGFRAME ISTACK, 0, STACK
        ARGFRAME PSTACK, 0, STACK
        ARGFRAME XSTACK, 15, STACK
        ARGFRAME IOVERLAY, 0, STATIC
        ARGFRAME DOVERLAY, 0, STATIC
        FUNCALL GenericApp_ProcessEvent, HalLedSet
        LOCFRAME ISTACK, 0, STACK
        LOCFRAME PSTACK, 0, STACK
        LOCFRAME XSTACK, 15, STACK
        LOCFRAME IOVERLAY, 0, STATIC
        LOCFRAME DOVERLAY, 0, STATIC
        ARGFRAME ISTACK, 0, STACK
        ARGFRAME PSTACK, 0, STACK
        ARGFRAME XSTACK, 15, STACK
        ARGFRAME IOVERLAY, 0, STATIC
        ARGFRAME DOVERLAY, 0, STATIC
        FUNCALL GenericApp_ProcessEvent, HalLedSet
        LOCFRAME ISTACK, 0, STACK
        LOCFRAME PSTACK, 0, STACK
        LOCFRAME XSTACK, 15, STACK
        LOCFRAME IOVERLAY, 0, STATIC
        LOCFRAME DOVERLAY, 0, STATIC
        ARGFRAME ISTACK, 0, STACK
        ARGFRAME PSTACK, 0, STACK
        ARGFRAME XSTACK, 15, STACK
        ARGFRAME IOVERLAY, 0, STATIC
        ARGFRAME DOVERLAY, 0, STATIC
        FUNCALL GenericApp_ProcessEvent, zb_SendDataRequest
        LOCFRAME ISTACK, 0, STACK
        LOCFRAME PSTACK, 0, STACK
        LOCFRAME XSTACK, 20, STACK
        LOCFRAME IOVERLAY, 0, STATIC
        LOCFRAME DOVERLAY, 0, STATIC
        ARGFRAME ISTACK, 0, STACK
        ARGFRAME PSTACK, 0, STACK
        ARGFRAME XSTACK, 20, STACK
        ARGFRAME IOVERLAY, 0, STATIC
        ARGFRAME DOVERLAY, 0, STATIC
        FUNCALL GenericApp_ProcessEvent, calcCRC16
        LOCFRAME ISTACK, 0, STACK
        LOCFRAME PSTACK, 0, STACK
        LOCFRAME XSTACK, 15, STACK
        LOCFRAME IOVERLAY, 0, STATIC
        LOCFRAME DOVERLAY, 0, STATIC
        ARGFRAME ISTACK, 0, STACK
        ARGFRAME PSTACK, 0, STACK
        ARGFRAME XSTACK, 15, STACK
        ARGFRAME IOVERLAY, 0, STATIC
        ARGFRAME DOVERLAY, 0, STATIC
        FUNCALL GenericApp_ProcessEvent, send_str_Uart
        LOCFRAME ISTACK, 0, STACK
        LOCFRAME PSTACK, 0, STACK
        LOCFRAME XSTACK, 15, STACK
        LOCFRAME IOVERLAY, 0, STATIC
        LOCFRAME DOVERLAY, 0, STATIC
        ARGFRAME ISTACK, 0, STACK
        ARGFRAME PSTACK, 0, STACK
        ARGFRAME XSTACK, 15, STACK
        ARGFRAME IOVERLAY, 0, STATIC
        ARGFRAME DOVERLAY, 0, STATIC
        FUNCALL GenericApp_ProcessEvent, zb_SendDataRequest
        LOCFRAME ISTACK, 0, STACK
        LOCFRAME PSTACK, 0, STACK
        LOCFRAME XSTACK, 20, STACK
        LOCFRAME IOVERLAY, 0, STATIC
        LOCFRAME DOVERLAY, 0, STATIC
        ARGFRAME ISTACK, 0, STACK
        ARGFRAME PSTACK, 0, STACK
        ARGFRAME XSTACK, 20, STACK
        ARGFRAME IOVERLAY, 0, STATIC
        ARGFRAME DOVERLAY, 0, STATIC
        FUNCALL GenericApp_ProcessEvent, zb_SendDataRequest
        LOCFRAME ISTACK, 0, STACK
        LOCFRAME PSTACK, 0, STACK
        LOCFRAME XSTACK, 20, STACK
        LOCFRAME IOVERLAY, 0, STATIC
        LOCFRAME DOVERLAY, 0, STATIC
        ARGFRAME ISTACK, 0, STACK
        ARGFRAME PSTACK, 0, STACK
        ARGFRAME XSTACK, 20, STACK
        ARGFRAME IOVERLAY, 0, STATIC
        ARGFRAME DOVERLAY, 0, STATIC
        FUNCALL GenericApp_ProcessEvent, zb_SendDataRequest
        LOCFRAME ISTACK, 0, STACK
        LOCFRAME PSTACK, 0, STACK
        LOCFRAME XSTACK, 20, STACK
        LOCFRAME IOVERLAY, 0, STATIC
        LOCFRAME DOVERLAY, 0, STATIC
        ARGFRAME ISTACK, 0, STACK
        ARGFRAME PSTACK, 0, STACK
        ARGFRAME XSTACK, 20, STACK
        ARGFRAME IOVERLAY, 0, STATIC
        ARGFRAME DOVERLAY, 0, STATIC
        FUNCALL GenericApp_ProcessEvent, osal_start_timerEx
        LOCFRAME ISTACK, 0, STACK
        LOCFRAME PSTACK, 0, STACK
        LOCFRAME XSTACK, 15, STACK
        LOCFRAME IOVERLAY, 0, STATIC
        LOCFRAME DOVERLAY, 0, STATIC
        ARGFRAME ISTACK, 0, STACK
        ARGFRAME PSTACK, 0, STACK
        ARGFRAME XSTACK, 15, STACK
        ARGFRAME IOVERLAY, 0, STATIC
        ARGFRAME DOVERLAY, 0, STATIC
        MOV     A,#-0xe
        LCALL   ?BANKED_ENTER_XDATA
        CFI DPH0 load(1, XDATA, add(CFA_XSP16, literal(-1)))
        CFI DPL0 load(1, XDATA, add(CFA_XSP16, literal(-2)))
        CFI ?BRET_EXT load(1, XDATA, add(CFA_XSP16, literal(-3)))
        CFI ?RET_HIGH load(1, XDATA, add(CFA_XSP16, literal(-4)))
        CFI ?RET_LOW load(1, XDATA, add(CFA_XSP16, literal(-5)))
        CFI R7 load(1, XDATA, add(CFA_XSP16, literal(-6)))
        CFI V5 load(1, XDATA, add(CFA_XSP16, literal(-7)))
        CFI V4 load(1, XDATA, add(CFA_XSP16, literal(-8)))
        CFI V3 load(1, XDATA, add(CFA_XSP16, literal(-9)))
        CFI V2 load(1, XDATA, add(CFA_XSP16, literal(-10)))
        CFI V1 load(1, XDATA, add(CFA_XSP16, literal(-11)))
        CFI V0 load(1, XDATA, add(CFA_XSP16, literal(-12)))
        CFI VB load(1, XDATA, add(CFA_XSP16, literal(-13)))
        CFI R6 load(1, XDATA, add(CFA_XSP16, literal(-14)))
        CFI CFA_SP SP+0
        CFI CFA_XSP16 add(XSP16, 14)
        ; Saved register size: 14
        ; Auto size: 1
        MOV     A,#-0x1
        LCALL   ?ALLOC_XSTACK8
        CFI CFA_XSP16 add(XSP16, 15)
        MOV     ?V0 + 0,R2
        MOV     ?V0 + 1,R3
//  278   afIncomingMSGPacket_t *MSGpkt;
//  279   afDataConfirm_t *afDataConfirm;
//  280 
//  281   // Data Confirmation message fields
//  282   byte sentEP;
//  283   ZStatus_t sentStatus;
//  284   byte sentTransID;       // This should match the value sent
//  285   (void)task_id;  // Intentionally unreferenced parameter
//  286 
//  287   if ( events & SYS_EVENT_MSG )
        MOV     A,R3
        ANL     A,#0x80
        JNZ     $+5
        LJMP    ??GenericApp_ProcessEvent_0 & 0xFFFF
//  288   {
//  289     MSGpkt = (afIncomingMSGPacket_t *)osal_msg_receive( GenericApp_TaskID );
        ; Setup parameters for call to function osal_msg_receive
        SJMP    ??GenericApp_ProcessEvent_1
//  290     while ( MSGpkt )
//  291     {
//  292       switch ( MSGpkt->hdr.event )
//  293       {
//  294         case ZDO_CB_MSG:
//  295           GenericApp_ProcessZDOMsgs( (zdoIncomingMsg_t *)MSGpkt );
//  296           break;
//  297 
//  298         case AF_DATA_CONFIRM_CMD:
//  299           // This message is received as a confirmation of a data packet sent.
//  300           // The status is of ZStatus_t type [defined in ZComDef.h]
//  301           // The message fields are defined in AF.h
//  302           afDataConfirm = (afDataConfirm_t *)MSGpkt;
//  303           sentEP = afDataConfirm->endpoint;
//  304           sentStatus = afDataConfirm->hdr.status;
//  305           sentTransID = afDataConfirm->transID;
//  306           (void)sentEP;
//  307           (void)sentTransID;
//  308 
//  309           // Action taken when confirmation is received.
//  310           if ( sentStatus != ZSuccess )
//  311           {
//  312             // The data wasn't delivered -- Do something
//  313           }
//  314           break;
//  315 
//  316         case AF_INCOMING_MSG_CMD:
//  317           GenericApp_MessageMSGCB( MSGpkt );
//  318           break;
//  319 
//  320         case ZDO_STATE_CHANGE:
//  321           GenericApp_NwkState = (devStates_t)(MSGpkt->hdr.status);
??GenericApp_ProcessEvent_2:
        INC     DPTR
        MOVX    A,@DPTR
        MOV     DPTR,#GenericApp_NwkState
        MOVX    @DPTR,A
//  322           if ( (GenericApp_NwkState == DEV_ZB_COORD)
//  323               || (GenericApp_NwkState == DEV_ROUTER)
//  324               || (GenericApp_NwkState == DEV_END_DEVICE) )
//  325           {
//  326 #if defined (START_ROUTER)
//  327             osal_set_event( GenericApp_TaskID, ACK_CHECK);
//  328             osal_set_event( GenericApp_TaskID, ASK_MODBUS_ID);
//  329 #endif
//  330           }
//  331           break;
//  332 
//  333         default:
//  334           break;
//  335       }
//  336 
//  337       // Release the memory
//  338       osal_msg_deallocate( (uint8 *)MSGpkt );
??GenericApp_ProcessEvent_3:
        ; Setup parameters for call to function osal_msg_deallocate
        MOV     A,R6
        MOV     R2,A
        MOV     A,R7
        MOV     R3,A
        LCALL   ??osal_msg_deallocate?relay
//  339 
//  340       // Next
//  341       MSGpkt = (afIncomingMSGPacket_t *)osal_msg_receive( GenericApp_TaskID );
        ; Setup parameters for call to function osal_msg_receive
??GenericApp_ProcessEvent_1:
        MOV     DPTR,#GenericApp_TaskID
        MOVX    A,@DPTR
        MOV     R1,A
        LCALL   ??osal_msg_receive?relay
        MOV     ?V0 + 2,R2
        MOV     ?V0 + 3,R3
        MOV     R6,?V0 + 2
        MOV     R7,?V0 + 3
        MOV     A,R6
        ORL     A,R7
        JNZ     $+5
        LJMP    ??GenericApp_ProcessEvent_4 & 0xFFFF
        MOV     DPL,R6
        MOV     DPH,R7
        MOVX    A,@DPTR
        ADD     A,#-0x1a
        JNZ     $+5
        LJMP    ??GenericApp_ProcessEvent_5 & 0xFFFF
        ADD     A,#0x49
        JZ      ??GenericApp_ProcessEvent_2
        ADD     A,#-0x2
        JNZ     ??GenericApp_ProcessEvent_3
        MOV     A,R6
        ADD     A,#0xc
        MOV     DPL,A
        MOV     A,R7
        ADDC    A,#0x0
        MOV     DPH,A
        LCALL   ?Subroutine5 & 0xFFFF
??CrossCallReturnLabel_8:
        LCALL   ?US_SWITCH_SPARSE
`?<Jumptable for GenericApp_ProcessEvent>_0`:
        DATA
        DATA16
        DATA
        DATA16
        DATA
        DATA16
        DW        0
        DATA
        DATA16
        DATA
        DATA16
        DATA
        DATA16
        DW        2
        DATA
        DATA16
        DATA
        DATA16
        DATA
        DATA16
        DW        32774
        DATA
        DATA16
        DATA
        DATA16
        DATA
        DATA16
        DW        ??GenericApp_ProcessEvent_6
        DATA
        DATA16
        DATA
        DATA16
        DATA
        DATA16
        DW        32800
        DATA
        DATA16
        DATA
        DATA16
        DATA
        DATA16
        DW        ??GenericApp_ProcessEvent_7
        DATA
        DATA16
        DATA
        DATA16
        DW        ??GenericApp_ProcessEvent_3
        CODE
??GenericApp_ProcessEvent_6:
        ; Setup parameters for call to function ZDO_ParseEPListRsp
        MOV     A,R6
        MOV     R2,A
        MOV     A,R7
        MOV     R3,A
        LCALL   ??ZDO_ParseEPListRsp?relay
        MOV     ?V0 + 2,R2
        MOV     ?V0 + 3,R3
        MOV     A,R2
        ORL     A,?V0 + 3
        JZ      ??GenericApp_ProcessEvent_3
        MOV     DPL,R2
        MOV     DPH,R3
        MOVX    A,@DPTR
        JNZ     ??GenericApp_ProcessEvent_8
        INC     DPTR
        INC     DPTR
        INC     DPTR
        MOVX    A,@DPTR
        JZ      ??GenericApp_ProcessEvent_8
        MOV     DPTR,#GenericApp_DstAddr + 8
        MOV     A,#0x2
        MOVX    @DPTR,A
        MOV     DPL,R2
        MOV     DPH,R3
        INC     DPTR
        MOVX    A,@DPTR
        MOV     R0,A
        INC     DPTR
        MOVX    A,@DPTR
        MOV     R1,A
        MOV     DPTR,#GenericApp_DstAddr
        MOV     A,R0
        MOVX    @DPTR,A
        INC     DPTR
        MOV     A,R1
        MOVX    @DPTR,A
        MOV     DPL,R2
        MOV     DPH,R3
        INC     DPTR
        INC     DPTR
        INC     DPTR
        INC     DPTR
        MOVX    A,@DPTR
        MOV     DPTR,#GenericApp_DstAddr + 9
        MOVX    @DPTR,A
        ; Setup parameters for call to function HalLedSet
        MOV     R2,#0x1
        MOV     R1,#0x8
        LCALL   ??HalLedSet?relay
??GenericApp_ProcessEvent_8:
        ; Setup parameters for call to function osal_mem_free
        MOV     R2,?V0 + 2
        MOV     R3,?V0 + 3
        LCALL   ??osal_mem_free?relay
        LJMP    ??GenericApp_ProcessEvent_3 & 0xFFFF
??GenericApp_ProcessEvent_7:
        MOV     A,R6
        ADD     A,#0x13
        LCALL   ?Subroutine4 & 0xFFFF
??CrossCallReturnLabel_6:
        JNZ     ??GenericApp_ProcessEvent_9
        ; Setup parameters for call to function HalLedSet
        MOV     R2,#0x1
??GenericApp_ProcessEvent_10:
        MOV     R1,#0x8
        LCALL   ??HalLedSet?relay
        LJMP    ??GenericApp_ProcessEvent_3 & 0xFFFF
??GenericApp_ProcessEvent_9:
        ; Setup parameters for call to function HalLedSet
        MOV     R2,#0x4
        SJMP    ??GenericApp_ProcessEvent_10
??GenericApp_ProcessEvent_5:
        MOV     DPL,?XSP + 0
        MOV     DPH,?XSP + 1
        MOV     A,#0x1
        MOVX    @DPTR,A
        MOV     DPL,R6
        MOV     DPH,R7
        INC     DPTR
        INC     DPTR
        INC     DPTR
        INC     DPTR
        LCALL   ?Subroutine5 & 0xFFFF
//  342     }
??CrossCallReturnLabel_9:
        LCALL   ?US_SWITCH_DENSE
`?<Jumptable for GenericApp_ProcessEvent>_1`:
        DATA
        DATA16
        DATA
        DATA16
        DW        2
        DATA
        DATA8
        DATA
        DATA8
        DB        1
        DATA
        DATA16
        DATA
        DATA16
        DW        ??GenericApp_ProcessEvent_3
        DATA
        DATA16
        DATA
        DATA16
        DW        ??GenericApp_ProcessEvent_11
        DATA
        DATA16
        DATA
        DATA16
        DW        ??GenericApp_ProcessEvent_12
        CODE
??GenericApp_ProcessEvent_12:
        MOV     A,R6
        ADD     A,#0x22
        LCALL   ?Subroutine4 & 0xFFFF
??CrossCallReturnLabel_7:
        JZ      $+5
        LJMP    ??GenericApp_ProcessEvent_3 & 0xFFFF
        ; Setup parameters for call to function zb_SendDataRequest
        MOV     ?V0 + 2,#0x0
        MOV     R0,#?V0 + 2
        LCALL   ?PUSH_XSTACK_I_ONE
        CFI CFA_XSP16 add(XSP16, 16)
        MOV     ?V0 + 2,#0x10
        MOV     R0,#?V0 + 2
        LCALL   ?PUSH_XSTACK_I_ONE
        CFI CFA_XSP16 add(XSP16, 17)
        MOV     ?V0 + 2,#0x0
        MOV     R0,#?V0 + 2
        LCALL   ?PUSH_XSTACK_I_ONE
        CFI CFA_XSP16 add(XSP16, 18)
        MOV     A,#0x3
        LCALL   ?XSTACK_DISP0_8
        MOV     ?V0 + 2,DPL
        MOV     ?V0 + 3,DPH
        MOV     R0,#?V0 + 2
        LCALL   ?PUSH_XSTACK_I_TWO
        CFI CFA_XSP16 add(XSP16, 20)
        MOV     R1,#0x1
        MOV     R4,#0x3
        MOV     R5,#0x0
        MOV     DPL,R6
        MOV     DPH,R7
        INC     DPTR
        INC     DPTR
        INC     DPTR
        INC     DPTR
        INC     DPTR
        INC     DPTR
        MOVX    A,@DPTR
        MOV     R2,A
        INC     DPTR
        MOVX    A,@DPTR
        MOV     R3,A
        LCALL   ??zb_SendDataRequest?relay
        MOV     A,#0x5
        LCALL   ?DEALLOC_XSTACK8
        CFI CFA_XSP16 add(XSP16, 15)
        LJMP    ??GenericApp_ProcessEvent_3 & 0xFFFF
??GenericApp_ProcessEvent_11:
        MOV     DPL,R6
        MOV     DPH,R7
        INC     DPTR
        INC     DPTR
        INC     DPTR
        INC     DPTR
        INC     DPTR
        INC     DPTR
        MOVX    A,@DPTR
        MOV     R0,A
        INC     DPTR
        MOVX    A,@DPTR
        MOV     R1,A
        MOV     DPTR,#update_addr
        MOV     A,R0
        MOVX    @DPTR,A
        INC     DPTR
        MOV     A,R1
        MOVX    @DPTR,A
        MOV     A,R6
        ADD     A,#0x18
        LCALL   ?Subroutine7 & 0xFFFF
??CrossCallReturnLabel_12:
        MOV     DPTR,#modbus_rssi
        MOVX    @DPTR,A
        MOV     DPTR,#panId_send
        MOVX    A,@DPTR
        XRL     A,#0x1
        JNZ     ??GenericApp_ProcessEvent_13
        CLR     A
        MOVX    @DPTR,A
        ; Setup parameters for call to function calcCRC16
        LCALL   ?Subroutine3 & 0xFFFF
??CrossCallReturnLabel_4:
        LCALL   ??calcCRC16?relay
        LJMP    ??GenericApp_ProcessEvent_3 & 0xFFFF
??GenericApp_ProcessEvent_13:
        ; Setup parameters for call to function send_str_Uart
        MOV     R4,#0x0
        LCALL   ?Subroutine3 & 0xFFFF
??CrossCallReturnLabel_5:
        LCALL   ??send_str_Uart?relay
        LJMP    ??GenericApp_ProcessEvent_3 & 0xFFFF
//  343 
//  344     // return unprocessed events
//  345     return (events ^ SYS_EVENT_MSG);
??GenericApp_ProcessEvent_4:
        MOV     R2,?V0 + 0
        MOV     A,?V0 + 1
        XRL     A,#0x80
        MOV     R3,A
        LJMP    ??GenericApp_ProcessEvent_14 & 0xFFFF
//  346   }
//  347   
//  348 #if defined ( START_ROUTER)
//  349   if ( events & ACK_CHECK)
//  350   {
//  351     uint8 ack_byte = 0;
//  352     if( ack_exist == TRUE)
//  353     {
//  354       zb_SendDataRequest( 0, ACK_CMD_ID, 1, &ack_byte, 
//  355                                0, AF_ACK_REQUEST, 0);
//  356     }
//  357     else
//  358     {
//  359       restore_factory_setting();
//  360     }
//  361     ack_exist = FALSE;
//  362     osal_start_timerEx( GenericApp_TaskID, ACK_CHECK, 10000);   // Every minute check ack, if no receive, restart to join a new network
//  363     return ( events ^ ACK_CHECK);
//  364   }
//  365   // send the command to check tstat modbus id
//  366   if( events & ASK_MODBUS_ID)
//  367   {
//  368     uint8 rssi_byte = 0;
//  369     // to read register 6 of tstat
//  370     if( tstat_id != 0)
//  371     {
//  372       zb_SendDataRequest( 0xffff, RSSI_REQ_ID, 1, &rssi_byte, 
//  373                                0, AF_ACK_REQUEST, 0);
//  374     }
//  375     else
//  376     {
//  377       HalUARTWrite ( 0, ask_modbus_id, 8 );
//  378       len_check_flag = 0;
//  379     }
//  380     // if not received, send again 2 seconds later
//  381     osal_start_timerEx( GenericApp_TaskID, ASK_MODBUS_ID, 2000);
//  382     return ( events ^ ASK_MODBUS_ID);
//  383   }
//  384 #endif  // __defined ( START_ROUTER)
//  385   
//  386   if( events & TX_MSG_EVENT)
??GenericApp_ProcessEvent_0:
        MOV     A,R2
        ANL     A,#0x4
        JNZ     $+5
        LJMP    ??GenericApp_ProcessEvent_15 & 0xFFFF
//  387   {
//  388 #if defined START_ROUTER
//  389     uint16 coord_addr = 0;
//  390     if( TxBuffer.buf[0] == 0xff)        // 用T3000扫描时要回复
//  391     {
//  392       // check whether a tstat modbus id response
//  393       if( (TxBuffer.buf[1] == 0x03) && (TxBuffer.buf[2] == 0x02))
//  394       {
//  395         // store the tstat id
//  396         tstat_id = TxBuffer.buf[4];
//  397       }
//  398       // When the first byte is 0xff, it's a scan command of T3000 software to scan all the nodes.
//  399       zb_SendDataRequest( coord_addr, GENERICAPP_CLUSTERID, TxBuffer.size, TxBuffer.buf, 
//  400                                0, AF_ACK_REQUEST, 0);
//  401       TxBuffer.size = 0;
//  402     }
//  403     else if( (TxBuffer.buf[1] == 0x23) && (TxBuffer.buf[2] == 0x23))
//  404     {
//  405       send_char_Uart(0x23, 0);
//  406       send_char_Uart(numSignalStren, 0);
//  407       sendAllSignalStren();
//  408       TxBuffer.size = 0;
//  409     }
//  410     else
//  411     {
//  412       zb_SendDataRequest( coord_addr, GENERICAPP_CLUSTERID, TxBuffer.size, TxBuffer.buf, 
//  413                                0, AF_ACK_REQUEST, 0);
//  414       TxBuffer.size = 0;
//  415     }
//  416 #else
//  417     if( TxBuffer.size > 5)
        MOV     DPTR,#TxBuffer + 512
        CLR     C
        MOVX    A,@DPTR
        SUBB    A,#0x6
        INC     DPTR
        MOVX    A,@DPTR
        SUBB    A,#0x0
        JNC     $+5
        LJMP    ??GenericApp_ProcessEvent_16 & 0xFFFF
//  418     {
//  419       // the length of scan message is 5
//  420      if( (TxBuffer.buf[0] == 0xff) && ( TxBuffer.buf[1] == 0x19))
        MOV     DPTR,#TxBuffer
        MOVX    A,@DPTR
        CPL     A
        JNZ     ??GenericApp_ProcessEvent_17
        INC     DPTR
        MOVX    A,@DPTR
        XRL     A,#0x19
        JNZ     ??GenericApp_ProcessEvent_17
//  421      {
//  422        // send a broadcast message
//  423        zb_SendDataRequest( 0xFFFF, GENERICAPP_CLUSTERID, 6, TxBuffer.buf, 
//  424                              0, AF_ACK_REQUEST, 0);
        ; Setup parameters for call to function zb_SendDataRequest
        MOV     ?V0 + 2,#0x0
        MOV     R0,#?V0 + 2
        LCALL   ?PUSH_XSTACK_I_ONE
        CFI CFA_XSP16 add(XSP16, 16)
        MOV     ?V0 + 2,#0x10
        MOV     R0,#?V0 + 2
        LCALL   ?PUSH_XSTACK_I_ONE
        CFI CFA_XSP16 add(XSP16, 17)
        MOV     ?V0 + 2,#0x0
        MOV     R0,#?V0 + 2
        LCALL   ?PUSH_XSTACK_I_ONE
        CFI CFA_XSP16 add(XSP16, 18)
        MOV     ?V0 + 2,#TxBuffer & 0xff
        MOV     ?V0 + 3,#(TxBuffer >> 8) & 0xff
        MOV     R0,#?V0 + 2
        LCALL   ?PUSH_XSTACK_I_TWO
        CFI CFA_XSP16 add(XSP16, 20)
        MOV     R1,#0x6
??GenericApp_ProcessEvent_18:
        MOV     R4,#0x2
        MOV     R5,#0x0
        MOV     R2,#-0x1
        MOV     R3,#-0x1
        LJMP    ??GenericApp_ProcessEvent_19 & 0xFFFF
        CFI CFA_XSP16 add(XSP16, 15)
//  425        TxBuffer.size = 0;
//  426      }
//  427      else if( (TxBuffer.buf[1] == 3) || ( TxBuffer.buf[1] == 6))
??GenericApp_ProcessEvent_17:
        MOV     DPTR,#TxBuffer + 1
        MOVX    A,@DPTR
        XRL     A,#0x3
        JZ      ??GenericApp_ProcessEvent_20
        MOVX    A,@DPTR
        XRL     A,#0x6
        JZ      $+5
        LJMP    ??GenericApp_ProcessEvent_21 & 0xFFFF
//  428      {
//  429        // the second byte of read command is 0x03, and write command is 0x06
//  430        if( TxBuffer.size > 7)
??GenericApp_ProcessEvent_20:
        MOV     DPTR,#TxBuffer + 512
        CLR     C
        MOVX    A,@DPTR
        SUBB    A,#0x8
        INC     DPTR
        MOVX    A,@DPTR
        SUBB    A,#0x0
        JNC     $+5
        LJMP    ??GenericApp_ProcessEvent_16 & 0xFFFF
//  431        {
//  432     // 添加发送PANid
//  433     // PanId register need to be writen
//  434   #ifdef PANID_DISPLAY
//  435           if( (TxBuffer.buf[0] != 0xff) && ( TxBuffer.buf[1] == 0x03) && (TxBuffer.buf[3] <= 23))
        MOV     DPTR,#TxBuffer
        MOVX    A,@DPTR
        CPL     A
        JZ      ??GenericApp_ProcessEvent_22
        INC     DPTR
        MOVX    A,@DPTR
        XRL     A,#0x3
        JNZ     ??GenericApp_ProcessEvent_22
        MOV     DPTR,#TxBuffer + 3
        MOVX    A,@DPTR
        CLR     C
        SUBB    A,#0x18
        JNC     ??GenericApp_ProcessEvent_22
//  436           {
//  437             panId_send_lo = 250;
        MOV     DPTR,#panId_send_lo
        MOV     A,#-0x6
        MOVX    @DPTR,A
//  438             panId_send_hi = 250;
        MOV     DPTR,#panId_send_hi
        MOVX    @DPTR,A
//  439             
//  440             panId_send = TRUE;
        MOV     DPTR,#panId_send
        MOV     A,#0x1
        MOVX    @DPTR,A
//  441             for( uint8 i = 0; i < 23; i++)
        MOV     R0,#0x0
//  442             {
//  443               if( i == TxBuffer.buf[3])
??GenericApp_ProcessEvent_23:
        MOV     DPTR,#TxBuffer + 3
        MOVX    A,@DPTR
        XRL     A,R0
        JNZ     ??GenericApp_ProcessEvent_24
//  444               {
//  445                 panId_send_hi = 45 - 2*i;
        MOV     A,R0
        CLR     C
        RLC     A
        MOV     R1,A
        MOV     A,#0x2d
        CLR     C
        SUBB    A,R1
        MOV     DPTR,#panId_send_hi
        MOVX    @DPTR,A
//  446                 panId_send_lo = 46 - 2*i;
        MOV     A,#0x2e
        CLR     C
        SUBB    A,R1
        MOV     DPTR,#panId_send_lo
        MOVX    @DPTR,A
//  447                 rssi_send_hi = 47 - 2*i;
        MOV     A,#0x2f
        CLR     C
        SUBB    A,R1
        MOV     DPTR,#rssi_send_hi
        MOVX    @DPTR,A
//  448                 rssi_send_lo = 48 - 2*i;
        MOV     A,#0x30
        CLR     C
        SUBB    A,R1
        MOV     DPTR,#rssi_send_lo
        MOVX    @DPTR,A
//  449               }
//  450             }
??GenericApp_ProcessEvent_24:
        INC     R0
        MOV     A,R0
        CLR     C
        SUBB    A,#0x17
        JC      ??GenericApp_ProcessEvent_23
//  451           }
//  452   #endif  // __PANID_DISPLAY
//  453   #if defined ( USB_DONGLE)
//  454           if( (TxBuffer.buf[0] == 0xff) || ( TxBuffer.buf[0] == modbus_id))
//  455             modbus_uart_data_process( TxBuffer.buf, TxBuffer.size);
//  456           else
//  457   #endif  // __defined ( USB_DONGLE)
//  458           {
//  459              // the length of read command is 8
//  460              // send a broadcast message
//  461              zb_SendDataRequest( 0xFFFF, GENERICAPP_CLUSTERID, TxBuffer.size, TxBuffer.buf, 
//  462                                  0, AF_ACK_REQUEST, 0);
??GenericApp_ProcessEvent_22:
        ; Setup parameters for call to function zb_SendDataRequest
        MOV     ?V0 + 2,#0x0
        MOV     R0,#?V0 + 2
        LCALL   ?PUSH_XSTACK_I_ONE
        CFI CFA_XSP16 add(XSP16, 16)
        MOV     ?V0 + 2,#0x10
        MOV     R0,#?V0 + 2
        LCALL   ?PUSH_XSTACK_I_ONE
        CFI CFA_XSP16 add(XSP16, 17)
        MOV     ?V0 + 2,#0x0
        MOV     R0,#?V0 + 2
        LCALL   ?PUSH_XSTACK_I_ONE
        CFI CFA_XSP16 add(XSP16, 18)
        MOV     ?V0 + 2,#TxBuffer & 0xff
        MOV     ?V0 + 3,#(TxBuffer >> 8) & 0xff
        MOV     R0,#?V0 + 2
        LCALL   ?PUSH_XSTACK_I_TWO
        CFI CFA_XSP16 add(XSP16, 20)
        MOV     DPTR,#TxBuffer + 512
        MOVX    A,@DPTR
        MOV     R1,A
        LJMP    ??GenericApp_ProcessEvent_18 & 0xFFFF
        CFI CFA_XSP16 add(XSP16, 15)
//  463           }
//  464           TxBuffer.size = 0;
//  465        }
//  466      }
//  467      else if( (TxBuffer.buf[1] == 0x10) && ( TxBuffer.buf[4] == 0x00) && ( TxBuffer.buf[5] == 0x80))
??GenericApp_ProcessEvent_21:
        MOVX    A,@DPTR
        XRL     A,#0x10
        JNZ     ??GenericApp_ProcessEvent_22
        MOV     DPTR,#TxBuffer + 4
        MOVX    A,@DPTR
        JNZ     ??GenericApp_ProcessEvent_22
        INC     DPTR
        MOVX    A,@DPTR
        XRL     A,#0x80
        JNZ     ??GenericApp_ProcessEvent_22
//  468      {
//  469        if( TxBuffer.size > 5)
//  470        {
//  471          if( TxBuffer.size >= (TxBuffer.buf[5] + 9))
        MOV     DPTR,#TxBuffer + 512
        CLR     C
        MOVX    A,@DPTR
        SUBB    A,#-0x77
        INC     DPTR
        MOVX    A,@DPTR
        SUBB    A,#0x0
        JC      ??GenericApp_ProcessEvent_16
//  472          {
//  473            zb_SendDataRequest( update_addr, GENERICAPP_CLUSTERID, TxBuffer.size, TxBuffer.buf, 
//  474                              0, AF_ACK_REQUEST, 0);
        ; Setup parameters for call to function zb_SendDataRequest
        MOV     ?V0 + 2,#0x0
        MOV     R0,#?V0 + 2
        LCALL   ?PUSH_XSTACK_I_ONE
        CFI CFA_XSP16 add(XSP16, 16)
        MOV     ?V0 + 2,#0x10
        MOV     R0,#?V0 + 2
        LCALL   ?PUSH_XSTACK_I_ONE
        CFI CFA_XSP16 add(XSP16, 17)
        MOV     ?V0 + 2,#0x0
        MOV     R0,#?V0 + 2
        LCALL   ?PUSH_XSTACK_I_ONE
        CFI CFA_XSP16 add(XSP16, 18)
        MOV     ?V0 + 2,#TxBuffer & 0xff
        MOV     ?V0 + 3,#(TxBuffer >> 8) & 0xff
        MOV     R0,#?V0 + 2
        LCALL   ?PUSH_XSTACK_I_TWO
        CFI CFA_XSP16 add(XSP16, 20)
        MOV     DPTR,#TxBuffer + 512
        MOVX    A,@DPTR
        MOV     R1,A
        MOV     R4,#0x2
        MOV     R5,#0x0
        MOV     DPTR,#update_addr
        MOVX    A,@DPTR
        MOV     R2,A
        INC     DPTR
        MOVX    A,@DPTR
        MOV     R3,A
??GenericApp_ProcessEvent_19:
        LCALL   ??zb_SendDataRequest?relay
        MOV     A,#0x5
        LCALL   ?DEALLOC_XSTACK8
        CFI CFA_XSP16 add(XSP16, 15)
//  475            TxBuffer.size = 0;
        MOV     DPTR,#TxBuffer + 512
        CLR     A
        MOVX    @DPTR,A
        INC     DPTR
        MOVX    @DPTR,A
//  476          }
//  477        }
//  478      }
//  479      else
//  480      {
//  481        zb_SendDataRequest( 0xFFFF, GENERICAPP_CLUSTERID, TxBuffer.size, TxBuffer.buf, 
//  482                              0, AF_ACK_REQUEST, 0);
//  483        TxBuffer.size = 0;
//  484      }
//  485     }
//  486    // every 25 ms to check if there are uart msg
//  487    osal_start_timerEx( GenericApp_TaskID, TX_MSG_EVENT, 25);    // LJ 每50毫秒轮询一次检测BUFFER里是否有消息要发出
??GenericApp_ProcessEvent_16:
        ; Setup parameters for call to function osal_start_timerEx
        MOV     R4,#0x19
        MOV     R5,#0x0
        MOV     R2,#0x4
        MOV     R3,#0x0
        MOV     DPTR,#GenericApp_TaskID
        MOVX    A,@DPTR
        MOV     R1,A
        LCALL   ??osal_start_timerEx?relay
//  488 #endif  // __defined START_ROUTER
//  489    return ( events ^ TX_MSG_EVENT);
        MOV     A,?V0 + 0
        XRL     A,#0x4
        MOV     R2,A
        MOV     R3,?V0 + 1
        SJMP    ??GenericApp_ProcessEvent_14
//  490   }
//  491 
//  492   // Discard unknown events
//  493   return 0;
??GenericApp_ProcessEvent_15:
        MOV     R2,#0x0
        MOV     R3,#0x0
??GenericApp_ProcessEvent_14:
        MOV     A,#0x1
        CFI EndBlock cfiBlock1
        REQUIRE ?Subroutine0
        ; // Fall through to label ?Subroutine0
//  494 }

        RSEG BANKED_CODE:CODE:NOROOT(0)
?Subroutine0:
        CFI Block cfiBlock2 Using cfiCommon0
        CFI NoFunction
        CFI CFA_SP SP+0
        CFI CFA_XSP16 add(XSP16, 15)
        CFI VB load(1, XDATA, add(CFA_XSP16, literal(-13)))
        CFI DPL0 load(1, XDATA, add(CFA_XSP16, literal(-2)))
        CFI DPH0 load(1, XDATA, add(CFA_XSP16, literal(-1)))
        CFI R6 load(1, XDATA, add(CFA_XSP16, literal(-14)))
        CFI R7 load(1, XDATA, add(CFA_XSP16, literal(-6)))
        CFI V0 load(1, XDATA, add(CFA_XSP16, literal(-12)))
        CFI V1 load(1, XDATA, add(CFA_XSP16, literal(-11)))
        CFI V2 load(1, XDATA, add(CFA_XSP16, literal(-10)))
        CFI V3 load(1, XDATA, add(CFA_XSP16, literal(-9)))
        CFI V4 load(1, XDATA, add(CFA_XSP16, literal(-8)))
        CFI V5 load(1, XDATA, add(CFA_XSP16, literal(-7)))
        CFI ?BRET_EXT load(1, XDATA, add(CFA_XSP16, literal(-3)))
        CFI ?RET_HIGH load(1, XDATA, add(CFA_XSP16, literal(-4)))
        CFI ?RET_LOW load(1, XDATA, add(CFA_XSP16, literal(-5)))
        CFI Invalid
        LCALL   ?DEALLOC_XSTACK8
        CFI EndBlock cfiBlock2
        REQUIRE ??Subroutine8_0
        ; // Fall through to label ??Subroutine8_0

        RSEG BANKED_CODE:CODE:NOROOT(0)
??Subroutine8_0:
        CFI Block cfiBlock3 Using cfiCommon0
        CFI NoFunction
        CFI CFA_SP SP+0
        CFI CFA_XSP16 add(XSP16, 14)
        CFI VB load(1, XDATA, add(CFA_XSP16, literal(-13)))
        CFI DPL0 load(1, XDATA, add(CFA_XSP16, literal(-2)))
        CFI DPH0 load(1, XDATA, add(CFA_XSP16, literal(-1)))
        CFI R6 load(1, XDATA, add(CFA_XSP16, literal(-14)))
        CFI R7 load(1, XDATA, add(CFA_XSP16, literal(-6)))
        CFI V0 load(1, XDATA, add(CFA_XSP16, literal(-12)))
        CFI V1 load(1, XDATA, add(CFA_XSP16, literal(-11)))
        CFI V2 load(1, XDATA, add(CFA_XSP16, literal(-10)))
        CFI V3 load(1, XDATA, add(CFA_XSP16, literal(-9)))
        CFI V4 load(1, XDATA, add(CFA_XSP16, literal(-8)))
        CFI V5 load(1, XDATA, add(CFA_XSP16, literal(-7)))
        CFI ?BRET_EXT load(1, XDATA, add(CFA_XSP16, literal(-3)))
        CFI ?RET_HIGH load(1, XDATA, add(CFA_XSP16, literal(-4)))
        CFI ?RET_LOW load(1, XDATA, add(CFA_XSP16, literal(-5)))
        MOV     R7,#0x6
        LJMP    ?BANKED_LEAVE_XDATA
        CFI EndBlock cfiBlock3

        RSEG BANKED_CODE:CODE:NOROOT(0)
?Subroutine5:
        CFI Block cfiCond4 Using cfiCommon0
        CFI NoFunction
        CFI Conditional ??CrossCallReturnLabel_8
        CFI R6 load(1, XDATA, add(CFA_XSP16, literal(-14)))
        CFI VB load(1, XDATA, add(CFA_XSP16, literal(-13)))
        CFI V0 load(1, XDATA, add(CFA_XSP16, literal(-12)))
        CFI V1 load(1, XDATA, add(CFA_XSP16, literal(-11)))
        CFI V2 load(1, XDATA, add(CFA_XSP16, literal(-10)))
        CFI V3 load(1, XDATA, add(CFA_XSP16, literal(-9)))
        CFI V4 load(1, XDATA, add(CFA_XSP16, literal(-8)))
        CFI V5 load(1, XDATA, add(CFA_XSP16, literal(-7)))
        CFI R7 load(1, XDATA, add(CFA_XSP16, literal(-6)))
        CFI ?RET_LOW load(1, XDATA, add(CFA_XSP16, literal(-5)))
        CFI ?RET_HIGH load(1, XDATA, add(CFA_XSP16, literal(-4)))
        CFI ?BRET_EXT load(1, XDATA, add(CFA_XSP16, literal(-3)))
        CFI DPL0 load(1, XDATA, add(CFA_XSP16, literal(-2)))
        CFI DPH0 load(1, XDATA, add(CFA_XSP16, literal(-1)))
        CFI CFA_SP SP+0
        CFI CFA_XSP16 add(XSP16, 15)
        CFI Block cfiCond5 Using cfiCommon0
        CFI (cfiCond5) NoFunction
        CFI (cfiCond5) Conditional ??CrossCallReturnLabel_9
        CFI (cfiCond5) R6 load(1, XDATA, add(CFA_XSP16, literal(-14)))
        CFI (cfiCond5) VB load(1, XDATA, add(CFA_XSP16, literal(-13)))
        CFI (cfiCond5) V0 load(1, XDATA, add(CFA_XSP16, literal(-12)))
        CFI (cfiCond5) V1 load(1, XDATA, add(CFA_XSP16, literal(-11)))
        CFI (cfiCond5) V2 load(1, XDATA, add(CFA_XSP16, literal(-10)))
        CFI (cfiCond5) V3 load(1, XDATA, add(CFA_XSP16, literal(-9)))
        CFI (cfiCond5) V4 load(1, XDATA, add(CFA_XSP16, literal(-8)))
        CFI (cfiCond5) V5 load(1, XDATA, add(CFA_XSP16, literal(-7)))
        CFI (cfiCond5) R7 load(1, XDATA, add(CFA_XSP16, literal(-6)))
        CFI (cfiCond5) ?RET_LOW load(1, XDATA, add(CFA_XSP16, literal(-5)))
        CFI (cfiCond5) ?RET_HIGH load(1, XDATA, add(CFA_XSP16, literal(-4)))
        CFI (cfiCond5) ?BRET_EXT load(1, XDATA, add(CFA_XSP16, literal(-3)))
        CFI (cfiCond5) DPL0 load(1, XDATA, add(CFA_XSP16, literal(-2)))
        CFI (cfiCond5) DPH0 load(1, XDATA, add(CFA_XSP16, literal(-1)))
        CFI (cfiCond5) CFA_SP SP+0
        CFI (cfiCond5) CFA_XSP16 add(XSP16, 15)
        CFI Block cfiPicker6 Using cfiCommon1
        CFI (cfiPicker6) NoFunction
        CFI (cfiPicker6) Picker
        MOVX    A,@DPTR
        MOV     ?V0 + 2,A
        INC     DPTR
        MOVX    A,@DPTR
        MOV     ?V0 + 3,A
        MOV     R0,#?V0 + 2
        RET
        CFI EndBlock cfiCond4
        CFI EndBlock cfiCond5
        CFI EndBlock cfiPicker6

        RSEG BANKED_CODE:CODE:NOROOT(0)
?Subroutine4:
        CFI Block cfiCond7 Using cfiCommon0
        CFI NoFunction
        CFI Conditional ??CrossCallReturnLabel_6
        CFI R6 load(1, XDATA, add(CFA_XSP16, literal(-14)))
        CFI VB load(1, XDATA, add(CFA_XSP16, literal(-13)))
        CFI V0 load(1, XDATA, add(CFA_XSP16, literal(-12)))
        CFI V1 load(1, XDATA, add(CFA_XSP16, literal(-11)))
        CFI V2 load(1, XDATA, add(CFA_XSP16, literal(-10)))
        CFI V3 load(1, XDATA, add(CFA_XSP16, literal(-9)))
        CFI V4 load(1, XDATA, add(CFA_XSP16, literal(-8)))
        CFI V5 load(1, XDATA, add(CFA_XSP16, literal(-7)))
        CFI R7 load(1, XDATA, add(CFA_XSP16, literal(-6)))
        CFI ?RET_LOW load(1, XDATA, add(CFA_XSP16, literal(-5)))
        CFI ?RET_HIGH load(1, XDATA, add(CFA_XSP16, literal(-4)))
        CFI ?BRET_EXT load(1, XDATA, add(CFA_XSP16, literal(-3)))
        CFI DPL0 load(1, XDATA, add(CFA_XSP16, literal(-2)))
        CFI DPH0 load(1, XDATA, add(CFA_XSP16, literal(-1)))
        CFI CFA_SP SP+0
        CFI CFA_XSP16 add(XSP16, 15)
        CFI Block cfiCond8 Using cfiCommon0
        CFI (cfiCond8) NoFunction
        CFI (cfiCond8) Conditional ??CrossCallReturnLabel_7
        CFI (cfiCond8) R6 load(1, XDATA, add(CFA_XSP16, literal(-14)))
        CFI (cfiCond8) VB load(1, XDATA, add(CFA_XSP16, literal(-13)))
        CFI (cfiCond8) V0 load(1, XDATA, add(CFA_XSP16, literal(-12)))
        CFI (cfiCond8) V1 load(1, XDATA, add(CFA_XSP16, literal(-11)))
        CFI (cfiCond8) V2 load(1, XDATA, add(CFA_XSP16, literal(-10)))
        CFI (cfiCond8) V3 load(1, XDATA, add(CFA_XSP16, literal(-9)))
        CFI (cfiCond8) V4 load(1, XDATA, add(CFA_XSP16, literal(-8)))
        CFI (cfiCond8) V5 load(1, XDATA, add(CFA_XSP16, literal(-7)))
        CFI (cfiCond8) R7 load(1, XDATA, add(CFA_XSP16, literal(-6)))
        CFI (cfiCond8) ?RET_LOW load(1, XDATA, add(CFA_XSP16, literal(-5)))
        CFI (cfiCond8) ?RET_HIGH load(1, XDATA, add(CFA_XSP16, literal(-4)))
        CFI (cfiCond8) ?BRET_EXT load(1, XDATA, add(CFA_XSP16, literal(-3)))
        CFI (cfiCond8) DPL0 load(1, XDATA, add(CFA_XSP16, literal(-2)))
        CFI (cfiCond8) DPH0 load(1, XDATA, add(CFA_XSP16, literal(-1)))
        CFI (cfiCond8) CFA_SP SP+0
        CFI (cfiCond8) CFA_XSP16 add(XSP16, 15)
        CFI Block cfiPicker9 Using cfiCommon1
        CFI (cfiPicker9) NoFunction
        CFI (cfiPicker9) Picker
        LCALL   ?Subroutine7 & 0xFFFF
??CrossCallReturnLabel_16:
        MOV     R0,A
        INC     DPTR
        MOVX    A,@DPTR
        MOV     DPH,A
        MOV     DPL,R0
        MOVX    A,@DPTR
        RET
        CFI EndBlock cfiCond7
        CFI EndBlock cfiCond8
        CFI EndBlock cfiPicker9

        RSEG BANKED_CODE:CODE:NOROOT(0)
?Subroutine3:
        CFI Block cfiCond10 Using cfiCommon0
        CFI NoFunction
        CFI Conditional ??CrossCallReturnLabel_4
        CFI R6 load(1, XDATA, add(CFA_XSP16, literal(-14)))
        CFI VB load(1, XDATA, add(CFA_XSP16, literal(-13)))
        CFI V0 load(1, XDATA, add(CFA_XSP16, literal(-12)))
        CFI V1 load(1, XDATA, add(CFA_XSP16, literal(-11)))
        CFI V2 load(1, XDATA, add(CFA_XSP16, literal(-10)))
        CFI V3 load(1, XDATA, add(CFA_XSP16, literal(-9)))
        CFI V4 load(1, XDATA, add(CFA_XSP16, literal(-8)))
        CFI V5 load(1, XDATA, add(CFA_XSP16, literal(-7)))
        CFI R7 load(1, XDATA, add(CFA_XSP16, literal(-6)))
        CFI ?RET_LOW load(1, XDATA, add(CFA_XSP16, literal(-5)))
        CFI ?RET_HIGH load(1, XDATA, add(CFA_XSP16, literal(-4)))
        CFI ?BRET_EXT load(1, XDATA, add(CFA_XSP16, literal(-3)))
        CFI DPL0 load(1, XDATA, add(CFA_XSP16, literal(-2)))
        CFI DPH0 load(1, XDATA, add(CFA_XSP16, literal(-1)))
        CFI CFA_SP SP+0
        CFI CFA_XSP16 add(XSP16, 15)
        CFI Block cfiCond11 Using cfiCommon0
        CFI (cfiCond11) NoFunction
        CFI (cfiCond11) Conditional ??CrossCallReturnLabel_5
        CFI (cfiCond11) R6 load(1, XDATA, add(CFA_XSP16, literal(-14)))
        CFI (cfiCond11) VB load(1, XDATA, add(CFA_XSP16, literal(-13)))
        CFI (cfiCond11) V0 load(1, XDATA, add(CFA_XSP16, literal(-12)))
        CFI (cfiCond11) V1 load(1, XDATA, add(CFA_XSP16, literal(-11)))
        CFI (cfiCond11) V2 load(1, XDATA, add(CFA_XSP16, literal(-10)))
        CFI (cfiCond11) V3 load(1, XDATA, add(CFA_XSP16, literal(-9)))
        CFI (cfiCond11) V4 load(1, XDATA, add(CFA_XSP16, literal(-8)))
        CFI (cfiCond11) V5 load(1, XDATA, add(CFA_XSP16, literal(-7)))
        CFI (cfiCond11) R7 load(1, XDATA, add(CFA_XSP16, literal(-6)))
        CFI (cfiCond11) ?RET_LOW load(1, XDATA, add(CFA_XSP16, literal(-5)))
        CFI (cfiCond11) ?RET_HIGH load(1, XDATA, add(CFA_XSP16, literal(-4)))
        CFI (cfiCond11) ?BRET_EXT load(1, XDATA, add(CFA_XSP16, literal(-3)))
        CFI (cfiCond11) DPL0 load(1, XDATA, add(CFA_XSP16, literal(-2)))
        CFI (cfiCond11) DPH0 load(1, XDATA, add(CFA_XSP16, literal(-1)))
        CFI (cfiCond11) CFA_SP SP+0
        CFI (cfiCond11) CFA_XSP16 add(XSP16, 15)
        CFI Block cfiPicker12 Using cfiCommon1
        CFI (cfiPicker12) NoFunction
        CFI (cfiPicker12) Picker
        MOV     A,R6
        ADD     A,#0x20
        LCALL   ?Subroutine7 & 0xFFFF
??CrossCallReturnLabel_14:
        MOV     R1,A
        MOV     A,R6
        ADD     A,#0x22
        LCALL   ?Subroutine7 & 0xFFFF
??CrossCallReturnLabel_15:
        MOV     R2,A
        INC     DPTR
        MOVX    A,@DPTR
        MOV     R3,A
        RET
        CFI EndBlock cfiCond10
        CFI EndBlock cfiCond11
        CFI EndBlock cfiPicker12

        RSEG BANKED_CODE:CODE:NOROOT(0)
?Subroutine7:
        CFI Block cfiCond13 Using cfiCommon0
        CFI NoFunction
        CFI Conditional ??CrossCallReturnLabel_12
        CFI R6 load(1, XDATA, add(CFA_XSP16, literal(-14)))
        CFI VB load(1, XDATA, add(CFA_XSP16, literal(-13)))
        CFI V0 load(1, XDATA, add(CFA_XSP16, literal(-12)))
        CFI V1 load(1, XDATA, add(CFA_XSP16, literal(-11)))
        CFI V2 load(1, XDATA, add(CFA_XSP16, literal(-10)))
        CFI V3 load(1, XDATA, add(CFA_XSP16, literal(-9)))
        CFI V4 load(1, XDATA, add(CFA_XSP16, literal(-8)))
        CFI V5 load(1, XDATA, add(CFA_XSP16, literal(-7)))
        CFI R7 load(1, XDATA, add(CFA_XSP16, literal(-6)))
        CFI ?RET_LOW load(1, XDATA, add(CFA_XSP16, literal(-5)))
        CFI ?RET_HIGH load(1, XDATA, add(CFA_XSP16, literal(-4)))
        CFI ?BRET_EXT load(1, XDATA, add(CFA_XSP16, literal(-3)))
        CFI DPL0 load(1, XDATA, add(CFA_XSP16, literal(-2)))
        CFI DPH0 load(1, XDATA, add(CFA_XSP16, literal(-1)))
        CFI CFA_SP SP+0
        CFI CFA_XSP16 add(XSP16, 15)
        CFI Block cfiCond14 Using cfiCommon0
        CFI (cfiCond14) NoFunction
        CFI (cfiCond14) Conditional ??CrossCallReturnLabel_16, ??CrossCallReturnLabel_6
        CFI (cfiCond14) R6 load(1, XDATA, add(CFA_XSP16, literal(-14)))
        CFI (cfiCond14) VB load(1, XDATA, add(CFA_XSP16, literal(-13)))
        CFI (cfiCond14) V0 load(1, XDATA, add(CFA_XSP16, literal(-12)))
        CFI (cfiCond14) V1 load(1, XDATA, add(CFA_XSP16, literal(-11)))
        CFI (cfiCond14) V2 load(1, XDATA, add(CFA_XSP16, literal(-10)))
        CFI (cfiCond14) V3 load(1, XDATA, add(CFA_XSP16, literal(-9)))
        CFI (cfiCond14) V4 load(1, XDATA, add(CFA_XSP16, literal(-8)))
        CFI (cfiCond14) V5 load(1, XDATA, add(CFA_XSP16, literal(-7)))
        CFI (cfiCond14) R7 load(1, XDATA, add(CFA_XSP16, literal(-6)))
        CFI (cfiCond14) ?RET_LOW load(1, XDATA, add(CFA_XSP16, literal(-5)))
        CFI (cfiCond14) ?RET_HIGH load(1, XDATA, add(CFA_XSP16, literal(-4)))
        CFI (cfiCond14) ?BRET_EXT load(1, XDATA, add(CFA_XSP16, literal(-3)))
        CFI (cfiCond14) DPL0 load(1, XDATA, add(CFA_XSP16, literal(-2)))
        CFI (cfiCond14) DPH0 load(1, XDATA, add(CFA_XSP16, literal(-1)))
        CFI (cfiCond14) CFA_SP SP+0
        CFI (cfiCond14) CFA_XSP16 add(XSP16, 15)
        CFI Block cfiCond15 Using cfiCommon0
        CFI (cfiCond15) NoFunction
        CFI (cfiCond15) Conditional ??CrossCallReturnLabel_16, ??CrossCallReturnLabel_7
        CFI (cfiCond15) R6 load(1, XDATA, add(CFA_XSP16, literal(-14)))
        CFI (cfiCond15) VB load(1, XDATA, add(CFA_XSP16, literal(-13)))
        CFI (cfiCond15) V0 load(1, XDATA, add(CFA_XSP16, literal(-12)))
        CFI (cfiCond15) V1 load(1, XDATA, add(CFA_XSP16, literal(-11)))
        CFI (cfiCond15) V2 load(1, XDATA, add(CFA_XSP16, literal(-10)))
        CFI (cfiCond15) V3 load(1, XDATA, add(CFA_XSP16, literal(-9)))
        CFI (cfiCond15) V4 load(1, XDATA, add(CFA_XSP16, literal(-8)))
        CFI (cfiCond15) V5 load(1, XDATA, add(CFA_XSP16, literal(-7)))
        CFI (cfiCond15) R7 load(1, XDATA, add(CFA_XSP16, literal(-6)))
        CFI (cfiCond15) ?RET_LOW load(1, XDATA, add(CFA_XSP16, literal(-5)))
        CFI (cfiCond15) ?RET_HIGH load(1, XDATA, add(CFA_XSP16, literal(-4)))
        CFI (cfiCond15) ?BRET_EXT load(1, XDATA, add(CFA_XSP16, literal(-3)))
        CFI (cfiCond15) DPL0 load(1, XDATA, add(CFA_XSP16, literal(-2)))
        CFI (cfiCond15) DPH0 load(1, XDATA, add(CFA_XSP16, literal(-1)))
        CFI (cfiCond15) CFA_SP SP+0
        CFI (cfiCond15) CFA_XSP16 add(XSP16, 15)
        CFI Block cfiCond16 Using cfiCommon0
        CFI (cfiCond16) NoFunction
        CFI (cfiCond16) Conditional ??CrossCallReturnLabel_14, ??CrossCallReturnLabel_4
        CFI (cfiCond16) R6 load(1, XDATA, add(CFA_XSP16, literal(-14)))
        CFI (cfiCond16) VB load(1, XDATA, add(CFA_XSP16, literal(-13)))
        CFI (cfiCond16) V0 load(1, XDATA, add(CFA_XSP16, literal(-12)))
        CFI (cfiCond16) V1 load(1, XDATA, add(CFA_XSP16, literal(-11)))
        CFI (cfiCond16) V2 load(1, XDATA, add(CFA_XSP16, literal(-10)))
        CFI (cfiCond16) V3 load(1, XDATA, add(CFA_XSP16, literal(-9)))
        CFI (cfiCond16) V4 load(1, XDATA, add(CFA_XSP16, literal(-8)))
        CFI (cfiCond16) V5 load(1, XDATA, add(CFA_XSP16, literal(-7)))
        CFI (cfiCond16) R7 load(1, XDATA, add(CFA_XSP16, literal(-6)))
        CFI (cfiCond16) ?RET_LOW load(1, XDATA, add(CFA_XSP16, literal(-5)))
        CFI (cfiCond16) ?RET_HIGH load(1, XDATA, add(CFA_XSP16, literal(-4)))
        CFI (cfiCond16) ?BRET_EXT load(1, XDATA, add(CFA_XSP16, literal(-3)))
        CFI (cfiCond16) DPL0 load(1, XDATA, add(CFA_XSP16, literal(-2)))
        CFI (cfiCond16) DPH0 load(1, XDATA, add(CFA_XSP16, literal(-1)))
        CFI (cfiCond16) CFA_SP SP+0
        CFI (cfiCond16) CFA_XSP16 add(XSP16, 15)
        CFI Block cfiCond17 Using cfiCommon0
        CFI (cfiCond17) NoFunction
        CFI (cfiCond17) Conditional ??CrossCallReturnLabel_14, ??CrossCallReturnLabel_5
        CFI (cfiCond17) R6 load(1, XDATA, add(CFA_XSP16, literal(-14)))
        CFI (cfiCond17) VB load(1, XDATA, add(CFA_XSP16, literal(-13)))
        CFI (cfiCond17) V0 load(1, XDATA, add(CFA_XSP16, literal(-12)))
        CFI (cfiCond17) V1 load(1, XDATA, add(CFA_XSP16, literal(-11)))
        CFI (cfiCond17) V2 load(1, XDATA, add(CFA_XSP16, literal(-10)))
        CFI (cfiCond17) V3 load(1, XDATA, add(CFA_XSP16, literal(-9)))
        CFI (cfiCond17) V4 load(1, XDATA, add(CFA_XSP16, literal(-8)))
        CFI (cfiCond17) V5 load(1, XDATA, add(CFA_XSP16, literal(-7)))
        CFI (cfiCond17) R7 load(1, XDATA, add(CFA_XSP16, literal(-6)))
        CFI (cfiCond17) ?RET_LOW load(1, XDATA, add(CFA_XSP16, literal(-5)))
        CFI (cfiCond17) ?RET_HIGH load(1, XDATA, add(CFA_XSP16, literal(-4)))
        CFI (cfiCond17) ?BRET_EXT load(1, XDATA, add(CFA_XSP16, literal(-3)))
        CFI (cfiCond17) DPL0 load(1, XDATA, add(CFA_XSP16, literal(-2)))
        CFI (cfiCond17) DPH0 load(1, XDATA, add(CFA_XSP16, literal(-1)))
        CFI (cfiCond17) CFA_SP SP+0
        CFI (cfiCond17) CFA_XSP16 add(XSP16, 15)
        CFI Block cfiCond18 Using cfiCommon0
        CFI (cfiCond18) NoFunction
        CFI (cfiCond18) Conditional ??CrossCallReturnLabel_15, ??CrossCallReturnLabel_4
        CFI (cfiCond18) R6 load(1, XDATA, add(CFA_XSP16, literal(-14)))
        CFI (cfiCond18) VB load(1, XDATA, add(CFA_XSP16, literal(-13)))
        CFI (cfiCond18) V0 load(1, XDATA, add(CFA_XSP16, literal(-12)))
        CFI (cfiCond18) V1 load(1, XDATA, add(CFA_XSP16, literal(-11)))
        CFI (cfiCond18) V2 load(1, XDATA, add(CFA_XSP16, literal(-10)))
        CFI (cfiCond18) V3 load(1, XDATA, add(CFA_XSP16, literal(-9)))
        CFI (cfiCond18) V4 load(1, XDATA, add(CFA_XSP16, literal(-8)))
        CFI (cfiCond18) V5 load(1, XDATA, add(CFA_XSP16, literal(-7)))
        CFI (cfiCond18) R7 load(1, XDATA, add(CFA_XSP16, literal(-6)))
        CFI (cfiCond18) ?RET_LOW load(1, XDATA, add(CFA_XSP16, literal(-5)))
        CFI (cfiCond18) ?RET_HIGH load(1, XDATA, add(CFA_XSP16, literal(-4)))
        CFI (cfiCond18) ?BRET_EXT load(1, XDATA, add(CFA_XSP16, literal(-3)))
        CFI (cfiCond18) DPL0 load(1, XDATA, add(CFA_XSP16, literal(-2)))
        CFI (cfiCond18) DPH0 load(1, XDATA, add(CFA_XSP16, literal(-1)))
        CFI (cfiCond18) CFA_SP SP+0
        CFI (cfiCond18) CFA_XSP16 add(XSP16, 15)
        CFI Block cfiCond19 Using cfiCommon0
        CFI (cfiCond19) NoFunction
        CFI (cfiCond19) Conditional ??CrossCallReturnLabel_15, ??CrossCallReturnLabel_5
        CFI (cfiCond19) R6 load(1, XDATA, add(CFA_XSP16, literal(-14)))
        CFI (cfiCond19) VB load(1, XDATA, add(CFA_XSP16, literal(-13)))
        CFI (cfiCond19) V0 load(1, XDATA, add(CFA_XSP16, literal(-12)))
        CFI (cfiCond19) V1 load(1, XDATA, add(CFA_XSP16, literal(-11)))
        CFI (cfiCond19) V2 load(1, XDATA, add(CFA_XSP16, literal(-10)))
        CFI (cfiCond19) V3 load(1, XDATA, add(CFA_XSP16, literal(-9)))
        CFI (cfiCond19) V4 load(1, XDATA, add(CFA_XSP16, literal(-8)))
        CFI (cfiCond19) V5 load(1, XDATA, add(CFA_XSP16, literal(-7)))
        CFI (cfiCond19) R7 load(1, XDATA, add(CFA_XSP16, literal(-6)))
        CFI (cfiCond19) ?RET_LOW load(1, XDATA, add(CFA_XSP16, literal(-5)))
        CFI (cfiCond19) ?RET_HIGH load(1, XDATA, add(CFA_XSP16, literal(-4)))
        CFI (cfiCond19) ?BRET_EXT load(1, XDATA, add(CFA_XSP16, literal(-3)))
        CFI (cfiCond19) DPL0 load(1, XDATA, add(CFA_XSP16, literal(-2)))
        CFI (cfiCond19) DPH0 load(1, XDATA, add(CFA_XSP16, literal(-1)))
        CFI (cfiCond19) CFA_SP SP+0
        CFI (cfiCond19) CFA_XSP16 add(XSP16, 15)
        CFI Block cfiCond20 Using cfiCommon0
        CFI (cfiCond20) NoFunction
        CFI (cfiCond20) Conditional ??CrossCallReturnLabel_13
        CFI (cfiCond20) R6 load(1, XDATA, add(CFA_XSP16, literal(-14)))
        CFI (cfiCond20) VB load(1, XDATA, add(CFA_XSP16, literal(-13)))
        CFI (cfiCond20) V0 load(1, XDATA, add(CFA_XSP16, literal(-12)))
        CFI (cfiCond20) V1 load(1, XDATA, add(CFA_XSP16, literal(-11)))
        CFI (cfiCond20) V2 load(1, XDATA, add(CFA_XSP16, literal(-10)))
        CFI (cfiCond20) V3 load(1, XDATA, add(CFA_XSP16, literal(-9)))
        CFI (cfiCond20) V4 load(1, XDATA, add(CFA_XSP16, literal(-8)))
        CFI (cfiCond20) V5 load(1, XDATA, add(CFA_XSP16, literal(-7)))
        CFI (cfiCond20) R7 load(1, XDATA, add(CFA_XSP16, literal(-6)))
        CFI (cfiCond20) ?RET_LOW load(1, XDATA, add(CFA_XSP16, literal(-5)))
        CFI (cfiCond20) ?RET_HIGH load(1, XDATA, add(CFA_XSP16, literal(-4)))
        CFI (cfiCond20) ?BRET_EXT load(1, XDATA, add(CFA_XSP16, literal(-3)))
        CFI (cfiCond20) DPL0 load(1, XDATA, add(CFA_XSP16, literal(-2)))
        CFI (cfiCond20) DPH0 load(1, XDATA, add(CFA_XSP16, literal(-1)))
        CFI (cfiCond20) CFA_SP SP+0
        CFI (cfiCond20) CFA_XSP16 add(XSP16, 14)
        CFI Block cfiPicker21 Using cfiCommon1
        CFI (cfiPicker21) NoFunction
        CFI (cfiPicker21) Picker
        MOV     DPL,A
        MOV     A,R7
        ADDC    A,#0x0
        MOV     DPH,A
        MOVX    A,@DPTR
        RET
        CFI EndBlock cfiCond13
        CFI EndBlock cfiCond14
        CFI EndBlock cfiCond15
        CFI EndBlock cfiCond16
        CFI EndBlock cfiCond17
        CFI EndBlock cfiCond18
        CFI EndBlock cfiCond19
        CFI EndBlock cfiCond20
        CFI EndBlock cfiPicker21
//  495 
//  496 /*********************************************************************
//  497  * Event Generation Functions
//  498  */
//  499 
//  500 /*********************************************************************
//  501  * @fn          zb_SendDataRequest
//  502  *
//  503  * @brief       The function initiates transmission of data
//  504  *              to a peer device
//  505  * 
//  506  * @return      none
//  507  */

        RSEG BANKED_CODE:CODE:NOROOT(0)
//  508 afStatus_t zb_SendDataRequest( uint16 destination, uint16 commandId, uint8 len,
zb_SendDataRequest:
        CFI Block cfiBlock22 Using cfiCommon0
        CFI Function zb_SendDataRequest
        CODE
//  509                           uint8 *pData, uint8 handle, uint8 txOptions, uint8 radius )
//  510 {
        FUNCALL zb_SendDataRequest, AF_DataRequest
        LOCFRAME ISTACK, 0, STACK
        LOCFRAME PSTACK, 0, STACK
        LOCFRAME XSTACK, 35, STACK
        LOCFRAME IOVERLAY, 0, STATIC
        LOCFRAME DOVERLAY, 0, STATIC
        ARGFRAME ISTACK, 0, STACK
        ARGFRAME PSTACK, 0, STACK
        ARGFRAME XSTACK, 35, STACK
        ARGFRAME IOVERLAY, 0, STATIC
        ARGFRAME DOVERLAY, 0, STATIC
        MOV     A,#-0xe
        LCALL   ?BANKED_ENTER_XDATA
        CFI DPH0 load(1, XDATA, add(CFA_XSP16, literal(-1)))
        CFI DPL0 load(1, XDATA, add(CFA_XSP16, literal(-2)))
        CFI ?BRET_EXT load(1, XDATA, add(CFA_XSP16, literal(-3)))
        CFI ?RET_HIGH load(1, XDATA, add(CFA_XSP16, literal(-4)))
        CFI ?RET_LOW load(1, XDATA, add(CFA_XSP16, literal(-5)))
        CFI R7 load(1, XDATA, add(CFA_XSP16, literal(-6)))
        CFI V5 load(1, XDATA, add(CFA_XSP16, literal(-7)))
        CFI V4 load(1, XDATA, add(CFA_XSP16, literal(-8)))
        CFI V3 load(1, XDATA, add(CFA_XSP16, literal(-9)))
        CFI V2 load(1, XDATA, add(CFA_XSP16, literal(-10)))
        CFI V1 load(1, XDATA, add(CFA_XSP16, literal(-11)))
        CFI V0 load(1, XDATA, add(CFA_XSP16, literal(-12)))
        CFI VB load(1, XDATA, add(CFA_XSP16, literal(-13)))
        CFI R6 load(1, XDATA, add(CFA_XSP16, literal(-14)))
        CFI CFA_SP SP+0
        CFI CFA_XSP16 add(XSP16, 14)
        ; Saved register size: 14
        ; Auto size: 12
        MOV     A,#-0xc
        LCALL   ?ALLOC_XSTACK8
        CFI CFA_XSP16 add(XSP16, 26)
        MOV     ?V0 + 2,R4
        MOV     ?V0 + 3,R5
        MOV     A,R1
        MOV     R6,A
        MOV     A,#0x1a
        LCALL   ?XSTACK_DISP0_8
        MOVX    A,@DPTR
        MOV     ?V0 + 4,A
        INC     DPTR
        MOVX    A,@DPTR
        MOV     ?V0 + 5,A
        MOV     A,#0x1d
        LCALL   ?XSTACK_DISP0_8
        MOVX    A,@DPTR
        MOV     R1,A
        MOV     A,#0x1e
        LCALL   ?XSTACK_DISP0_8
        MOVX    A,@DPTR
        MOV     R0,A
//  511   afStatus_t status;
//  512   afAddrType_t dstAddr;
//  513 
//  514   txOptions |= AF_DISCV_ROUTE;
        MOV     A,R1
        SETB    0xE0 /* A   */.5
        MOV     R1,A
//  515 
//  516   // Set the destination address
//  517   if (destination == INVALID_NODE_ADDR)
        MOV     A,#-0x2
        XRL     A,R2
        JNZ     ??zb_SendDataRequest_0
        MOV     A,#-0x1
        XRL     A,R3
??zb_SendDataRequest_0:
        JNZ     ??zb_SendDataRequest_1
//  518   {
//  519     // Binding
//  520     dstAddr.addrMode = afAddrNotPresent;
        MOV     A,#0x8
        LCALL   ?XSTACK_DISP0_8
        CLR     A
        SJMP    ??zb_SendDataRequest_2
//  521   }
//  522   /*
//  523   else if( destination == MAC_SHORT_ADDR_BROADCAST)
//  524   {
//  525     dstAddr.addr.shortAddr = destination;
//  526     dstAddr.addrMode = afAddrBroadcast;
//  527   }*/
//  528   else
//  529   {
//  530     // Use short address
//  531     dstAddr.addr.shortAddr = destination;
??zb_SendDataRequest_1:
        MOV     DPL,?XSP + 0
        MOV     DPH,?XSP + 1
        MOV     A,R2
        MOVX    @DPTR,A
        INC     DPTR
        MOV     A,R3
        MOVX    @DPTR,A
//  532     dstAddr.addrMode = afAddr16Bit;
        MOV     A,#0x8
        LCALL   ?XSTACK_DISP0_8
        MOV     A,#0x2
??zb_SendDataRequest_2:
        MOVX    @DPTR,A
//  533   }
//  534 
//  535   dstAddr.panId = 0;                                    // Not an inter-pan message.
        MOV     A,#0xa
        LCALL   ?XSTACK_DISP0_8
        CLR     A
        MOVX    @DPTR,A
        INC     DPTR
        MOVX    @DPTR,A
//  536   dstAddr.endPoint = GenericApp_epDesc.simpleDesc->EndPoint;  // Set the endpoint.
        MOV     DPTR,#GenericApp_epDesc + 3
        MOVX    A,@DPTR
        MOV     R2,A
        INC     DPTR
        MOVX    A,@DPTR
        MOV     DPH,A
        MOV     DPL,R2
        MOVX    A,@DPTR
        PUSH    A
        CFI CFA_SP SP+-1
        MOV     A,#0x9
        LCALL   ?XSTACK_DISP0_8
        POP     A
        CFI CFA_SP SP+0
        MOVX    @DPTR,A
//  537 
//  538   // Send the message
//  539   status = AF_DataRequest(&dstAddr, &GenericApp_epDesc, commandId, len,
//  540                           pData, &handle, txOptions, radius);
//  541 
//  542   return status;
        ; Setup parameters for call to function AF_DataRequest
        MOV     A,R0
        MOV     ?V0 + 0,A
        MOV     R0,#?V0 + 0
        LCALL   ?PUSH_XSTACK_I_ONE
        CFI CFA_XSP16 add(XSP16, 27)
        MOV     A,#0x1d
        LCALL   ?XSTACK_DISP0_8
        MOV     ?V0 + 0,DPL
        MOV     ?V0 + 1,DPH
        MOV     R0,#?V0 + 0
        LCALL   ?PUSH_XSTACK_I_TWO
        CFI CFA_XSP16 add(XSP16, 29)
        MOV     R0,#?V0 + 4
        LCALL   ?PUSH_XSTACK_I_TWO
        CFI CFA_XSP16 add(XSP16, 31)
        MOV     ?V0 + 0,R6
        MOV     ?V0 + 1,#0x0
        MOV     R0,#?V0 + 0
        LCALL   ?PUSH_XSTACK_I_TWO
        CFI CFA_XSP16 add(XSP16, 33)
        MOV     R0,#?V0 + 2
        LCALL   ?PUSH_XSTACK_I_TWO
        CFI CFA_XSP16 add(XSP16, 35)
        MOV     R4,#GenericApp_epDesc & 0xff
        MOV     R5,#(GenericApp_epDesc >> 8) & 0xff
        MOV     A,#0x9
        LCALL   ?XSTACK_DISP0_8
        MOV     R2,DPL
        MOV     R3,DPH
        LCALL   ??AF_DataRequest?relay
        MOV     A,#0x9
        LCALL   ?DEALLOC_XSTACK8
        CFI CFA_XSP16 add(XSP16, 26)
        MOV     A,#0xc
        LJMP    ?Subroutine0 & 0xFFFF
        CFI EndBlock cfiBlock22
//  543 }
//  544 /*********************************************************************
//  545  * @fn      GenericApp_ProcessZDOMsgs()
//  546  *
//  547  * @brief   Process response messages
//  548  *
//  549  * @param   none
//  550  *
//  551  * @return  none
//  552  */
//  553 static void GenericApp_ProcessZDOMsgs( zdoIncomingMsg_t *inMsg )
//  554 {
//  555   switch ( inMsg->clusterID )
//  556   {
//  557     case End_Device_Bind_rsp:
//  558       if ( ZDO_ParseBindRsp( inMsg ) == ZSuccess )
//  559       {
//  560         // Light LED
//  561         HalLedSet( HAL_LED_4, HAL_LED_MODE_ON );
//  562       }
//  563 #if defined( BLINK_LEDS )
//  564       else
//  565       {
//  566         // Flash LED to show failure
//  567         HalLedSet ( HAL_LED_4, HAL_LED_MODE_FLASH );
//  568       }
//  569 #endif
//  570       break;
//  571 
//  572     case Match_Desc_rsp:
//  573       {
//  574         ZDO_ActiveEndpointRsp_t *pRsp = ZDO_ParseEPListRsp( inMsg );
//  575         if ( pRsp )
//  576         {
//  577           if ( pRsp->status == ZSuccess && pRsp->cnt )
//  578           {
//  579             GenericApp_DstAddr.addrMode = (afAddrMode_t)Addr16Bit;
//  580             GenericApp_DstAddr.addr.shortAddr = pRsp->nwkAddr;
//  581             // Take the first endpoint, Can be changed to search through endpoints
//  582             GenericApp_DstAddr.endPoint = pRsp->epList[0];
//  583 
//  584             // Light LED
//  585             HalLedSet( HAL_LED_4, HAL_LED_MODE_ON );
//  586           }
//  587           osal_mem_free( pRsp );
//  588         }
//  589       }
//  590       break;
//  591   }
//  592 }
//  593 
//  594 
//  595 
//  596 /*********************************************************************
//  597  * LOCAL FUNCTIONS
//  598  */
//  599 
//  600 /*********************************************************************
//  601  * @fn      GenericApp_MessageMSGCB
//  602  *
//  603  * @brief   Data message processor callback.  This function processes
//  604  *          any incoming data - probably from other devices.  So, based
//  605  *          on cluster ID, perform the intended action.
//  606  *
//  607  * @param   none
//  608  *
//  609  * @return  none
//  610  */
//  611 // ************************测试RSSI
//  612 #ifdef PANID_DISPLAY

        RSEG XDATA_Z:XDATA:NOROOT(0)
        DATA8
//  613 int8 modbus_rssi;
modbus_rssi:
        DS 1
        REQUIRE __INIT_XDATA_Z
//  614 // uint8 modbus_correlation;

        RSEG XDATA_Z:XDATA:NOROOT(0)
        DATA8
//  615 unsigned char CRClo;
CRClo:
        DS 1
        REQUIRE __INIT_XDATA_Z

        RSEG XDATA_Z:XDATA:NOROOT(0)
        DATA8
//  616 unsigned char CRChi;
CRChi:
        DS 1
        REQUIRE __INIT_XDATA_Z

        RSEG CODE_C:CODE:REORDER:NOROOT(0)
        DATA8
//  617 CONST unsigned char auchCRCHi[256] = {
auchCRCHi:
        DB 0
        DB 193
        DB 129
        DB 64
        DB 1
        DB 192
        DB 128
        DB 65
        DB 1
        DB 192
        DB 128
        DB 65
        DB 0
        DB 193
        DB 129
        DB 64
        DB 1
        DB 192
        DB 128
        DB 65
        DB 0
        DB 193
        DB 129
        DB 64
        DB 0
        DB 193
        DB 129
        DB 64
        DB 1
        DB 192
        DB 128
        DB 65
        DB 1
        DB 192
        DB 128
        DB 65
        DB 0
        DB 193
        DB 129
        DB 64
        DB 0
        DB 193
        DB 129
        DB 64
        DB 1
        DB 192
        DB 128
        DB 65
        DB 0
        DB 193
        DB 129
        DB 64
        DB 1
        DB 192
        DB 128
        DB 65
        DB 1
        DB 192
        DB 128
        DB 65
        DB 0
        DB 193
        DB 129
        DB 64
        DB 1
        DB 192
        DB 128
        DB 65
        DB 0
        DB 193
        DB 129
        DB 64
        DB 0
        DB 193
        DB 129
        DB 64
        DB 1
        DB 192
        DB 128
        DB 65
        DB 0
        DB 193
        DB 129
        DB 64
        DB 1
        DB 192
        DB 128
        DB 65
        DB 1
        DB 192
        DB 128
        DB 65
        DB 0
        DB 193
        DB 129
        DB 64
        DB 0
        DB 193
        DB 129
        DB 64
        DB 1
        DB 192
        DB 128
        DB 65
        DB 1
        DB 192
        DB 128
        DB 65
        DB 0
        DB 193
        DB 129
        DB 64
        DB 1
        DB 192
        DB 128
        DB 65
        DB 0
        DB 193
        DB 129
        DB 64
        DB 0
        DB 193
        DB 129
        DB 64
        DB 1
        DB 192
        DB 128
        DB 65
        DB 1
        DB 192
        DB 128
        DB 65
        DB 0
        DB 193
        DB 129
        DB 64
        DB 0
        DB 193
        DB 129
        DB 64
        DB 1
        DB 192
        DB 128
        DB 65
        DB 0
        DB 193
        DB 129
        DB 64
        DB 1
        DB 192
        DB 128
        DB 65
        DB 1
        DB 192
        DB 128
        DB 65
        DB 0
        DB 193
        DB 129
        DB 64
        DB 0
        DB 193
        DB 129
        DB 64
        DB 1
        DB 192
        DB 128
        DB 65
        DB 1
        DB 192
        DB 128
        DB 65
        DB 0
        DB 193
        DB 129
        DB 64
        DB 1
        DB 192
        DB 128
        DB 65
        DB 0
        DB 193
        DB 129
        DB 64
        DB 0
        DB 193
        DB 129
        DB 64
        DB 1
        DB 192
        DB 128
        DB 65
        DB 0
        DB 193
        DB 129
        DB 64
        DB 1
        DB 192
        DB 128
        DB 65
        DB 1
        DB 192
        DB 128
        DB 65
        DB 0
        DB 193
        DB 129
        DB 64
        DB 1
        DB 192
        DB 128
        DB 65
        DB 0
        DB 193
        DB 129
        DB 64
        DB 0
        DB 193
        DB 129
        DB 64
        DB 1
        DB 192
        DB 128
        DB 65
        DB 1
        DB 192
        DB 128
        DB 65
        DB 0
        DB 193
        DB 129
        DB 64
        DB 0
        DB 193
        DB 129
        DB 64
        DB 1
        DB 192
        DB 128
        DB 65
        DB 0
        DB 193
        DB 129
        DB 64
        DB 1
        DB 192
        DB 128
        DB 65
        DB 1
        DB 192
        DB 128
        DB 65
        DB 0
        DB 193
        DB 129
        DB 64
//  618 0x00, 0xC1, 0x81, 0x40, 0x01, 0xC0, 0x80, 0x41, 0x01, 0xC0, 0x80, 0x41, 0x00, 0xC1, 0x81, 0x40,
//  619 0x01, 0xC0, 0x80, 0x41, 0x00, 0xC1, 0x81, 0x40, 0x00, 0xC1, 0x81, 0x40, 0x01, 0xC0, 0x80, 0x41,
//  620 0x01, 0xC0, 0x80, 0x41, 0x00, 0xC1, 0x81, 0x40, 0x00, 0xC1, 0x81, 0x40, 0x01, 0xC0, 0x80, 0x41,
//  621 0x00, 0xC1, 0x81, 0x40, 0x01, 0xC0, 0x80, 0x41, 0x01, 0xC0, 0x80, 0x41, 0x00, 0xC1, 0x81, 0x40,
//  622 0x01, 0xC0, 0x80, 0x41, 0x00, 0xC1, 0x81, 0x40, 0x00, 0xC1, 0x81, 0x40, 0x01, 0xC0, 0x80, 0x41,
//  623 0x00, 0xC1, 0x81, 0x40, 0x01, 0xC0, 0x80, 0x41, 0x01, 0xC0, 0x80, 0x41, 0x00, 0xC1, 0x81, 0x40,
//  624 0x00, 0xC1, 0x81, 0x40, 0x01, 0xC0, 0x80, 0x41, 0x01, 0xC0, 0x80, 0x41, 0x00, 0xC1, 0x81, 0x40,
//  625 0x01, 0xC0, 0x80, 0x41, 0x00, 0xC1, 0x81, 0x40, 0x00, 0xC1, 0x81, 0x40, 0x01, 0xC0, 0x80, 0x41,
//  626 0x01, 0xC0, 0x80, 0x41, 0x00, 0xC1, 0x81, 0x40, 0x00, 0xC1, 0x81, 0x40, 0x01, 0xC0, 0x80, 0x41,
//  627 0x00, 0xC1, 0x81, 0x40, 0x01, 0xC0, 0x80, 0x41, 0x01, 0xC0, 0x80, 0x41, 0x00, 0xC1, 0x81, 0x40,
//  628 0x00, 0xC1, 0x81, 0x40, 0x01, 0xC0, 0x80, 0x41, 0x01, 0xC0, 0x80, 0x41, 0x00, 0xC1, 0x81, 0x40,
//  629 0x01, 0xC0, 0x80, 0x41, 0x00, 0xC1, 0x81, 0x40, 0x00, 0xC1, 0x81, 0x40, 0x01, 0xC0, 0x80, 0x41,//12
//  630 0x00, 0xC1, 0x81, 0x40, 0x01, 0xC0, 0x80, 0x41, 0x01, 0xC0, 0x80, 0x41, 0x00, 0xC1, 0x81, 0x40,
//  631 0x01, 0xC0, 0x80, 0x41, 0x00, 0xC1, 0x81, 0x40, 0x00, 0xC1, 0x81, 0x40, 0x01, 0xC0, 0x80, 0x41,
//  632 0x01, 0xC0, 0x80, 0x41, 0x00, 0xC1, 0x81, 0x40, 0x00, 0xC1, 0x81, 0x40, 0x01, 0xC0, 0x80, 0x41,
//  633 0x00, 0xC1, 0x81, 0x40, 0x01, 0xC0, 0x80, 0x41, 0x01, 0xC0, 0x80, 0x41, 0x00, 0xC1, 0x81, 0x40
//  634 } ;	
//  635 

        RSEG CODE_C:CODE:REORDER:NOROOT(0)
        DATA8
//  636 CONST unsigned char auchCRCLo[256] = {
auchCRCLo:
        DB 0
        DB 192
        DB 193
        DB 1
        DB 195
        DB 3
        DB 2
        DB 194
        DB 198
        DB 6
        DB 7
        DB 199
        DB 5
        DB 197
        DB 196
        DB 4
        DB 204
        DB 12
        DB 13
        DB 205
        DB 15
        DB 207
        DB 206
        DB 14
        DB 10
        DB 202
        DB 203
        DB 11
        DB 201
        DB 9
        DB 8
        DB 200
        DB 216
        DB 24
        DB 25
        DB 217
        DB 27
        DB 219
        DB 218
        DB 26
        DB 30
        DB 222
        DB 223
        DB 31
        DB 221
        DB 29
        DB 28
        DB 220
        DB 20
        DB 212
        DB 213
        DB 21
        DB 215
        DB 23
        DB 22
        DB 214
        DB 210
        DB 18
        DB 19
        DB 211
        DB 17
        DB 209
        DB 208
        DB 16
        DB 240
        DB 48
        DB 49
        DB 241
        DB 51
        DB 243
        DB 242
        DB 50
        DB 54
        DB 246
        DB 247
        DB 55
        DB 245
        DB 53
        DB 52
        DB 244
        DB 60
        DB 252
        DB 253
        DB 61
        DB 255
        DB 63
        DB 62
        DB 254
        DB 250
        DB 58
        DB 59
        DB 251
        DB 57
        DB 249
        DB 248
        DB 56
        DB 40
        DB 232
        DB 233
        DB 41
        DB 235
        DB 43
        DB 42
        DB 234
        DB 238
        DB 46
        DB 47
        DB 239
        DB 45
        DB 237
        DB 236
        DB 44
        DB 228
        DB 36
        DB 37
        DB 229
        DB 39
        DB 231
        DB 230
        DB 38
        DB 34
        DB 226
        DB 227
        DB 35
        DB 225
        DB 33
        DB 32
        DB 224
        DB 160
        DB 96
        DB 97
        DB 161
        DB 99
        DB 163
        DB 162
        DB 98
        DB 102
        DB 166
        DB 167
        DB 103
        DB 165
        DB 101
        DB 100
        DB 164
        DB 108
        DB 172
        DB 173
        DB 109
        DB 175
        DB 111
        DB 110
        DB 174
        DB 170
        DB 106
        DB 107
        DB 171
        DB 105
        DB 169
        DB 168
        DB 104
        DB 120
        DB 184
        DB 185
        DB 121
        DB 187
        DB 123
        DB 122
        DB 186
        DB 190
        DB 126
        DB 127
        DB 191
        DB 125
        DB 189
        DB 188
        DB 124
        DB 180
        DB 116
        DB 117
        DB 181
        DB 119
        DB 183
        DB 182
        DB 118
        DB 114
        DB 178
        DB 179
        DB 115
        DB 177
        DB 113
        DB 112
        DB 176
        DB 80
        DB 144
        DB 145
        DB 81
        DB 147
        DB 83
        DB 82
        DB 146
        DB 150
        DB 86
        DB 87
        DB 151
        DB 85
        DB 149
        DB 148
        DB 84
        DB 156
        DB 92
        DB 93
        DB 157
        DB 95
        DB 159
        DB 158
        DB 94
        DB 90
        DB 154
        DB 155
        DB 91
        DB 153
        DB 89
        DB 88
        DB 152
        DB 136
        DB 72
        DB 73
        DB 137
        DB 75
        DB 139
        DB 138
        DB 74
        DB 78
        DB 142
        DB 143
        DB 79
        DB 141
        DB 77
        DB 76
        DB 140
        DB 68
        DB 132
        DB 133
        DB 69
        DB 135
        DB 71
        DB 70
        DB 134
        DB 130
        DB 66
        DB 67
        DB 131
        DB 65
        DB 129
        DB 128
        DB 64
//  637 
//  638 0x00, 0xC0, 0xC1, 0x01, 0xC3, 0x03, 0x02, 0xC2, 0xC6, 0x06, 0x07, 0xC7, 0x05, 0xC5, 0xC4, 0x04,
//  639 0xCC, 0x0C, 0x0D, 0xCD, 0x0F, 0xCF, 0xCE, 0x0E, 0x0A, 0xCA, 0xCB, 0x0B, 0xC9, 0x09, 0x08, 0xC8,
//  640 0xD8, 0x18, 0x19, 0xD9, 0x1B, 0xDB, 0xDA, 0x1A, 0x1E, 0xDE, 0xDF, 0x1F, 0xDD, 0x1D, 0x1C, 0xDC,
//  641 0x14, 0xD4, 0xD5, 0x15, 0xD7, 0x17, 0x16, 0xD6, 0xD2, 0x12, 0x13, 0xD3, 0x11, 0xD1, 0xD0, 0x10,
//  642 0xF0, 0x30, 0x31, 0xF1, 0x33, 0xF3, 0xF2, 0x32, 0x36, 0xF6, 0xF7, 0x37, 0xF5, 0x35, 0x34, 0xF4,
//  643 0x3C, 0xFC, 0xFD, 0x3D, 0xFF, 0x3F, 0x3E, 0xFE, 0xFA, 0x3A, 0x3B, 0xFB, 0x39, 0xF9, 0xF8, 0x38,
//  644 0x28, 0xE8, 0xE9, 0x29, 0xEB, 0x2B, 0x2A, 0xEA, 0xEE, 0x2E, 0x2F, 0xEF, 0x2D, 0xED, 0xEC, 0x2C,
//  645 0xE4, 0x24, 0x25, 0xE5, 0x27, 0xE7, 0xE6, 0x26, 0x22, 0xE2, 0xE3, 0x23, 0xE1, 0x21, 0x20, 0xE0,
//  646 0xA0, 0x60, 0x61, 0xA1, 0x63, 0xA3, 0xA2, 0x62, 0x66, 0xA6, 0xA7, 0x67, 0xA5, 0x65, 0x64, 0xA4,
//  647 0x6C, 0xAC, 0xAD, 0x6D, 0xAF, 0x6F, 0x6E, 0xAE, 0xAA, 0x6A, 0x6B, 0xAB, 0x69, 0xA9, 0xA8, 0x68,
//  648 0x78, 0xB8, 0xB9, 0x79, 0xBB, 0x7B, 0x7A, 0xBA, 0xBE, 0x7E, 0x7F, 0xBF, 0x7D, 0xBD, 0xBC, 0x7C,
//  649 0xB4, 0x74, 0x75, 0xB5, 0x77, 0xB7, 0xB6, 0x76, 0x72, 0xB2, 0xB3, 0x73, 0xB1, 0x71, 0x70, 0xB0,//12
//  650 0x50, 0x90, 0x91, 0x51, 0x93, 0x53, 0x52, 0x92, 0x96, 0x56, 0x57, 0x97, 0x55, 0x95, 0x94, 0x54,
//  651 0x9C, 0x5C, 0x5D, 0x9D, 0x5F, 0x9F, 0x9E, 0x5E, 0x5A, 0x9A, 0x9B, 0x5B, 0x99, 0x59, 0x58, 0x98,
//  652 0x88, 0x48, 0x49, 0x89, 0x4B, 0x8B, 0x8A, 0x4A, 0x4E, 0x8E, 0x8F, 0x4F, 0x8D, 0x4D, 0x4C, 0x8C,
//  653 0x44, 0x84, 0x85, 0x45, 0x87, 0x47, 0x46, 0x86, 0x82, 0x42, 0x43, 0x83, 0x41, 0x81, 0x80, 0x40
//  654 
//  655 } ;

        RSEG BANKED_CODE:CODE:NOROOT(0)
//  656 void InitCRC16(void)
InitCRC16:
        CFI Block cfiBlock23 Using cfiCommon0
        CFI Function InitCRC16
        CODE
//  657 {
        PUSH    DPL
        CFI DPL0 Frame(CFA_SP, 4)
        CFI CFA_SP SP+-4
        PUSH    DPH
        CFI DPH0 Frame(CFA_SP, 5)
        CFI CFA_SP SP+-5
        ; Saved register size: 2
        ; Auto size: 0
//  658   CRClo = 0xFF;
        MOV     DPTR,#CRClo
        MOV     A,#-0x1
        MOVX    @DPTR,A
//  659   CRChi = 0xFF;
        MOV     DPTR,#CRChi
        CFI EndBlock cfiBlock23
        REQUIRE ?Subroutine1
        ; // Fall through to label ?Subroutine1
//  660 }

        RSEG BANKED_CODE:CODE:NOROOT(0)
?Subroutine1:
        CFI Block cfiBlock24 Using cfiCommon0
        CFI NoFunction
        CFI CFA_SP SP+-5
        CFI DPL0 Frame(CFA_SP, 4)
        CFI DPH0 Frame(CFA_SP, 5)
        MOVX    @DPTR,A
        POP     DPH
        CFI CFA_SP SP+-4
        CFI DPH0 SameValue
        POP     DPL
        CFI CFA_SP SP+-3
        CFI DPL0 SameValue
        LJMP    ?BRET
        CFI EndBlock cfiBlock24
//  661 

        RSEG BANKED_CODE:CODE:NOROOT(0)
//  662 void CRC16_Tstat(unsigned char ch)
CRC16_Tstat:
        CFI Block cfiBlock25 Using cfiCommon0
        CFI Function CRC16_Tstat
        CODE
//  663 {
        PUSH    DPL
        CFI DPL0 Frame(CFA_SP, 4)
        CFI CFA_SP SP+-4
        PUSH    DPH
        CFI DPH0 Frame(CFA_SP, 5)
        CFI CFA_SP SP+-5
        ; Saved register size: 2
        ; Auto size: 0
//  664   unsigned char uIndex ;
//  665   uIndex = CRChi ^ ch ; // calculate the CRC 
        MOV     DPTR,#CRChi
        MOVX    A,@DPTR
        XRL     A,R1
        MOV     R0,A
//  666   CRChi = CRClo ^ auchCRCHi[uIndex] ;
        MOV     DPL,R0
        MOV     R2,DPL
        MOV     A,#auchCRCHi & 0xff
        ADD     A,R2
        MOV     DPL,A
        MOV     A,#(auchCRCHi >> 8) & 0xff
        LCALL   ?Subroutine6 & 0xFFFF
??CrossCallReturnLabel_10:
        MOV     R0,A
        MOVX    A,@DPTR
        XRL     A,R0
        MOV     DPTR,#CRChi
        MOVX    @DPTR,A
//  667   CRClo = auchCRCLo[uIndex] ;
        MOV     A,#auchCRCLo & 0xff
        ADD     A,R2
        MOV     DPL,A
        MOV     A,#(auchCRCLo >> 8) & 0xff
        LCALL   ?Subroutine6 & 0xFFFF
??CrossCallReturnLabel_11:
        SJMP    ?Subroutine1
        CFI EndBlock cfiBlock25
//  668 }

        RSEG BANKED_CODE:CODE:NOROOT(0)
?Subroutine6:
        CFI Block cfiCond26 Using cfiCommon0
        CFI NoFunction
        CFI Conditional ??CrossCallReturnLabel_10
        CFI DPL0 Frame(CFA_SP, 4)
        CFI DPH0 Frame(CFA_SP, 5)
        CFI CFA_SP SP+-5
        CFI Block cfiCond27 Using cfiCommon0
        CFI (cfiCond27) NoFunction
        CFI (cfiCond27) Conditional ??CrossCallReturnLabel_11
        CFI (cfiCond27) DPL0 Frame(CFA_SP, 4)
        CFI (cfiCond27) DPH0 Frame(CFA_SP, 5)
        CFI (cfiCond27) CFA_SP SP+-5
        CFI Block cfiPicker28 Using cfiCommon1
        CFI (cfiPicker28) NoFunction
        CFI (cfiPicker28) Picker
        ADDC    A,#0x0
        MOV     DPH,A
        CLR     A
        MOVC    A,@A+DPTR
        MOV     DPTR,#CRClo
        RET
        CFI EndBlock cfiCond26
        CFI EndBlock cfiCond27
        CFI EndBlock cfiPicker28
//  669 

        RSEG BANKED_CODE:CODE:NOROOT(0)
//  670 void calcCRC16( uint8* data, uint8 len)
calcCRC16:
        CFI Block cfiBlock29 Using cfiCommon0
        CFI Function calcCRC16
        CODE
//  671 {
        FUNCALL calcCRC16, osal_mem_alloc
        LOCFRAME ISTACK, 0, STACK
        LOCFRAME PSTACK, 0, STACK
        LOCFRAME XSTACK, 14, STACK
        LOCFRAME IOVERLAY, 0, STATIC
        LOCFRAME DOVERLAY, 0, STATIC
        ARGFRAME ISTACK, 0, STACK
        ARGFRAME PSTACK, 0, STACK
        ARGFRAME XSTACK, 14, STACK
        ARGFRAME IOVERLAY, 0, STATIC
        ARGFRAME DOVERLAY, 0, STATIC
        FUNCALL calcCRC16, osal_memcpy
        LOCFRAME ISTACK, 0, STACK
        LOCFRAME PSTACK, 0, STACK
        LOCFRAME XSTACK, 17, STACK
        LOCFRAME IOVERLAY, 0, STATIC
        LOCFRAME DOVERLAY, 0, STATIC
        ARGFRAME ISTACK, 0, STACK
        ARGFRAME PSTACK, 0, STACK
        ARGFRAME XSTACK, 17, STACK
        ARGFRAME IOVERLAY, 0, STATIC
        ARGFRAME DOVERLAY, 0, STATIC
        FUNCALL calcCRC16, CRC16_Tstat
        LOCFRAME ISTACK, 0, STACK
        LOCFRAME PSTACK, 0, STACK
        LOCFRAME XSTACK, 14, STACK
        LOCFRAME IOVERLAY, 0, STATIC
        LOCFRAME DOVERLAY, 0, STATIC
        ARGFRAME ISTACK, 0, STACK
        ARGFRAME PSTACK, 0, STACK
        ARGFRAME XSTACK, 14, STACK
        ARGFRAME IOVERLAY, 0, STATIC
        ARGFRAME DOVERLAY, 0, STATIC
        FUNCALL calcCRC16, send_str_Uart
        LOCFRAME ISTACK, 0, STACK
        LOCFRAME PSTACK, 0, STACK
        LOCFRAME XSTACK, 14, STACK
        LOCFRAME IOVERLAY, 0, STATIC
        LOCFRAME DOVERLAY, 0, STATIC
        ARGFRAME ISTACK, 0, STACK
        ARGFRAME PSTACK, 0, STACK
        ARGFRAME XSTACK, 14, STACK
        ARGFRAME IOVERLAY, 0, STATIC
        ARGFRAME DOVERLAY, 0, STATIC
        FUNCALL calcCRC16, osal_mem_free
        LOCFRAME ISTACK, 0, STACK
        LOCFRAME PSTACK, 0, STACK
        LOCFRAME XSTACK, 14, STACK
        LOCFRAME IOVERLAY, 0, STATIC
        LOCFRAME DOVERLAY, 0, STATIC
        ARGFRAME ISTACK, 0, STACK
        ARGFRAME PSTACK, 0, STACK
        ARGFRAME XSTACK, 14, STACK
        ARGFRAME IOVERLAY, 0, STATIC
        ARGFRAME DOVERLAY, 0, STATIC
        MOV     A,#-0xe
        LCALL   ?BANKED_ENTER_XDATA
        CFI DPH0 load(1, XDATA, add(CFA_XSP16, literal(-1)))
        CFI DPL0 load(1, XDATA, add(CFA_XSP16, literal(-2)))
        CFI ?BRET_EXT load(1, XDATA, add(CFA_XSP16, literal(-3)))
        CFI ?RET_HIGH load(1, XDATA, add(CFA_XSP16, literal(-4)))
        CFI ?RET_LOW load(1, XDATA, add(CFA_XSP16, literal(-5)))
        CFI R7 load(1, XDATA, add(CFA_XSP16, literal(-6)))
        CFI V5 load(1, XDATA, add(CFA_XSP16, literal(-7)))
        CFI V4 load(1, XDATA, add(CFA_XSP16, literal(-8)))
        CFI V3 load(1, XDATA, add(CFA_XSP16, literal(-9)))
        CFI V2 load(1, XDATA, add(CFA_XSP16, literal(-10)))
        CFI V1 load(1, XDATA, add(CFA_XSP16, literal(-11)))
        CFI V0 load(1, XDATA, add(CFA_XSP16, literal(-12)))
        CFI VB load(1, XDATA, add(CFA_XSP16, literal(-13)))
        CFI R6 load(1, XDATA, add(CFA_XSP16, literal(-14)))
        CFI CFA_SP SP+0
        CFI CFA_XSP16 add(XSP16, 14)
        ; Saved register size: 14
        ; Auto size: 0
        MOV     ?V0 + 0,R2
        MOV     ?V0 + 1,R3
        MOV     ?V0 + 3,R1
//  672   uint8 *pData = osal_mem_alloc( len);
        ; Setup parameters for call to function osal_mem_alloc
        MOV     ?V0 + 4,R1
        MOV     R2,?V0 + 4
        MOV     R3,#0x0
        LCALL   ??osal_mem_alloc?relay
        MOV     ?V0 + 4,R2
        MOV     ?V0 + 5,R3
        MOV     R6,?V0 + 4
        MOV     R7,?V0 + 5
//  673   if( pData)
        MOV     A,R6
        ORL     A,R7
        JZ      ??calcCRC16_0
//  674     osal_memcpy( pData, data, len);
        ; Setup parameters for call to function osal_memcpy
        MOV     ?V0 + 2,#0x0
        MOV     R0,#?V0 + 0
        LCALL   ?PUSH_XSTACK_I_THREE
        CFI CFA_XSP16 add(XSP16, 17)
        MOV     ?V0 + 0,?V0 + 3
        MOV     R4,?V0 + 0
        MOV     R5,#0x0
        LCALL   ??osal_memcpy?relay
        MOV     A,#0x3
        LCALL   ?DEALLOC_XSTACK8
        CFI CFA_XSP16 add(XSP16, 14)
//  675   
//  676   pData[panId_send_hi] = HI_UINT16(_NIB.nwkPanId);
??calcCRC16_0:
        MOV     DPTR,#_NIB + 34
        MOVX    A,@DPTR
        PUSH    A
        CFI CFA_SP SP+-1
        MOV     DPTR,#panId_send_hi
        LCALL   ?Subroutine2 & 0xFFFF
??CrossCallReturnLabel_0:
        POP     A
        CFI CFA_SP SP+0
        MOVX    @DPTR,A
//  677   pData[panId_send_lo] = LO_UINT16(_NIB.nwkPanId);
        MOV     DPTR,#_NIB + 33
        MOVX    A,@DPTR
        PUSH    A
        CFI CFA_SP SP+-1
        MOV     DPTR,#panId_send_lo
        LCALL   ?Subroutine2 & 0xFFFF
??CrossCallReturnLabel_1:
        POP     A
        CFI CFA_SP SP+0
        MOVX    @DPTR,A
//  678   pData[rssi_send_hi] = 255;
        MOV     DPTR,#rssi_send_hi
        LCALL   ?Subroutine2 & 0xFFFF
??CrossCallReturnLabel_2:
        MOV     A,#-0x1
        MOVX    @DPTR,A
//  679   pData[rssi_send_lo] = modbus_rssi;
        MOV     DPTR,#modbus_rssi
        MOVX    A,@DPTR
        PUSH    A
        CFI CFA_SP SP+-1
        MOV     DPTR,#rssi_send_lo
        LCALL   ?Subroutine2 & 0xFFFF
??CrossCallReturnLabel_3:
        POP     A
        CFI CFA_SP SP+0
        MOVX    @DPTR,A
//  680   InitCRC16();
        MOV     DPTR,#CRClo
        MOV     A,#-0x1
        MOVX    @DPTR,A
        MOV     DPTR,#CRChi
        MOVX    @DPTR,A
//  681   for( uint8 i = 0; i<(len-2); i++)
        MOV     ?V0 + 2,#0x0
        SJMP    ??calcCRC16_1
//  682   {
//  683     CRC16_Tstat(pData[i]);
??calcCRC16_2:
        ; Setup parameters for call to function CRC16_Tstat
        MOV     A,R6
        ADD     A,?V0 + 0
        LCALL   ?Subroutine7 & 0xFFFF
//  684   }
??CrossCallReturnLabel_13:
        MOV     R1,A
        LCALL   ??CRC16_Tstat?relay
        INC     ?V0 + 2
??calcCRC16_1:
        MOV     ?V0 + 0,?V0 + 2
        MOV     ?V0 + 4,?V0 + 3
        MOV     A,?V0 + 4
        ADD     A,#-0x2
        MOV     R0,A
        CLR     A
        ADDC    A,#-0x1
        MOV     R1,A
        CLR     C
        MOV     A,?V0 + 0
        SUBB    A,R0
        CLR     A
        SUBB    A,R1
        MOV     C,0xD0 /* PSW */.2
        XRL     A,PSW
        RLC     A
        JC      ??calcCRC16_2
        MOV     ?V0 + 0,?V0 + 3
        MOV     A,R6
        ADD     A,?V0 + 0
        MOV     R0,A
        MOV     A,R7
        ADDC    A,#0x0
        MOV     R1,A
        MOV     DPTR,#CRChi
        MOVX    A,@DPTR
        PUSH    A
        CFI CFA_SP SP+-1
        MOV     A,R0
        ADD     A,#-0x2
        MOV     DPL,A
        MOV     A,R1
        ADDC    A,#-0x1
        MOV     DPH,A
        POP     A
        CFI CFA_SP SP+0
        MOVX    @DPTR,A
//  685   pData[len-2] = CRChi;
//  686   pData[len-1] = CRClo;
        MOV     DPTR,#CRClo
        MOVX    A,@DPTR
        PUSH    A
        CFI CFA_SP SP+-1
        MOV     A,R0
        ADD     A,#-0x1
        MOV     DPL,A
        MOV     A,R1
        ADDC    A,#-0x1
        MOV     DPH,A
        POP     A
        CFI CFA_SP SP+0
        MOVX    @DPTR,A
//  687 
//  688   send_str_Uart( pData, len, 0);
        ; Setup parameters for call to function send_str_Uart
        MOV     R4,#0x0
        MOV     R1,?V0 + 3
        MOV     A,R6
        MOV     R2,A
        MOV     A,R7
        MOV     R3,A
        LCALL   ??send_str_Uart?relay
//  689   osal_mem_free( pData);
        ; Setup parameters for call to function osal_mem_free
        MOV     A,R6
        MOV     R2,A
        MOV     A,R7
        MOV     R3,A
        LCALL   ??osal_mem_free?relay
//  690 }
        LJMP    ??Subroutine8_0 & 0xFFFF
        CFI EndBlock cfiBlock29

        RSEG BANKED_CODE:CODE:NOROOT(0)
?Subroutine2:
        CFI Block cfiCond30 Using cfiCommon0
        CFI NoFunction
        CFI Conditional ??CrossCallReturnLabel_0
        CFI R6 load(1, XDATA, add(CFA_XSP16, literal(-14)))
        CFI VB load(1, XDATA, add(CFA_XSP16, literal(-13)))
        CFI V0 load(1, XDATA, add(CFA_XSP16, literal(-12)))
        CFI V1 load(1, XDATA, add(CFA_XSP16, literal(-11)))
        CFI V2 load(1, XDATA, add(CFA_XSP16, literal(-10)))
        CFI V3 load(1, XDATA, add(CFA_XSP16, literal(-9)))
        CFI V4 load(1, XDATA, add(CFA_XSP16, literal(-8)))
        CFI V5 load(1, XDATA, add(CFA_XSP16, literal(-7)))
        CFI R7 load(1, XDATA, add(CFA_XSP16, literal(-6)))
        CFI ?RET_LOW load(1, XDATA, add(CFA_XSP16, literal(-5)))
        CFI ?RET_HIGH load(1, XDATA, add(CFA_XSP16, literal(-4)))
        CFI ?BRET_EXT load(1, XDATA, add(CFA_XSP16, literal(-3)))
        CFI DPL0 load(1, XDATA, add(CFA_XSP16, literal(-2)))
        CFI DPH0 load(1, XDATA, add(CFA_XSP16, literal(-1)))
        CFI CFA_SP SP+-1
        CFI CFA_XSP16 add(XSP16, 14)
        CFI Block cfiCond31 Using cfiCommon0
        CFI (cfiCond31) NoFunction
        CFI (cfiCond31) Conditional ??CrossCallReturnLabel_1
        CFI (cfiCond31) R6 load(1, XDATA, add(CFA_XSP16, literal(-14)))
        CFI (cfiCond31) VB load(1, XDATA, add(CFA_XSP16, literal(-13)))
        CFI (cfiCond31) V0 load(1, XDATA, add(CFA_XSP16, literal(-12)))
        CFI (cfiCond31) V1 load(1, XDATA, add(CFA_XSP16, literal(-11)))
        CFI (cfiCond31) V2 load(1, XDATA, add(CFA_XSP16, literal(-10)))
        CFI (cfiCond31) V3 load(1, XDATA, add(CFA_XSP16, literal(-9)))
        CFI (cfiCond31) V4 load(1, XDATA, add(CFA_XSP16, literal(-8)))
        CFI (cfiCond31) V5 load(1, XDATA, add(CFA_XSP16, literal(-7)))
        CFI (cfiCond31) R7 load(1, XDATA, add(CFA_XSP16, literal(-6)))
        CFI (cfiCond31) ?RET_LOW load(1, XDATA, add(CFA_XSP16, literal(-5)))
        CFI (cfiCond31) ?RET_HIGH load(1, XDATA, add(CFA_XSP16, literal(-4)))
        CFI (cfiCond31) ?BRET_EXT load(1, XDATA, add(CFA_XSP16, literal(-3)))
        CFI (cfiCond31) DPL0 load(1, XDATA, add(CFA_XSP16, literal(-2)))
        CFI (cfiCond31) DPH0 load(1, XDATA, add(CFA_XSP16, literal(-1)))
        CFI (cfiCond31) CFA_SP SP+-1
        CFI (cfiCond31) CFA_XSP16 add(XSP16, 14)
        CFI Block cfiCond32 Using cfiCommon0
        CFI (cfiCond32) NoFunction
        CFI (cfiCond32) Conditional ??CrossCallReturnLabel_2
        CFI (cfiCond32) R6 load(1, XDATA, add(CFA_XSP16, literal(-14)))
        CFI (cfiCond32) VB load(1, XDATA, add(CFA_XSP16, literal(-13)))
        CFI (cfiCond32) V0 load(1, XDATA, add(CFA_XSP16, literal(-12)))
        CFI (cfiCond32) V1 load(1, XDATA, add(CFA_XSP16, literal(-11)))
        CFI (cfiCond32) V2 load(1, XDATA, add(CFA_XSP16, literal(-10)))
        CFI (cfiCond32) V3 load(1, XDATA, add(CFA_XSP16, literal(-9)))
        CFI (cfiCond32) V4 load(1, XDATA, add(CFA_XSP16, literal(-8)))
        CFI (cfiCond32) V5 load(1, XDATA, add(CFA_XSP16, literal(-7)))
        CFI (cfiCond32) R7 load(1, XDATA, add(CFA_XSP16, literal(-6)))
        CFI (cfiCond32) ?RET_LOW load(1, XDATA, add(CFA_XSP16, literal(-5)))
        CFI (cfiCond32) ?RET_HIGH load(1, XDATA, add(CFA_XSP16, literal(-4)))
        CFI (cfiCond32) ?BRET_EXT load(1, XDATA, add(CFA_XSP16, literal(-3)))
        CFI (cfiCond32) DPL0 load(1, XDATA, add(CFA_XSP16, literal(-2)))
        CFI (cfiCond32) DPH0 load(1, XDATA, add(CFA_XSP16, literal(-1)))
        CFI (cfiCond32) CFA_SP SP+0
        CFI (cfiCond32) CFA_XSP16 add(XSP16, 14)
        CFI Block cfiCond33 Using cfiCommon0
        CFI (cfiCond33) NoFunction
        CFI (cfiCond33) Conditional ??CrossCallReturnLabel_3
        CFI (cfiCond33) R6 load(1, XDATA, add(CFA_XSP16, literal(-14)))
        CFI (cfiCond33) VB load(1, XDATA, add(CFA_XSP16, literal(-13)))
        CFI (cfiCond33) V0 load(1, XDATA, add(CFA_XSP16, literal(-12)))
        CFI (cfiCond33) V1 load(1, XDATA, add(CFA_XSP16, literal(-11)))
        CFI (cfiCond33) V2 load(1, XDATA, add(CFA_XSP16, literal(-10)))
        CFI (cfiCond33) V3 load(1, XDATA, add(CFA_XSP16, literal(-9)))
        CFI (cfiCond33) V4 load(1, XDATA, add(CFA_XSP16, literal(-8)))
        CFI (cfiCond33) V5 load(1, XDATA, add(CFA_XSP16, literal(-7)))
        CFI (cfiCond33) R7 load(1, XDATA, add(CFA_XSP16, literal(-6)))
        CFI (cfiCond33) ?RET_LOW load(1, XDATA, add(CFA_XSP16, literal(-5)))
        CFI (cfiCond33) ?RET_HIGH load(1, XDATA, add(CFA_XSP16, literal(-4)))
        CFI (cfiCond33) ?BRET_EXT load(1, XDATA, add(CFA_XSP16, literal(-3)))
        CFI (cfiCond33) DPL0 load(1, XDATA, add(CFA_XSP16, literal(-2)))
        CFI (cfiCond33) DPH0 load(1, XDATA, add(CFA_XSP16, literal(-1)))
        CFI (cfiCond33) CFA_SP SP+-1
        CFI (cfiCond33) CFA_XSP16 add(XSP16, 14)
        CFI Block cfiPicker34 Using cfiCommon1
        CFI (cfiPicker34) NoFunction
        CFI (cfiPicker34) Picker
        MOVX    A,@DPTR
        MOV     R0,A
        MOV     A,R6
        ADD     A,R0
        MOV     DPL,A
        MOV     A,R7
        ADDC    A,#0x0
        MOV     DPH,A
        RET
        CFI EndBlock cfiCond30
        CFI EndBlock cfiCond31
        CFI EndBlock cfiCond32
        CFI EndBlock cfiCond33
        CFI EndBlock cfiPicker34

        RSEG BANK_RELAYS:CODE:REORDER:NOROOT(0)
??GenericApp_Init?relay:
        LCALL   ?BDISPATCH
        DATA
        DC24    GenericApp_Init

        RSEG BANK_RELAYS:CODE:REORDER:NOROOT(0)
??GenericApp_ProcessEvent?relay:
        LCALL   ?BDISPATCH
        DATA
        DC24    GenericApp_ProcessEvent

        RSEG BANK_RELAYS:CODE:REORDER:NOROOT(0)
??zb_SendDataRequest?relay:
        LCALL   ?BDISPATCH
        DATA
        DC24    zb_SendDataRequest

        RSEG BANK_RELAYS:CODE:REORDER:NOROOT(0)
??InitCRC16?relay:
        LCALL   ?BDISPATCH
        DATA
        DC24    InitCRC16

        RSEG BANK_RELAYS:CODE:REORDER:NOROOT(0)
??CRC16_Tstat?relay:
        LCALL   ?BDISPATCH
        DATA
        DC24    CRC16_Tstat

        RSEG BANK_RELAYS:CODE:REORDER:NOROOT(0)
??calcCRC16?relay:
        LCALL   ?BDISPATCH
        DATA
        DC24    calcCRC16

        END
//  691 #endif
//  692 //*********************************************
//  693 static void GenericApp_MessageMSGCB( afIncomingMSGPacket_t *pkt )
//  694 {
//  695 #if defined (START_ROUTER)
//  696   signalStrength_t *pInSignal;
//  697 //  uint8 change_network_mode[8] = { 0xff, 0x06, 0x00, 0x78, 0x00, 0x01, 0xdd, 0xcd};
//  698 #else
//  699   uint8 ack_byte = 1;
//  700 #endif
//  701   switch ( pkt->clusterId )
//  702   {
//  703     case GENERICAPP_CLUSTERID:
//  704 #if defined START_ROUTER
//  705     if( (pkt->cmd.Data[0] != 0xff) && (pkt->cmd.Data[1] == 0x03)&& (pkt->cmd.Data[2]!= 0xee))
//  706     {
//  707       if( tstat_id == pkt->cmd.Data[0])
//  708       {
//  709         len_check_flag = 1;
//  710         reg_len = pkt->cmd.Data[5];
//  711       }
//  712       else
//  713       {
//  714         len_check_flag = 0;
//  715       }
//  716     }
//  717     HalUARTWrite ( 0, pkt->cmd.Data, pkt->cmd.DataLength );
//  718 #else
//  719     update_addr = pkt->srcAddr.addr.shortAddr;
//  720       // send the received msg to uart
//  721     
//  722   #if defined ( USB_DONGLE)
//  723       HalUARTWrite ( 0, pkt->cmd.Data, pkt->cmd.DataLength );
//  724   #else
//  725       // 测试距离用**********************************
//  726       modbus_rssi = pkt->rssi;
//  727   //   modbus_correlation = pkt->correlation;
//  728   
//  729   
//  730     #ifdef PANID_DISPLAY
//  731           if( panId_send == TRUE)
//  732           {
//  733           //  TxBuffer.buf[panId_send_hi] = HI_UINT16(_NIB.nwkPanId);
//  734           //  TxBuffer.buf[panId_send_lo] = LO_UINT16(_NIB.nwkPanId);
//  735           //  TxBuffer.buf[panId_send_hi] = 
//  736             
//  737             
//  738             panId_send = FALSE;
//  739             
//  740             calcCRC16( pkt->cmd.Data, pkt->cmd.DataLength);
//  741           }
//  742           else
//  743     #endif // __PANID_DISPLAY
//  744           send_str_Uart( pkt->cmd.Data, pkt->cmd.DataLength, 0);
//  745       
//  746       // ********************************************
//  747       
//  748       
//  749   #endif  //__defined ( USB_DONGLE)
//  750     
//  751 #endif  // __defined START_ROUTER
//  752     break;
//  753     case ACK_CMD_ID:
//  754 #if defined ( START_ROUTER)
//  755       if( pkt->cmd.Data[0] == 1)
//  756         ack_exist = TRUE;
//  757 #else
//  758       if( pkt->cmd.Data[0] == 0)
//  759         zb_SendDataRequest( pkt->srcAddr.addr.shortAddr, ACK_CMD_ID, 1, &ack_byte, 
//  760                                0, AF_ACK_REQUEST, 0);
//  761 
//  762 #endif  // __defined ( START_ROUTER)
//  763       break;
//  764     
//  765 #if defined ( START_ROUTER)
//  766     case RSSI_REQ_ID:
//  767       if( pkt->cmd.Data[0] == 0)
//  768       {
//  769         zb_SendDataRequest( pkt->srcAddr.addr.shortAddr, RSSI_RSP_ID, 1, &tstat_id, 
//  770                                0, AF_ACK_REQUEST, 0);
//  771       }
//  772       break;
//  773       
//  774     case RSSI_RSP_ID:
//  775       if( pkt->cmd.Data[0] != 0)
//  776       {
//  777         pInSignal = findSignalStrength( pkt->cmd.Data[0]);
//  778         if( pInSignal != NULL)
//  779         {
//  780           pInSignal->rssi = pkt->rssi;
//  781         }
//  782         else
//  783         {
//  784           register_signalStrength( pkt->cmd.Data[0], pkt->rssi);
//  785           numSignalStren++;
//  786         }
//  787       }
//  788       break;
//  789 #endif //  __defined ( START_ROUTER)
//  790   }
//  791 }
//  792 //*********************************************
//  793 #if defined (START_ROUTER)
//  794 
//  795 static Status_t register_signalStrength( uint8 modbus_id, int8 rssi)
//  796 {
//  797   signalStrength_t *pNewItem;
//  798   signalStrength_t *pLoop;
//  799   
//  800   pNewItem = osal_mem_alloc( sizeof( signalStrength_t));
//  801   if( pNewItem == NULL)
//  802   {
//  803     return (ZMemError);
//  804   }
//  805   
//  806   pNewItem->next = (signalStrength_t *)NULL;
//  807   pNewItem->modbus_id = modbus_id;
//  808   pNewItem->rssi = rssi;
//  809   
//  810   if( pSignalStren == NULL)
//  811   {
//  812     pSignalStren = pNewItem;
//  813   }
//  814   else
//  815   {
//  816     pLoop = pSignalStren;
//  817     while( pLoop->next != NULL)
//  818     {
//  819       pLoop = pLoop->next;
//  820     }
//  821     pLoop->next = pNewItem;
//  822   }
//  823   
//  824   return SUCCESS;
//  825 }
//  826 //*********************************************
//  827 static signalStrength_t *findSignalStrength( uint8 modbus_id)
//  828 {
//  829   signalStrength_t *pLoop = pSignalStren;
//  830   
//  831   while( pLoop != NULL)
//  832   {
//  833     if( modbus_id == pLoop->modbus_id)
//  834     {
//  835       return (pLoop);
//  836     }
//  837     pLoop = pLoop->next;
//  838   }
//  839   
//  840   return ( (signalStrength_t*)NULL);
//  841 }
//  842 //*********************************************
//  843 static void sendAllSignalStren( void)
//  844 {
//  845   signalStrength_t *pLoop = pSignalStren;
//  846   while( pLoop != NULL)
//  847   {
//  848     send_char_Uart( pLoop->modbus_id, 0);
//  849     send_char_Uart( pLoop->rssi, 0);
//  850     pLoop = pLoop->next;
//  851   }
//  852 }
//  853 #endif
//  854 /*********************************************************************
//  855  */
// 
// 1 463 bytes in segment BANKED_CODE
//    36 bytes in segment BANK_RELAYS
//   512 bytes in segment CODE_C
//     1 byte  in segment SFR_AN
//    14 bytes in segment XDATA_ROM_C
//   545 bytes in segment XDATA_Z
// 
// 2 011 bytes of CODE  memory
//    14 bytes of CONST memory
//     0 bytes of DATA  memory (+ 1 byte shared)
//   545 bytes of XDATA memory
//
//Errors: none
//Warnings: none
