///////////////////////////////////////////////////////////////////////////////
//                                                                            /
// IAR C/C++ Compiler V8.10.1.10194/W32 for 8051        22/May/2013  10:02:05 /
// Copyright 2004-2011 IAR Systems AB.                                        /
//                                                                            /
//    Core               =  plain                                             /
//    Code model         =  banked                                            /
//    Data model         =  large                                             /
//    Calling convention =  xdata reentrant                                   /
//    Constant location  =  data_rom                                          /
//    Dptr setup         =  1,16                                              /
//    Source file        =  D:\Texas Instruments\ZIG_TEMCO\Components\hal\tar /
//                          get\CC2530USB\hal_key.c                           /
//    Command line       =  -f "D:\Texas Instruments\ZIG_TEMCO\Projects\zstac /
//                          k\Samples\GenericApp\CC2531\..\..\..\Tools\CC2530 /
//                          DB\f8wCoord.cfg" (-DCPU32MHZ -DROOT=__near_func   /
//                          -DMAC_CFG_APP_PENDING_QUEUE=TRUE                  /
//                          -DMAC_CFG_TX_DATA_MAX=5 -DMAC_CFG_TX_MAX=8        /
//                          -DMAC_CFG_RX_MAX=5 -DZDO_COORDINATOR -DRTR_NWK)   /
//                          -f "D:\Texas Instruments\ZIG_TEMCO\Projects\zstac /
//                          k\Samples\GenericApp\CC2531\..\..\..\Tools\CC2530 /
//                          DB\f8wConfig.cfg" (-DZIGBEEPRO -DSECURE=0         /
//                          -DZG_SECURE_DYNAMIC=0 -DREFLECTOR                 /
//                          -DDEFAULT_CHANLIST=0x00002000                     /
//                          -DZDAPP_CONFIG_PAN_ID=0xFFFF                      /
//                          -DNWK_START_DELAY=100 -DEXTENDED_JOINING_RANDOM_M /
//                          ASK=0x007F -DBEACON_REQUEST_DELAY=100             /
//                          -DBEACON_REQ_DELAY_MASK=0x00FF                    /
//                          -DLINK_STATUS_JITTER_MASK=0x007F                  /
//                          -DROUTE_EXPIRY_TIME=30 -DAPSC_ACK_WAIT_DURATION_P /
//                          OLLED=3000 -DNWK_INDIRECT_MSG_TIMEOUT=7           /
//                          -DMAX_RREQ_ENTRIES=8 -DAPSC_MAX_FRAME_RETRIES=3   /
//                          -DNWK_MAX_DATA_RETRIES=2                          /
//                          -DMAX_POLL_FAILURE_RETRIES=2 -DMAX_BCAST=9        /
//                          -DAPS_MAX_GROUPS=16 -DMAX_RTG_ENTRIES=40          /
//                          -DNWK_MAX_BINDING_ENTRIES=4                       /
//                          -DMAX_BINDING_CLUSTER_IDS=4                       /
//                          "-DDEFAULT_KEY={0x01, 0x03, 0x05, 0x07, 0x09,     /
//                          0x0B, 0x0D, 0x0F, 0x00, 0x02, 0x04, 0x06, 0x08,   /
//                          0x0A, 0x0C, 0x0D}" -DMAC_MAX_FRAME_SIZE=116       /
//                          -DZDNWKMGR_MIN_TRANSMISSIONS=20 "-DCONST=const    /
//                          __code" -DGENERIC=__generic                       /
//                          -DRFD_RCVC_ALWAYS_ON=FALSE -DPOLL_RATE=1000       /
//                          -DQUEUED_POLL_RATE=100 -DRESPONSE_POLL_RATE=100)  /
//                          -DREJOIN_POLL_RATE=440 "D:\Texas                  /
//                          Instruments\ZIG_TEMCO\Components\hal\target\CC253 /
//                          0USB\hal_key.c" -D ZTOOL_P1 -D NV_INIT -D         /
//                          NV_RESTORE -D USB_DONGLE -D MODBUS_SUPPLY -D      /
//                          xMT_TASK -D xMT_SYS_FUNC -D xMT_ZDO_FUNC -lC      /
//                          "D:\Texas Instruments\ZIG_TEMCO\Projects\zstack\S /
//                          amples\GenericApp\CC2531\Coordinator\List\" -lA   /
//                          "D:\Texas Instruments\ZIG_TEMCO\Projects\zstack\S /
//                          amples\GenericApp\CC2531\Coordinator\List\"       /
//                          --diag_suppress Pe001,Pa010 -o "D:\Texas          /
//                          Instruments\ZIG_TEMCO\Projects\zstack\Samples\Gen /
//                          ericApp\CC2531\Coordinator\Obj\" -e               /
//                          --no_code_motion --debug --core=plain             /
//                          --dptr=16,1 --data_model=large                    /
//                          --code_model=banked --calling_convention=xdata_re /
//                          entrant --place_constants=data_rom                /
//                          --nr_virtual_regs 16 -I "D:\Texas                 /
//                          Instruments\ZIG_TEMCO\Projects\zstack\Samples\Gen /
//                          ericApp\CC2531\" -I "D:\Texas                     /
//                          Instruments\ZIG_TEMCO\Projects\zstack\Samples\Gen /
//                          ericApp\CC2531\..\Source\" -I "D:\Texas           /
//                          Instruments\ZIG_TEMCO\Projects\zstack\Samples\Gen /
//                          ericApp\CC2531\..\..\..\ZMain\TI2530DB\" -I       /
//                          "D:\Texas Instruments\ZIG_TEMCO\Projects\zstack\S /
//                          amples\GenericApp\CC2531\..\..\..\..\..\Component /
//                          s\hal\include\" -I "D:\Texas                      /
//                          Instruments\ZIG_TEMCO\Projects\zstack\Samples\Gen /
//                          ericApp\CC2531\..\..\..\..\..\Components\hal\targ /
//                          et\CC2530USB\" -I "D:\Texas                       /
//                          Instruments\ZIG_TEMCO\Projects\zstack\Samples\Gen /
//                          ericApp\CC2531\..\..\..\..\..\Components\hal\targ /
//                          et\CC2530USB\usb\library\" -I "D:\Texas           /
//                          Instruments\ZIG_TEMCO\Projects\zstack\Samples\Gen /
//                          ericApp\CC2531\..\..\..\..\..\Components\hal\targ /
//                          et\CC2530USB\usb\library\cc2531\" -I "D:\Texas    /
//                          Instruments\ZIG_TEMCO\Projects\zstack\Samples\Gen /
//                          ericApp\CC2531\..\..\..\..\..\Components\hal\targ /
//                          et\CC2530USB\usb\class_cdc\" -I "D:\Texas         /
//                          Instruments\ZIG_TEMCO\Projects\zstack\Samples\Gen /
//                          ericApp\CC2531\..\..\..\..\..\Components\mac\incl /
//                          ude\" -I "D:\Texas Instruments\ZIG_TEMCO\Projects /
//                          \zstack\Samples\GenericApp\CC2531\..\..\..\..\..\ /
//                          Components\mac\high_level\" -I "D:\Texas          /
//                          Instruments\ZIG_TEMCO\Projects\zstack\Samples\Gen /
//                          ericApp\CC2531\..\..\..\..\..\Components\mac\low_ /
//                          level\srf04\" -I "D:\Texas                        /
//                          Instruments\ZIG_TEMCO\Projects\zstack\Samples\Gen /
//                          ericApp\CC2531\..\..\..\..\..\Components\mac\low_ /
//                          level\srf04\single_chip\" -I "D:\Texas            /
//                          Instruments\ZIG_TEMCO\Projects\zstack\Samples\Gen /
//                          ericApp\CC2531\..\..\..\..\..\Components\mt\" -I  /
//                          "D:\Texas Instruments\ZIG_TEMCO\Projects\zstack\S /
//                          amples\GenericApp\CC2531\..\..\..\..\..\Component /
//                          s\osal\include\" -I "D:\Texas                     /
//                          Instruments\ZIG_TEMCO\Projects\zstack\Samples\Gen /
//                          ericApp\CC2531\..\..\..\..\..\Components\services /
//                          \saddr\" -I "D:\Texas Instruments\ZIG_TEMCO\Proje /
//                          cts\zstack\Samples\GenericApp\CC2531\..\..\..\..\ /
//                          ..\Components\services\sdata\" -I "D:\Texas       /
//                          Instruments\ZIG_TEMCO\Projects\zstack\Samples\Gen /
//                          ericApp\CC2531\..\..\..\..\..\Components\stack\af /
//                          \" -I "D:\Texas Instruments\ZIG_TEMCO\Projects\zs /
//                          tack\Samples\GenericApp\CC2531\..\..\..\..\..\Com /
//                          ponents\stack\nwk\" -I "D:\Texas                  /
//                          Instruments\ZIG_TEMCO\Projects\zstack\Samples\Gen /
//                          ericApp\CC2531\..\..\..\..\..\Components\stack\sa /
//                          pi\" -I "D:\Texas Instruments\ZIG_TEMCO\Projects\ /
//                          zstack\Samples\GenericApp\CC2531\..\..\..\..\..\C /
//                          omponents\stack\sec\" -I "D:\Texas                /
//                          Instruments\ZIG_TEMCO\Projects\zstack\Samples\Gen /
//                          ericApp\CC2531\..\..\..\..\..\Components\stack\sy /
//                          s\" -I "D:\Texas Instruments\ZIG_TEMCO\Projects\z /
//                          stack\Samples\GenericApp\CC2531\..\..\..\..\..\Co /
//                          mponents\stack\zdo\" -I "D:\Texas                 /
//                          Instruments\ZIG_TEMCO\Projects\zstack\Samples\Gen /
//                          ericApp\CC2531\..\..\..\..\..\Components\zmac\"   /
//                          -I "D:\Texas Instruments\ZIG_TEMCO\Projects\zstac /
//                          k\Samples\GenericApp\CC2531\..\..\..\..\..\Compon /
//                          ents\zmac\f8w\" -Ohz --require_prototypes         /
//    List file          =  D:\Texas Instruments\ZIG_TEMCO\Projects\zstack\Sa /
//                          mples\GenericApp\CC2531\Coordinator\List\hal_key. /
//                          s51                                               /
//                                                                            /
//                                                                            /
///////////////////////////////////////////////////////////////////////////////

        NAME hal_key

        RTMODEL "__SystemLibrary", "CLib"
        RTMODEL "__calling_convention", "xdata_reentrant"
        RTMODEL "__code_model", "banked"
        RTMODEL "__core", "plain"
        RTMODEL "__data_model", "large"
        RTMODEL "__dptr_size", "16"
        RTMODEL "__extended_stack", "disabled"
        RTMODEL "__location_for_constants", "data"
        RTMODEL "__number_of_dptrs", "1"
        RTMODEL "__rt_version", "1"

        RSEG DOVERLAY:DATA:NOROOT(0)
        RSEG IOVERLAY:IDATA:NOROOT(0)
        RSEG ISTACK:IDATA:NOROOT(0)
        RSEG PSTACK:XDATA:NOROOT(0)
        RSEG XSTACK:XDATA:NOROOT(0)

        EXTERN ?BANKED_ENTER_XDATA
        EXTERN ?BANKED_LEAVE_XDATA
        EXTERN ?BDISPATCH
        EXTERN ?BRET
        EXTERN ?CALL_IND
        EXTERN ?INTERRUPT_ENTER_XSP
        EXTERN ?INTERRUPT_LEAVE_XSP
        EXTERN __INIT_XDATA_Z

        PUBLIC ??HalKeyConfig?relay
        FUNCTION ??HalKeyConfig?relay,0203H
        PUBLIC ??HalKeyEnterSleep?relay
        FUNCTION ??HalKeyEnterSleep?relay,0203H
        PUBLIC ??HalKeyExitSleep?relay
        FUNCTION ??HalKeyExitSleep?relay,0203H
        PUBLIC ??HalKeyInit?relay
        FUNCTION ??HalKeyInit?relay,0203H
        PUBLIC ??HalKeyPoll?relay
        FUNCTION ??HalKeyPoll?relay,0203H
        PUBLIC ??HalKeyRead?relay
        FUNCTION ??HalKeyRead?relay,0203H
        PUBWEAK `??usbKeyISR??INTVEC 123`
        PUBLIC HalKeyConfig
        FUNCTION HalKeyConfig,021203H
        ARGFRAME XSTACK, 0, STACK
        LOCFRAME XSTACK, 9, STACK
        PUBLIC HalKeyEnterSleep
        FUNCTION HalKeyEnterSleep,0203H
        ARGFRAME XSTACK, 0, STACK
        PUBLIC HalKeyExitSleep
        FUNCTION HalKeyExitSleep,021203H
        ARGFRAME XSTACK, 0, STACK
        LOCFRAME ISTACK, 2, STACK
        PUBLIC HalKeyInit
        FUNCTION HalKeyInit,0203H
        ARGFRAME XSTACK, 0, STACK
        PUBLIC HalKeyPoll
        FUNCTION HalKeyPoll,021203H
        ARGFRAME XSTACK, 0, STACK
        LOCFRAME ISTACK, 2, STACK
        PUBLIC HalKeyRead
        FUNCTION HalKeyRead,0203H
        ARGFRAME XSTACK, 0, STACK
        ARGFRAME IOVERLAY, 0, STATIC
        ARGFRAME DOVERLAY, 0, STATIC
        PUBLIC Hal_KeyIntEnable
        PUBWEAK IEN2
        PUBWEAK P1IEN
        PUBWEAK P1IFG
        PUBWEAK PICTL
        PUBWEAK _A_IEN0
        PUBWEAK _A_IRCON2
        PUBWEAK _A_P1
        PUBLIC usbKeyISR
        FUNCTION usbKeyISR,021233H
        ARGFRAME XSTACK, 0, STACK
        LOCFRAME ISTACK, 15, STACK
        
        CFI Names cfiNames0
        CFI StackFrame CFA_SP SP IDATA
        CFI StackFrame CFA_PSP16 PSP16 XDATA
        CFI StackFrame CFA_XSP16 XSP16 XDATA
        CFI StaticOverlayFrame CFA_IOVERLAY IOVERLAY
        CFI StaticOverlayFrame CFA_DOVERLAY DOVERLAY
        CFI Resource `PSW.CY`:1, `B.BR0`:1, `B.BR1`:1, `B.BR2`:1, `B.BR3`:1
        CFI Resource `B.BR4`:1, `B.BR5`:1, `B.BR6`:1, `B.BR7`:1, `VB.BR8`:1
        CFI Resource `VB.BR9`:1, `VB.BR10`:1, `VB.BR11`:1, `VB.BR12`:1
        CFI Resource `VB.BR13`:1, `VB.BR14`:1, `VB.BR15`:1, VB:8, B:8, A:8
        CFI Resource PSW:8, DPL0:8, DPH0:8, R0:8, R1:8, R2:8, R3:8, R4:8, R5:8
        CFI Resource R6:8, R7:8, V0:8, V1:8, V2:8, V3:8, V4:8, V5:8, V6:8, V7:8
        CFI Resource V8:8, V9:8, V10:8, V11:8, V12:8, V13:8, V14:8, V15:8, SP:8
        CFI Resource PSPH:8, PSPL:8, PSP16:16, XSPH:8, XSPL:8, XSP16:16
        CFI VirtualResource ?RET:24
        CFI Resource ?BRET_EXT:8
        CFI VirtualResource ?RET_HIGH:8, ?RET_LOW:8
        CFI ResourceParts PSP16 PSPH, PSPL
        CFI ResourceParts XSP16 XSPH, XSPL
        CFI ResourceParts ?RET ?BRET_EXT, ?RET_HIGH, ?RET_LOW
        CFI EndNames cfiNames0
        
        CFI Common cfiCommon0 Using cfiNames0
        CFI CodeAlign 1
        CFI DataAlign -1
        CFI ReturnAddress ?RET CODE
        CFI CFA_DOVERLAY Used
        CFI CFA_IOVERLAY Used
        CFI CFA_SP SP+-3
        CFI CFA_PSP16 PSP16+0
        CFI CFA_XSP16 XSP16+0
        CFI `PSW.CY` SameValue
        CFI `B.BR0` SameValue
        CFI `B.BR1` SameValue
        CFI `B.BR2` SameValue
        CFI `B.BR3` SameValue
        CFI `B.BR4` SameValue
        CFI `B.BR5` SameValue
        CFI `B.BR6` SameValue
        CFI `B.BR7` SameValue
        CFI `VB.BR8` SameValue
        CFI `VB.BR9` SameValue
        CFI `VB.BR10` SameValue
        CFI `VB.BR11` SameValue
        CFI `VB.BR12` SameValue
        CFI `VB.BR13` SameValue
        CFI `VB.BR14` SameValue
        CFI `VB.BR15` SameValue
        CFI VB SameValue
        CFI B Undefined
        CFI A Undefined
        CFI PSW SameValue
        CFI DPL0 SameValue
        CFI DPH0 SameValue
        CFI R0 Undefined
        CFI R1 Undefined
        CFI R2 Undefined
        CFI R3 Undefined
        CFI R4 Undefined
        CFI R5 Undefined
        CFI R6 SameValue
        CFI R7 SameValue
        CFI V0 SameValue
        CFI V1 SameValue
        CFI V2 SameValue
        CFI V3 SameValue
        CFI V4 SameValue
        CFI V5 SameValue
        CFI V6 SameValue
        CFI V7 SameValue
        CFI V8 SameValue
        CFI V9 SameValue
        CFI V10 SameValue
        CFI V11 SameValue
        CFI V12 SameValue
        CFI V13 SameValue
        CFI V14 SameValue
        CFI V15 SameValue
        CFI PSPH Undefined
        CFI PSPL Undefined
        CFI XSPH Undefined
        CFI XSPL Undefined
        CFI ?RET Concat
        CFI ?BRET_EXT Frame(CFA_SP, 3)
        CFI ?RET_HIGH Frame(CFA_SP, 2)
        CFI ?RET_LOW Frame(CFA_SP, 1)
        CFI EndCommon cfiCommon0
        
        
        CFI Common cfiCommon1 Using cfiNames0
        CFI CodeAlign 1
        CFI DataAlign -1
        CFI ReturnAddress ?RET CODE
        CFI CFA_DOVERLAY Used
        CFI CFA_IOVERLAY Used
        CFI CFA_SP SP+-2
        CFI CFA_PSP16 PSP16+0
        CFI CFA_XSP16 XSP16+0
        CFI `PSW.CY` SameValue
        CFI `B.BR0` SameValue
        CFI `B.BR1` SameValue
        CFI `B.BR2` SameValue
        CFI `B.BR3` SameValue
        CFI `B.BR4` SameValue
        CFI `B.BR5` SameValue
        CFI `B.BR6` SameValue
        CFI `B.BR7` SameValue
        CFI `VB.BR8` SameValue
        CFI `VB.BR9` SameValue
        CFI `VB.BR10` SameValue
        CFI `VB.BR11` SameValue
        CFI `VB.BR12` SameValue
        CFI `VB.BR13` SameValue
        CFI `VB.BR14` SameValue
        CFI `VB.BR15` SameValue
        CFI VB SameValue
        CFI B SameValue
        CFI A SameValue
        CFI PSW SameValue
        CFI DPL0 SameValue
        CFI DPH0 SameValue
        CFI R0 SameValue
        CFI R1 SameValue
        CFI R2 SameValue
        CFI R3 SameValue
        CFI R4 SameValue
        CFI R5 SameValue
        CFI R6 SameValue
        CFI R7 SameValue
        CFI V0 SameValue
        CFI V1 SameValue
        CFI V2 SameValue
        CFI V3 SameValue
        CFI V4 SameValue
        CFI V5 SameValue
        CFI V6 SameValue
        CFI V7 SameValue
        CFI V8 SameValue
        CFI V9 SameValue
        CFI V10 SameValue
        CFI V11 SameValue
        CFI V12 SameValue
        CFI V13 SameValue
        CFI V14 SameValue
        CFI V15 SameValue
        CFI PSPH Undefined
        CFI PSPL Undefined
        CFI XSPH Undefined
        CFI XSPL Undefined
        CFI ?RET Concat
        CFI ?BRET_EXT SameValue
        CFI ?RET_HIGH Frame(CFA_SP, 2)
        CFI ?RET_LOW Frame(CFA_SP, 1)
        CFI EndCommon cfiCommon1
        
osal_set_event      SYMBOL "osal_set_event"
??osal_set_event?relay SYMBOL "?relay", osal_set_event
HalKeyConfig        SYMBOL "HalKeyConfig"
??HalKeyConfig?relay SYMBOL "?relay", HalKeyConfig
HalKeyEnterSleep    SYMBOL "HalKeyEnterSleep"
??HalKeyEnterSleep?relay SYMBOL "?relay", HalKeyEnterSleep
HalKeyExitSleep     SYMBOL "HalKeyExitSleep"
??HalKeyExitSleep?relay SYMBOL "?relay", HalKeyExitSleep
HalKeyInit          SYMBOL "HalKeyInit"
??HalKeyInit?relay  SYMBOL "?relay", HalKeyInit
HalKeyPoll          SYMBOL "HalKeyPoll"
??HalKeyPoll?relay  SYMBOL "?relay", HalKeyPoll
HalKeyRead          SYMBOL "HalKeyRead"
??HalKeyRead?relay  SYMBOL "?relay", HalKeyRead
usbKeyISR           SYMBOL "usbKeyISR"
`??usbKeyISR??INTVEC 123` SYMBOL "??INTVEC 123", usbKeyISR

        EXTERN osal_set_event
        FUNCTION osal_set_event,0202H
        ARGFRAME ISTACK, 15, STACK
        ARGFRAME PSTACK, 0, STACK
        ARGFRAME XSTACK, 9, STACK
        ARGFRAME IOVERLAY, 0, STATIC
        ARGFRAME DOVERLAY, 0, STATIC
        EXTERN ??osal_set_event?relay
        FUNCTION ??osal_set_event?relay,00H
        EXTERN Hal_TaskID

// D:\Texas Instruments\ZIG_TEMCO\Components\hal\target\CC2530USB\hal_key.c
//    1 /**************************************************************************************************
//    2   Filename:       hal_key.c
//    3   Revised:        $Date:$
//    4   Revision:       $Revision:$
//    5 
//    6   Description: This file contains the interface to the H/W Key driver.
//    7 
//    8 
//    9   Copyright 2006-2010 Texas Instruments Incorporated. All rights reserved.
//   10 
//   11   IMPORTANT: Your use of this Software is limited to those specific rights
//   12   granted under the terms of a software license agreement between the user
//   13   who downloaded the software, his/her employer (which must be your employer)
//   14   and Texas Instruments Incorporated (the "License").  You may not use this
//   15   Software unless you agree to abide by the terms of the License. The License
//   16   limits your use, and you acknowledge, that the Software may not be modified,
//   17   copied or distributed unless embedded on a Texas Instruments microcontroller
//   18   or used solely and exclusively in conjunction with a Texas Instruments radio
//   19   frequency transceiver, which is integrated into your product.  Other than for
//   20   the foregoing purpose, you may not use, reproduce, copy, prepare derivative
//   21   works of, modify, distribute, perform, display or sell this Software and/or
//   22   its documentation for any purpose.
//   23 
//   24   YOU FURTHER ACKNOWLEDGE AND AGREE THAT THE SOFTWARE AND DOCUMENTATION ARE
//   25   PROVIDED “AS IS” WITHOUT WARRANTY OF ANY KIND, EITHER EXPRESS OR IMPLIED,
//   26   INCLUDING WITHOUT LIMITATION, ANY WARRANTY OF MERCHANTABILITY, TITLE,
//   27   NON-INFRINGEMENT AND FITNESS FOR A PARTICULAR PURPOSE. IN NO EVENT SHALL
//   28   TEXAS INSTRUMENTS OR ITS LICENSORS BE LIABLE OR OBLIGATED UNDER CONTRACT,
//   29   NEGLIGENCE, STRICT LIABILITY, CONTRIBUTION, BREACH OF WARRANTY, OR OTHER
//   30   LEGAL EQUITABLE THEORY ANY DIRECT OR INDIRECT DAMAGES OR EXPENSES
//   31   INCLUDING BUT NOT LIMITED TO ANY INCIDENTAL, SPECIAL, INDIRECT, PUNITIVE
//   32   OR CONSEQUENTIAL DAMAGES, LOST PROFITS OR LOST DATA, COST OF PROCUREMENT
//   33   OF SUBSTITUTE GOODS, TECHNOLOGY, SERVICES, OR ANY CLAIMS BY THIRD PARTIES
//   34   (INCLUDING BUT NOT LIMITED TO ANY DEFENSE THEREOF), OR OTHER SIMILAR COSTS.
//   35 
//   36   Should you have any questions regarding your right to use this Software,
//   37   contact Texas Instruments Incorporated at www.TI.com.
//   38 **************************************************************************************************/
//   39 
//   40 /* ------------------------------------------------------------------------------------------------
//   41  *                                          Includes
//   42  * ------------------------------------------------------------------------------------------------
//   43  */
//   44 
//   45 #include "hal_board.h"

        ASEGN SFR_AN:DATA:NOROOT,08aH
// unsigned char volatile __sfr P1IFG
P1IFG:
        DATA8
        DS 1

        ASEGN SFR_AN:DATA:NOROOT,08cH
// unsigned char volatile __sfr PICTL
PICTL:
        DATA8
        DS 1

        ASEGN SFR_AN:DATA:NOROOT,08dH
// unsigned char volatile __sfr P1IEN
P1IEN:
        DATA8
        DS 1

        ASEGN SFR_AN:DATA:NOROOT,090H
// union <unnamed> volatile __sfr _A_P1
_A_P1:
        DATA8
        DS 1

        ASEGN SFR_AN:DATA:NOROOT,09aH
// unsigned char volatile __sfr IEN2
IEN2:
        DATA8
        DS 1

        ASEGN SFR_AN:DATA:NOROOT,0a8H
// union <unnamed> volatile __sfr _A_IEN0
_A_IEN0:
        DATA8
        DS 1

        ASEGN SFR_AN:DATA:NOROOT,0e8H
// union <unnamed> volatile __sfr _A_IRCON2
_A_IRCON2:
        DATA8
        DS 1
//   46 #include "hal_drivers.h"
//   47 #include "hal_key.h"
//   48 #include "hal_types.h"
//   49 #include "osal.h"
//   50 #include "usb_interrupt.h"
//   51 
//   52 /* ------------------------------------------------------------------------------------------------
//   53  *                                           Macros  
//   54  * ------------------------------------------------------------------------------------------------
//   55  */
//   56 
//   57 #define HAL_KEY_CLR_INT() \ 
//   58 st ( \ 
//   59   /* PxIFG has to be cleared before PxIF. */\ 
//   60   P1IFG = 0; \ 
//   61   P1IF = 0; \ 
//   62 )
//   63 
//   64 /* ------------------------------------------------------------------------------------------------
//   65  *                                          Constants
//   66  * ------------------------------------------------------------------------------------------------
//   67  */
//   68 
//   69 /* ------------------------------------------------------------------------------------------------
//   70  *                                          Typedefs
//   71  * ------------------------------------------------------------------------------------------------
//   72  */
//   73 
//   74 /* ------------------------------------------------------------------------------------------------
//   75  *                                       Global Variables
//   76  * ------------------------------------------------------------------------------------------------
//   77  */
//   78 

        RSEG XDATA_Z:XDATA:NOROOT(0)
        DATA8
//   79 uint8 Hal_KeyIntEnable;
Hal_KeyIntEnable:
        DS 1
        REQUIRE __INIT_XDATA_Z
//   80 
//   81 /* ------------------------------------------------------------------------------------------------
//   82  *                                       Global Functions
//   83  * ------------------------------------------------------------------------------------------------
//   84  */
//   85 
//   86 /* ------------------------------------------------------------------------------------------------
//   87  *                                       Local Variables
//   88  * ------------------------------------------------------------------------------------------------
//   89  */
//   90 

        RSEG XDATA_Z:XDATA:NOROOT(0)
        DATA16
//   91 static halKeyCBack_t pHalKeyProcessFunction;
pHalKeyProcessFunction:
        DS 2
        REQUIRE __INIT_XDATA_Z

        RSEG XDATA_Z:XDATA:NOROOT(0)
        DATA8
//   92 static volatile uint8 isrKeys;
isrKeys:
        DS 1
        REQUIRE __INIT_XDATA_Z

        RSEG XDATA_Z:XDATA:NOROOT(0)
        DATA8
//   93 static uint8 halKeys;
halKeys:
        DS 1
        REQUIRE __INIT_XDATA_Z
//   94 
//   95 /* ------------------------------------------------------------------------------------------------
//   96  *                                       Local Functions
//   97  * ------------------------------------------------------------------------------------------------
//   98  */
//   99 
//  100 /**************************************************************************************************
//  101  * @fn          HalKeyInit
//  102  *
//  103  * @brief       This function is called by HalDriverInit to initialize the H/W keys.
//  104  *
//  105  * input parameters
//  106  *
//  107  * None.
//  108  *
//  109  * output parameters
//  110  *
//  111  * None.
//  112  *
//  113  * @return      None.
//  114  **************************************************************************************************
//  115  */

        RSEG BANKED_CODE:CODE:NOROOT(0)
//  116 void HalKeyInit(void)
HalKeyInit:
        CFI Block cfiBlock0 Using cfiCommon0
        CFI Function HalKeyInit
        CODE
//  117 {
        ; Saved register size: 0
        ; Auto size: 0
//  118 }
        LJMP    ?BRET
        CFI EndBlock cfiBlock0
//  119 
//  120 /**************************************************************************************************
//  121  * @fn          HalKeyConfig
//  122  *
//  123  * @brief       This function is called by HalDriverInit to initialize the H/W keys.
//  124  *
//  125  * input parameters
//  126  *
//  127  * @param       interruptEnable - TRUE/FALSE to enable the key interrupt.
//  128  * @param       cback - The callback function for the key change event.
//  129  *
//  130  * output parameters
//  131  *
//  132  * None.
//  133  *
//  134  * @return      None.
//  135  **************************************************************************************************
//  136  */

        RSEG BANKED_CODE:CODE:NOROOT(0)
//  137 void HalKeyConfig(bool interruptEnable, halKeyCBack_t cback)
HalKeyConfig:
        CFI Block cfiBlock1 Using cfiCommon0
        CFI Function HalKeyConfig
        CODE
//  138 {
        FUNCALL HalKeyConfig, osal_set_event
        LOCFRAME ISTACK, 0, STACK
        LOCFRAME PSTACK, 0, STACK
        LOCFRAME XSTACK, 9, STACK
        LOCFRAME IOVERLAY, 0, STATIC
        LOCFRAME DOVERLAY, 0, STATIC
        ARGFRAME ISTACK, 0, STACK
        ARGFRAME PSTACK, 0, STACK
        ARGFRAME XSTACK, 9, STACK
        ARGFRAME IOVERLAY, 0, STATIC
        ARGFRAME DOVERLAY, 0, STATIC
        MOV     A,#-0x9
        LCALL   ?BANKED_ENTER_XDATA
        CFI DPH0 load(1, XDATA, add(CFA_XSP16, literal(-1)))
        CFI DPL0 load(1, XDATA, add(CFA_XSP16, literal(-2)))
        CFI ?BRET_EXT load(1, XDATA, add(CFA_XSP16, literal(-3)))
        CFI ?RET_HIGH load(1, XDATA, add(CFA_XSP16, literal(-4)))
        CFI ?RET_LOW load(1, XDATA, add(CFA_XSP16, literal(-5)))
        CFI R7 load(1, XDATA, add(CFA_XSP16, literal(-6)))
        CFI V0 load(1, XDATA, add(CFA_XSP16, literal(-7)))
        CFI VB load(1, XDATA, add(CFA_XSP16, literal(-8)))
        CFI R6 load(1, XDATA, add(CFA_XSP16, literal(-9)))
        CFI CFA_SP SP+0
        CFI CFA_XSP16 add(XSP16, 9)
        ; Saved register size: 9
        ; Auto size: 0
        MOV     A,R2
        MOV     R6,A
        MOV     A,R3
        MOV     R7,A
//  139   if ((Hal_KeyIntEnable = interruptEnable))
        MOV     A,R1
        MOV     DPTR,#Hal_KeyIntEnable
        MOVX    @DPTR,A
        JZ      ??HalKeyConfig_0
//  140   {
//  141     HAL_KEY_CLR_INT();             // Clear spurious ints.
        MOV     0x8a,#0x0
        CLR     0xe8.3
//  142     PICTL |= 0x01;                 // P1ICONL: Falling edge ints on pins 0-3.
        ORL     0x8c,#0x1
//  143     P1IEN |= PUSH1_BV | PUSH2_BV;  // Enable specific P1 bits for ints by bit mask.
        ORL     0x8d,#0xc
//  144     IEN2  |= 0x10;                 // Enable general P1 interrupts.
        ORL     0x9a,#0x10
        SJMP    ??HalKeyConfig_1
//  145   }
//  146   else
//  147   {
//  148     (void)osal_set_event(Hal_TaskID, HAL_KEY_EVENT);
??HalKeyConfig_0:
        ; Setup parameters for call to function osal_set_event
        MOV     R2,#0x1
        MOV     R3,#0x0
        MOV     DPTR,#Hal_TaskID
        MOVX    A,@DPTR
        MOV     R1,A
        LCALL   ??osal_set_event?relay
//  149   }
//  150 
//  151   pHalKeyProcessFunction = cback;
??HalKeyConfig_1:
        MOV     DPTR,#pHalKeyProcessFunction
        MOV     A,R6
        MOVX    @DPTR,A
        INC     DPTR
        MOV     A,R7
        MOVX    @DPTR,A
//  152 }
        MOV     R7,#0x1
        LJMP    ?BANKED_LEAVE_XDATA
        CFI EndBlock cfiBlock1
        REQUIRE P1IFG
        REQUIRE _A_IRCON2
        REQUIRE PICTL
        REQUIRE P1IEN
        REQUIRE IEN2
//  153 
//  154 /**************************************************************************************************
//  155  * @fn          HalKeyPoll
//  156  *
//  157  * @brief       This function is called by Hal_ProcessEvent() on a HAL_KEY_EVENT.
//  158  *
//  159  * input parameters
//  160  *
//  161  * None.
//  162  *
//  163  * output parameters
//  164  *
//  165  * None.
//  166  *
//  167  * @return      None.
//  168  **************************************************************************************************
//  169  */

        RSEG BANKED_CODE:CODE:NOROOT(0)
//  170 void HalKeyPoll(void)
HalKeyPoll:
        CFI Block cfiBlock2 Using cfiCommon0
        CFI Function HalKeyPoll
        CODE
//  171 {
        FUNCALL HalKeyPoll, HalKeyRead
        LOCFRAME ISTACK, 2, STACK
        LOCFRAME PSTACK, 0, STACK
        LOCFRAME XSTACK, 0, STACK
        LOCFRAME IOVERLAY, 0, STATIC
        LOCFRAME DOVERLAY, 0, STATIC
        ARGFRAME ISTACK, 2, STACK
        ARGFRAME PSTACK, 0, STACK
        ARGFRAME XSTACK, 0, STACK
        ARGFRAME IOVERLAY, 0, STATIC
        ARGFRAME DOVERLAY, 0, STATIC
        PUSH    DPL
        CFI DPL0 Frame(CFA_SP, 4)
        CFI CFA_SP SP+-4
        PUSH    DPH
        CFI DPH0 Frame(CFA_SP, 5)
        CFI CFA_SP SP+-5
        ; Saved register size: 2
        ; Auto size: 0
//  172   uint8 newKeys;
//  173 
//  174   if (Hal_KeyIntEnable)
        MOV     DPTR,#Hal_KeyIntEnable
        MOVX    A,@DPTR
        JZ      ??HalKeyPoll_0
//  175   {
//  176     halIntState_t intState;
//  177     HAL_ENTER_CRITICAL_SECTION(intState);
        MOV     A,0xa8
        MOV     R0,A
        CLR     0xa8.7
//  178     newKeys = isrKeys;
        MOV     DPTR,#isrKeys
        MOVX    A,@DPTR
        MOV     R1,A
//  179     isrKeys = 0;
        CLR     A
        MOVX    @DPTR,A
//  180     HAL_EXIT_CRITICAL_SECTION(intState);
        MOV     A,R0
        MOV     C,0xE0 /* A   */.7
        MOV     0xa8.7,C
        SJMP    ??HalKeyPoll_1
//  181   }
//  182   else
//  183   {
//  184     uint8 keys = HalKeyRead();
??HalKeyPoll_0:
        ; Setup parameters for call to function HalKeyRead
        LCALL   ??HalKeyRead?relay
        MOV     A,R1
        MOV     R0,A
//  185     newKeys = (halKeys ^ keys) & keys;
        MOV     DPTR,#halKeys
        MOVX    A,@DPTR
        XRL     A,R0
        ANL     A,R0
        MOV     R1,A
//  186     halKeys = keys;
        MOV     A,R0
        MOVX    @DPTR,A
//  187   }
//  188 
//  189   if (newKeys && pHalKeyProcessFunction)
??HalKeyPoll_1:
        MOV     A,R1
        JZ      ??HalKeyPoll_2
        MOV     DPTR,#pHalKeyProcessFunction
        MOVX    A,@DPTR
        MOV     R2,A
        INC     DPTR
        MOVX    A,@DPTR
        MOV     R3,A
        MOV     A,R2
        ORL     A,R3
        JZ      ??HalKeyPoll_2
//  190   {
//  191     (pHalKeyProcessFunction)(newKeys, HAL_KEY_STATE_NORMAL);
        ; Setup parameters for indirect call
        MOV     R2,#0x0
        MOV     DPTR,#pHalKeyProcessFunction
        MOVX    A,@DPTR
        MOV     R0,A
        INC     DPTR
        MOVX    A,@DPTR
        MOV     DPH,A
        MOV     DPL,R0
        LCALL   ?CALL_IND
        CFI EndBlock cfiBlock2
//  192   }
//  193 }
??HalKeyPoll_2:
        REQUIRE ?Subroutine0
        REQUIRE _A_IEN0
        ; // Fall through to label ?Subroutine0

        RSEG BANKED_CODE:CODE:NOROOT(0)
?Subroutine0:
        CFI Block cfiBlock3 Using cfiCommon0
        CFI NoFunction
        CFI CFA_SP SP+-5
        CFI DPL0 Frame(CFA_SP, 4)
        CFI DPH0 Frame(CFA_SP, 5)
        POP     DPH
        CFI CFA_SP SP+-4
        CFI DPH0 SameValue
        POP     DPL
        CFI CFA_SP SP+-3
        CFI DPL0 SameValue
        LJMP    ?BRET
        CFI EndBlock cfiBlock3
//  194 
//  195 /**************************************************************************************************
//  196  * @fn          HalKeyRead
//  197  *
//  198  * @brief       This function is called anywhere.
//  199  *
//  200  * input parameters
//  201  *
//  202  * None.
//  203  *
//  204  * output parameters
//  205  *
//  206  * None.
//  207  *
//  208  * @return      The bit mask of all keys pressed.
//  209  **************************************************************************************************
//  210  */

        RSEG BANKED_CODE:CODE:NOROOT(0)
//  211 uint8 HalKeyRead(void)
HalKeyRead:
        CFI Block cfiBlock4 Using cfiCommon0
        CFI Function HalKeyRead
        CODE
//  212 {
        ; Saved register size: 0
        ; Auto size: 0
//  213   uint8 keys = 0;
        MOV     R1,#0x0
//  214 
//  215   if (HAL_PUSH_BUTTON1())
        MOV     C,0x90.2
        JNC     ??HalKeyRead_0
//  216   {
//  217     keys |= HAL_KEY_SW_1;
        INC     R1
//  218   }
//  219 
//  220   if (HAL_PUSH_BUTTON2())
??HalKeyRead_0:
        MOV     C,0x90.3
        JNC     ??HalKeyRead_1
//  221   {
//  222     keys |= HAL_KEY_SW_2;
        MOV     A,R1
        SETB    0xE0 /* A   */.1
        MOV     R1,A
//  223   }
//  224 
//  225   return keys;
??HalKeyRead_1:
        LJMP    ?BRET
        CFI EndBlock cfiBlock4
        REQUIRE _A_P1
//  226 }
//  227 
//  228 /**************************************************************************************************
//  229  * @fn      HalKeyEnterSleep
//  230  *
//  231  * @brief  - Get called to enter sleep mode
//  232  *
//  233  * @param
//  234  *
//  235  * @return
//  236  **************************************************************************************************/

        RSEG BANKED_CODE:CODE:NOROOT(0)
//  237 void HalKeyEnterSleep ( void )
HalKeyEnterSleep:
        CFI Block cfiBlock5 Using cfiCommon0
        CFI Function HalKeyEnterSleep
        CODE
//  238 {
        ; Saved register size: 0
        ; Auto size: 0
//  239 }
        LJMP    ?BRET
        CFI EndBlock cfiBlock5
//  240 
//  241 /**************************************************************************************************
//  242  * @fn      HalKeyExitSleep
//  243  *
//  244  * @brief   - Get called when sleep is over
//  245  *
//  246  * @param
//  247  *
//  248  * @return  - return saved keys
//  249  **************************************************************************************************/

        RSEG BANKED_CODE:CODE:NOROOT(0)
//  250 uint8 HalKeyExitSleep ( void )
HalKeyExitSleep:
        CFI Block cfiBlock6 Using cfiCommon0
        CFI Function HalKeyExitSleep
        CODE
//  251 {
        FUNCALL HalKeyExitSleep, HalKeyRead
        LOCFRAME ISTACK, 2, STACK
        LOCFRAME PSTACK, 0, STACK
        LOCFRAME XSTACK, 0, STACK
        LOCFRAME IOVERLAY, 0, STATIC
        LOCFRAME DOVERLAY, 0, STATIC
        ARGFRAME ISTACK, 2, STACK
        ARGFRAME PSTACK, 0, STACK
        ARGFRAME XSTACK, 0, STACK
        ARGFRAME IOVERLAY, 0, STATIC
        ARGFRAME DOVERLAY, 0, STATIC
        PUSH    DPL
        CFI DPL0 Frame(CFA_SP, 4)
        CFI CFA_SP SP+-4
        PUSH    DPH
        CFI DPH0 Frame(CFA_SP, 5)
        CFI CFA_SP SP+-5
        ; Saved register size: 2
        ; Auto size: 0
//  252   /* Wake up and read keys */
//  253   return ( HalKeyRead () );
        ; Setup parameters for call to function HalKeyRead
        LCALL   ??HalKeyRead?relay
        SJMP    ?Subroutine0
        CFI EndBlock cfiBlock6
//  254 }
//  255 
//  256 /**************************************************************************************************
//  257  * @fn          usbKeyISR
//  258  *
//  259  * @brief       This function is the ISR for the Port2 USB/Key interrupt.
//  260  *
//  261  * input parameters
//  262  *
//  263  * None.
//  264  *
//  265  * output parameters
//  266  *
//  267  * None.
//  268  *
//  269  * @return      None.
//  270  **************************************************************************************************
//  271  */

        RSEG NEAR_CODE:CODE:NOROOT(0)
//  272 HAL_ISR_FUNCTION( usbKeyISR, P1INT_VECTOR )
usbKeyISR:
        CFI Block cfiBlock7 Using cfiCommon1
        CFI Function usbKeyISR
        CODE
//  273 {
        FUNCALL usbKeyISR, osal_set_event
        LOCFRAME ISTACK, 15, STACK
        LOCFRAME PSTACK, 0, STACK
        LOCFRAME XSTACK, 0, STACK
        LOCFRAME IOVERLAY, 0, STATIC
        LOCFRAME DOVERLAY, 0, STATIC
        ARGFRAME ISTACK, 15, STACK
        ARGFRAME PSTACK, 0, STACK
        ARGFRAME XSTACK, 0, STACK
        ARGFRAME IOVERLAY, 0, STATIC
        ARGFRAME DOVERLAY, 0, STATIC
        PUSH    A
        CFI A Frame(CFA_SP, 3)
        CFI CFA_SP SP+-3
        MOV     A,#-0xe
        LCALL   ?INTERRUPT_ENTER_XSP
        CFI B load(1, XDATA, add(CFA_XSP16, literal(-1)))
        CFI VB load(1, XDATA, add(CFA_XSP16, literal(-2)))
        CFI PSW load(1, XDATA, add(CFA_XSP16, literal(-3)))
        CFI DPL0 load(1, XDATA, add(CFA_XSP16, literal(-4)))
        CFI DPH0 load(1, XDATA, add(CFA_XSP16, literal(-5)))
        CFI R7 load(1, XDATA, add(CFA_XSP16, literal(-6)))
        CFI R6 load(1, XDATA, add(CFA_XSP16, literal(-7)))
        CFI R5 load(1, XDATA, add(CFA_XSP16, literal(-8)))
        CFI R4 load(1, XDATA, add(CFA_XSP16, literal(-9)))
        CFI V0 load(1, XDATA, add(CFA_XSP16, literal(-10)))
        CFI R3 load(1, XDATA, add(CFA_XSP16, literal(-11)))
        CFI R2 load(1, XDATA, add(CFA_XSP16, literal(-12)))
        CFI R1 load(1, XDATA, add(CFA_XSP16, literal(-13)))
        CFI R0 load(1, XDATA, add(CFA_XSP16, literal(-14)))
        CFI CFA_XSP16 add(XSP16, 14)
        ; Saved register size: 15
        ; Auto size: 0
//  274   HAL_ENTER_ISR();
        MOV     C,0xa8.7
        CLR     A
        RLC     A
        MOV     R6,A
        SETB    0xa8.7
//  275 
//  276   if (P1IFG & PUSH1_BV)
        MOV     A,0x8a
        MOV     C,0xE0 /* A   */.2
        JNC     ??usbKeyISR_0
//  277   {
//  278     isrKeys |= HAL_KEY_SW_1;
        MOV     DPTR,#isrKeys
        MOVX    A,@DPTR
        SETB    0xE0 /* A   */.0
        MOVX    @DPTR,A
//  279   }
//  280 
//  281   if (P1IFG & PUSH2_BV)
??usbKeyISR_0:
        MOV     A,0x8a
        MOV     C,0xE0 /* A   */.3
        JNC     ??usbKeyISR_1
//  282   {
//  283     isrKeys |= HAL_KEY_SW_2;
        MOV     DPTR,#isrKeys
        MOVX    A,@DPTR
        SETB    0xE0 /* A   */.1
        MOVX    @DPTR,A
//  284   }
//  285 
//  286   HAL_KEY_CLR_INT();
??usbKeyISR_1:
        MOV     0x8a,#0x0
        CLR     0xe8.3
//  287   (void)osal_set_event(Hal_TaskID, HAL_KEY_EVENT);
        ; Setup parameters for call to function osal_set_event
        MOV     R2,#0x1
        MOV     R3,#0x0
        MOV     DPTR,#Hal_TaskID
        MOVX    A,@DPTR
        MOV     R1,A
        LCALL   ??osal_set_event?relay
//  288 
//  289   HAL_EXIT_ISR();
        MOV     A,R6
        MOV     C,0xE0 /* A   */.0
        MOV     0xa8.7,C
//  290 }
        MOV     R7,#0x1
        LJMP    ?INTERRUPT_LEAVE_XSP
        CFI EndBlock cfiBlock7
        REQUIRE _A_IEN0
        REQUIRE P1IFG
        REQUIRE _A_IRCON2

        COMMON INTVEC:CODE:ROOT(0)
        ORG 123
`??usbKeyISR??INTVEC 123`:
        LJMP       (usbKeyISR)

        RSEG BANK_RELAYS:CODE:REORDER:NOROOT(0)
??HalKeyInit?relay:
        LCALL   ?BDISPATCH
        DATA
        DC24    HalKeyInit

        RSEG BANK_RELAYS:CODE:REORDER:NOROOT(0)
??HalKeyConfig?relay:
        LCALL   ?BDISPATCH
        DATA
        DC24    HalKeyConfig

        RSEG BANK_RELAYS:CODE:REORDER:NOROOT(0)
??HalKeyPoll?relay:
        LCALL   ?BDISPATCH
        DATA
        DC24    HalKeyPoll

        RSEG BANK_RELAYS:CODE:REORDER:NOROOT(0)
??HalKeyRead?relay:
        LCALL   ?BDISPATCH
        DATA
        DC24    HalKeyRead

        RSEG BANK_RELAYS:CODE:REORDER:NOROOT(0)
??HalKeyEnterSleep?relay:
        LCALL   ?BDISPATCH
        DATA
        DC24    HalKeyEnterSleep

        RSEG BANK_RELAYS:CODE:REORDER:NOROOT(0)
??HalKeyExitSleep?relay:
        LCALL   ?BDISPATCH
        DATA
        DC24    HalKeyExitSleep

        END
//  291 
//  292 /**************************************************************************************************
//  293 */
// 
// 171 bytes in segment BANKED_CODE
//  36 bytes in segment BANK_RELAYS
//   3 bytes in segment INTVEC
//  67 bytes in segment NEAR_CODE
//   7 bytes in segment SFR_AN
//   5 bytes in segment XDATA_Z
// 
// 274 bytes of CODE  memory (+ 3 bytes shared)
//   0 bytes of DATA  memory (+ 7 bytes shared)
//   5 bytes of XDATA memory
//
//Errors: none
//Warnings: none
